TN:
SF:/home/jenkins/executables/referenceApp/safety/safeSupervisor/include/safeSupervisor/SafeSupervisor.h
FN:62,_ZN6safety14SafeSupervisor13enterLimpHomeEv
FNDA:7,_ZN6safety14SafeSupervisor13enterLimpHomeEv
FNF:1
FNH:1
DA:62,7
LF:1
LH:1
end_of_record
TN:
SF:/home/jenkins/executables/referenceApp/safety/safeSupervisor/include/safeSupervisor/utils/explicitly_constructible.h
FN:41,_ZN6safety24explicitly_constructibleINS_14SafeSupervisorEEdeEv
FNDA:0,_ZN6safety24explicitly_constructibleINS_14SafeSupervisorEEdeEv
FNF:1
FNH:0
DA:41,0
LF:1
LH:0
end_of_record
TN:
SF:/home/jenkins/executables/referenceApp/safety/safeSupervisor/src/safeSupervisor/SafeSupervisor.cpp
FN:18,_ZN6safety14SafeSupervisorC2Ev
FN:43,_ZNK6safety14SafeSupervisor4initEv
FN:52,_ZN6safety14SafeSupervisor6handleERKNS0_5EventE
FN:173,_ZN6safety14SafeSupervisor11getInstanceEv
FNDA:0,_ZN6safety14SafeSupervisor11getInstanceEv
FNDA:8,_ZN6safety14SafeSupervisorC2Ev
FNDA:8,_ZN6safety14SafeSupervisor6handleERKNS0_5EventE
FNDA:0,_ZNK6safety14SafeSupervisor4initEv
FNF:4
FNH:2
DA:18,8
DA:19,8
DA:21,16
DA:22,16
DA:23,8
DA:24,8
DA:25,8
DA:27,16
DA:28,16
DA:29,8
DA:30,8
DA:31,8
DA:32,8
DA:33,8
DA:34,8
DA:35,8
DA:36,8
DA:37,8
DA:38,8
DA:39,8
DA:40,8
DA:41,8
DA:43,0
DA:46,0
DA:52,8
DA:54,8
DA:55,8
DA:57,1
DA:59,1
DA:62,1
DA:64,1
DA:66,1
DA:69,1
DA:71,1
DA:73,1
DA:74,1
DA:76,1
DA:78,1
DA:81,1
DA:83,1
DA:85,1
DA:88,1
DA:90,1
DA:92,1
DA:95,1
DA:97,1
DA:99,1
DA:102,1
DA:104,1
DA:106,1
DA:109,1
DA:111,0
DA:113,0
DA:116,0
DA:118,0
DA:120,0
DA:123,0
DA:125,0
DA:127,0
DA:130,0
DA:132,0
DA:134,0
DA:137,0
DA:140,0
DA:142,0
DA:144,0
DA:147,0
DA:149,0
DA:151,0
DA:154,0
DA:156,0
DA:158,0
DA:161,0
DA:163,0
DA:166,7
DA:168,7
DA:169,8
DA:173,0
LF:78
LH:52
end_of_record
TN:
SF:/home/jenkins/executables/unitTest/bsp/bspMcu/include/reset/softwareSystemReset.h
FN:13,softwareSystemReset
FNDA:7,softwareSystemReset
FNF:1
FNH:1
DA:13,7
LF:1
LH:1
end_of_record
TN:
SF:/home/jenkins/libs/3rdparty/etl/include/etl/algorithm.h
FN:139,_ZN3etl17private_algorithm9swap_implILb1EE7do_swapIPhS4_EEvT_T0_
FN:156,_ZN3etl9iter_swapIPhS1_EEvT_T0_
FN:221,_ZN3etl4copyIPhS1_EET0_T_S3_S2_
FN:221,_ZN3etl4copyIPKhPhEET0_T_S5_S4_
FN:269,_ZN3etl6copy_nIPKcmPhEET1_T_T0_S4_
FN:371,_ZN3etl7reverseIPhEENS_9enable_ifIXsrNS_10is_pointerIT_EE5valueEvE4typeES4_S4_
FN:401,_ZN3etl11lower_boundIPKN7storage13MappingConfigEjZNKS1_14MappingStorage14getConfigEntryEjEUlRS3_jE_EET_S8_S8_RKT0_T1_
FN:530,_ZN3etl7find_ifINS_5ipool14ipool_iteratorILb0EEEZN3uds15DiagDispatcher210send_localERN9transport16TransportMessageEPNS6_34ITransportMessageProcessedListenerEEUlPvE_EET_SD_SD_T0_
FN:530,_ZN3etl7find_ifIPKN9transport14LogicalAddressEZNS1_13addressfinder22findDoipAddressInSliceEtRKNS_4spanIS3_Lm18446744073709551615EEEEUlS2_E_EET_SB_SB_T0_
FN:530,_ZN3etl7find_ifIPKN9transport14LogicalAddressEZNS1_13addressfinder22find8BitAddressInSliceEtRKNS_4spanIS3_Lm18446744073709551615EEEEUlS2_E_EET_SB_SB_T0_
FN:576,_ZN3etl4fillIPPN7storage10StorageJobES3_EEvT_S5_RKT0_
FN:576,_ZN3etl4fillIPhhEEvT_S2_RKT0_
FN:699,_ZN3etl5equalIPKjS2_EEbT_S3_T0_
FN:699,_ZN3etl5equalIPKcS2_EEbT_S3_T0_
FN:739,_ZN3etl5equalIPKhS2_EEbT_S3_T0_S4_
FN:739,_ZN3etl5equalIPhPKhEEbT_S4_T0_S5_
FN:739,_ZN3etl5equalIPKhPhEEbT_S4_T0_S5_
FN:823,_ZN3etl3minIjNS_4lessIjEEEERKT_S5_S5_T0_
FN:823,_ZN3etl3minImNS_4lessImEEEERKT_S5_S5_T0_
FN:823,_ZN3etl3minItNS_4lessItEEEERKT_S5_S5_T0_
FN:823,_ZN3etl3minIhNS_4lessIhEEEERKT_S5_S5_T0_
FN:831,_ZN3etl3minImEERKT_S3_S3_
FN:831,_ZN3etl3minIjEERKT_S3_S3_
FN:831,_ZN3etl3minIhEERKT_S3_S3_
FN:831,_ZN3etl3minItEERKT_S3_S3_
FN:844,_ZN3etl3maxIhNS_4lessIhEEEERKT_S5_S5_T0_
FN:844,_ZN3etl3maxIjNS_4lessIjEEEERKT_S5_S5_T0_
FN:852,_ZN3etl3maxIhEERKT_S3_S3_
FN:852,_ZN3etl3maxIjEERKT_S3_S3_
FNDA:6125,_ZN3etl3minImEERKT_S3_S3_
FNDA:26,_ZN3etl3minIjEERKT_S3_S3_
FNDA:1,_ZN3etl5equalIPhPKhEEbT_S4_T0_S5_
FNDA:4,_ZN3etl5equalIPKcS2_EEbT_S3_T0_
FNDA:26,_ZN3etl3maxIjNS_4lessIjEEEERKT_S5_S5_T0_
FNDA:26,_ZN3etl3minIjNS_4lessIjEEEERKT_S5_S5_T0_
FNDA:1,_ZN3etl4copyIPhS1_EET0_T_S3_S2_
FNDA:6125,_ZN3etl3minImNS_4lessImEEEERKT_S5_S5_T0_
FNDA:730,_ZN3etl3minItNS_4lessItEEEERKT_S5_S5_T0_
FNDA:346,_ZN3etl9iter_swapIPhS1_EEvT_T0_
FNDA:23,_ZN3etl4fillIPPN7storage10StorageJobES3_EEvT_S5_RKT0_
FNDA:18,_ZN3etl5equalIPKjS2_EEbT_S3_T0_
FNDA:1485,_ZN3etl3maxIhNS_4lessIhEEEERKT_S5_S5_T0_
FNDA:1485,_ZN3etl3maxIhEERKT_S3_S3_
FNDA:19,_ZN3etl5equalIPKhS2_EEbT_S3_T0_S4_
FNDA:33,_ZN3etl11lower_boundIPKN7storage13MappingConfigEjZNKS1_14MappingStorage14getConfigEntryEjEUlRS3_jE_EET_S8_S8_RKT0_T1_
FNDA:9,_ZN3etl7find_ifIPKN9transport14LogicalAddressEZNS1_13addressfinder22find8BitAddressInSliceEtRKNS_4spanIS3_Lm18446744073709551615EEEEUlS2_E_EET_SB_SB_T0_
FNDA:9,_ZN3etl7find_ifIPKN9transport14LogicalAddressEZNS1_13addressfinder22findDoipAddressInSliceEtRKNS_4spanIS3_Lm18446744073709551615EEEEUlS2_E_EET_SB_SB_T0_
FNDA:26,_ZN3etl3maxIjEERKT_S3_S3_
FNDA:80,_ZN3etl3minIhNS_4lessIhEEEERKT_S5_S5_T0_
FNDA:3912,_ZN3etl4copyIPKhPhEET0_T_S5_S4_
FNDA:730,_ZN3etl3minItEERKT_S3_S3_
FNDA:80,_ZN3etl3minIhEERKT_S3_S3_
FNDA:346,_ZN3etl17private_algorithm9swap_implILb1EE7do_swapIPhS4_EEvT_T0_
FNDA:21,_ZN3etl5equalIPKhPhEEbT_S4_T0_S5_
FNDA:24,_ZN3etl7find_ifINS_5ipool14ipool_iteratorILb0EEEZN3uds15DiagDispatcher210send_localERN9transport16TransportMessageEPNS6_34ITransportMessageProcessedListenerEEUlPvE_EET_SD_SD_T0_
FNDA:27,_ZN3etl4fillIPhhEEvT_S2_RKT0_
FNDA:5024,_ZN3etl6copy_nIPKcmPhEET1_T_T0_S4_
FNDA:1370,_ZN3etl7reverseIPhEENS_9enable_ifIXsrNS_10is_pointerIT_EE5valueEvE4typeES4_S4_
FNF:29
FNH:29
DA:139,346
DA:142,346
DA:143,346
DA:156,346
DA:167,346
DA:171,346
DA:172,346
DA:221,3913
DA:223,22477
DA:225,18564
DA:226,18564
DA:227,18564
DA:230,3913
DA:269,5024
DA:271,18542
DA:273,13518
DA:274,13518
DA:275,13518
DA:276,13518
DA:279,5024
DA:371,1370
DA:373,1370
DA:375,1716
DA:377,346
DA:378,346
DA:381,1370
DA:401,33
DA:405,33
DA:407,139
DA:409,106
DA:410,106
DA:412,106
DA:414,106
DA:416,36
DA:417,36
DA:421,70
DA:425,33
DA:530,42
DA:532,78
DA:534,49
DA:536,13
DA:539,36
DA:542,29
DA:576,50
DA:578,980
DA:580,930
DA:581,930
DA:583,50
DA:699,22
DA:701,72
DA:703,60
DA:705,10
DA:708,50
DA:709,50
DA:712,12
DA:739,41
DA:741,8472
DA:743,8431
DA:745,0
DA:748,8431
DA:749,8431
DA:752,41
DA:823,6961
DA:825,6961
DA:831,6961
DA:835,6961
DA:844,1511
DA:846,1511
DA:852,1511
DA:856,1511
LF:70
LH:69
end_of_record
TN:
SF:/home/jenkins/libs/3rdparty/etl/include/etl/alignment.h
FN:102,_ZN3etl10is_alignedILm1EEEbPKv
FN:102,_ZN3etl10is_alignedILm8EEEbPKv
FNDA:19,_ZN3etl10is_alignedILm8EEEbPKv
FNDA:3297,_ZN3etl10is_alignedILm1EEEbPKv
FNF:2
FNH:2
DA:102,3316
DA:104,3316
DA:105,3316
LF:3
LH:3
end_of_record
TN:
SF:/home/jenkins/libs/3rdparty/etl/include/etl/array.h
FN:146,_ZN3etl5arrayIN5async11TaskContextINS1_15FreeRtosAdapterIN12_GLOBAL__N_111TestBindingEEEEELm3EEixEm
FN:146,_ZN3etl5arrayImLm32EEixEm
FN:146,_ZN3etl5arrayIPN7storage10StorageJobELm2EEixEm
FN:146,_ZN3etl5arrayINS_8delegateIFvvEEELm2EEixEm
FN:146,_ZN3etl5arrayIN5async11TaskContextINS1_15FreeRtosAdapterINS1_12AsyncBindingEEEEELm3EEixEm
FN:146,_ZN3etl5arrayImLm8EEixEm
FN:146,_ZN3etl5arrayIhLm2EEixEm
FN:146,_ZN3etl5arrayINS_8delegateIFvvEEELm3EEixEm
FN:146,_ZN3etl5arrayIhLm10EEixEm
FN:146,_ZN3etl5arrayImLm49EEixEm
FN:146,_ZN3etl5arrayIhLm17EEixEm
FN:146,_ZN3etl5arrayIhLm4EEixEm
FN:146,_ZN3etl5arrayIhLm128EEixEm
FN:146,_ZN3etl5arrayIhLm20EEixEm
FN:146,_ZN3etl5arrayIhLm6EEixEm
FN:146,_ZN3etl5arrayIhLm3EEixEm
FN:146,_ZN3etl5arrayIPN2io7IWriterELm8EEixEm
FN:146,_ZN3etl5arrayINS_6stringILm16EEELm5EEixEm
FN:146,_ZN3etl5arrayIjLm4EEixEm
FN:146,_ZN3etl5arrayIhLm512EEixEm
FN:146,_ZN3etl5arrayIiLm4EEixEm
FN:146,_ZN3etl5arrayIhLm38EEixEm
FN:146,_ZN3etl5arrayIN7storage10StorageJobELm2EEixEm
FN:146,_ZN3etl5arrayIhLm40EEixEm
FN:146,_ZN3etl5arrayIhLm1024EEixEm
FN:146,_ZN3etl5arrayIhLm10240EEixEm
FN:157,_ZNK3etl5arrayINS_8delegateIFvvEEELm3EEixEm
FN:157,_ZNK3etl5arrayINS_8delegateIFvvEEELm2EEixEm
FN:157,_ZNK3etl5arrayIjLm4EEixEm
FN:157,_ZNK3etl5arrayINS_6stringILm16EEELm5EEixEm
FN:205,_ZN3etl5arrayIN7runtime14RuntimeMonitorIN12_GLOBAL__N_121TestContextStatisticsENS3_22TestFunctionStatisticsEE12ContextEntryELm2EE4dataEv
FN:205,_ZN3etl5arrayImLm64EE4dataEv
FN:205,_ZN3etl5arrayIN12_GLOBAL__N_114TestStatisticsELm4EE4dataEv
FN:205,_ZN3etl5arrayIN9lifecycle16LifecycleManager13ComponentInfoELm4EE4dataEv
FN:205,_ZN3etl5arrayImLm1EE4dataEv
FN:205,_ZN3etl5arrayIKPN7storage8IStorageELm3EE4dataEv
FN:205,_ZN3etl5arrayIPN2io7IWriterELm8EE4dataEv
FN:205,_ZN3etl5arrayImLm96EE4dataEv
FN:205,_ZN3etl5arrayIN12_GLOBAL__N_114TestStatisticsELm3EE4dataEv
FN:205,_ZN3etl5arrayIhLm9EE4dataEv
FN:205,_ZN3etl5arrayIN9lifecycle16LifecycleManager13ComponentInfoELm21EE4dataEv
FN:205,_ZN3etl5arrayIhLm38EE4dataEv
FN:205,_ZN3etl5arrayIhLm6EE4dataEv
FN:205,_ZN3etl5arrayImLm32EE4dataEv
FN:205,_ZN3etl5arrayIN12_GLOBAL__N_114TestStatisticsELm5EE4dataEv
FN:205,_ZN3etl5arrayIPN2io7IWriterELm1EE4dataEv
FN:205,_ZN3etl5arrayImLm48EE4dataEv
FN:205,_ZN3etl5arrayIN7runtime14RuntimeMonitorIN12_GLOBAL__N_121TestContextStatisticsENS3_22TestFunctionStatisticsEE12ContextEntryELm3EE4dataEv
FN:205,_ZN3etl5arrayIhLm5EE4dataEv
FN:205,_ZN3etl5arrayIhLm4EE4dataEv
FN:205,_ZN3etl5arrayIhLm2EE4dataEv
FN:205,_ZN3etl5arrayIhLm16384EE4dataEv
FN:205,_ZN3etl5arrayImLm16EE4dataEv
FN:205,_ZN3etl5arrayIhLm3EE4dataEv
FN:205,_ZN3etl5arrayIN9lifecycle16LifecycleManager13ComponentInfoELm3EE4dataEv
FN:205,_ZN3etl5arrayIhLm8EE4dataEv
FN:205,_ZN3etl5arrayIPN7storage10StorageJobELm2EE4dataEv
FN:205,_ZN3etl5arrayImLm49EE4dataEv
FN:228,_ZN3etl5arrayIhLm3EE5beginEv
FN:237,_ZNK3etl5arrayIKN9lifecycle8internal13LifecycleDescELm2EE5beginEv
FN:237,_ZNK3etl5arrayIKN9lifecycle8internal13LifecycleDescELm5EE5beginEv
FN:237,_ZNK3etl5arrayIKN9lifecycle8internal13LifecycleDescELm14EE5beginEv
FN:237,_ZNK3etl5arrayIjLm4EE5beginEv
FN:246,_ZNK3etl5arrayIjLm4EE6cbeginEv
FN:265,_ZNK3etl5arrayIKN9lifecycle8internal13LifecycleDescELm14EE3endEv
FN:265,_ZNK3etl5arrayIKN9lifecycle8internal13LifecycleDescELm2EE3endEv
FN:265,_ZNK3etl5arrayIKN9lifecycle8internal13LifecycleDescELm5EE3endEv
FN:274,_ZNK3etl5arrayIjLm4EE4cendEv
FN:352,_ZNK3etl5arrayImLm128EE4sizeEv
FN:352,_ZNK3etl5arrayImLm1EE4sizeEv
FN:352,_ZNK3etl5arrayIhLm4EE4sizeEv
FN:352,_ZNK3etl5arrayIhLm2EE4sizeEv
FN:352,_ZNK3etl5arrayImLm16EE4sizeEv
FN:352,_ZNK3etl5arrayIN12_GLOBAL__N_114TestStatisticsELm5EE4sizeEv
FN:352,_ZNK3etl5arrayIN12_GLOBAL__N_114TestStatisticsELm3EE4sizeEv
FN:352,_ZNK3etl5arrayImLm96EE4sizeEv
FN:352,_ZNK3etl5arrayImLm49EE4sizeEv
FN:352,_ZNK3etl5arrayIPN7storage10StorageJobELm2EE4sizeEv
FN:352,_ZNK3etl5arrayIhLm3EE4sizeEv
FN:352,_ZNK3etl5arrayIhLm6EE4sizeEv
FN:352,_ZNK3etl5arrayImLm32EE4sizeEv
FN:352,_ZNK3etl5arrayImLm256EE4sizeEv
FN:352,_ZNK3etl5arrayIhLm16384EE4sizeEv
FN:352,_ZNK3etl5arrayINS_6stringILm16EEELm5EE4sizeEv
FN:352,_ZNK3etl5arrayIN9lifecycle16LifecycleManager13ComponentInfoELm4EE4sizeEv
FN:352,_ZNK3etl5arrayIN9lifecycle16LifecycleManager13ComponentInfoELm3EE4sizeEv
FN:352,_ZNK3etl5arrayIN5async11TaskContextINS1_15FreeRtosAdapterINS1_12AsyncBindingEEEEELm3EE4sizeEv
FN:352,_ZNK3etl5arrayIhLm5EE4sizeEv
FN:352,_ZNK3etl5arrayIN9lifecycle16LifecycleManager13ComponentInfoELm21EE4sizeEv
FN:352,_ZNK3etl5arrayIKPN7storage8IStorageELm3EE4sizeEv
FN:352,_ZNK3etl5arrayIN5async11TaskContextINS1_15FreeRtosAdapterIN12_GLOBAL__N_111TestBindingEEEEELm3EE4sizeEv
FN:352,_ZNK3etl5arrayImLm64EE4sizeEv
FN:352,_ZNK3etl5arrayImLm48EE4sizeEv
FN:352,_ZNK3etl5arrayIN7runtime14RuntimeMonitorIN12_GLOBAL__N_121TestContextStatisticsENS3_22TestFunctionStatisticsEE12ContextEntryELm3EE4sizeEv
FN:352,_ZNK3etl5arrayIhLm8EE4sizeEv
FN:352,_ZNK3etl5arrayIhLm9EE4sizeEv
FN:352,_ZNK3etl5arrayIN7runtime14RuntimeMonitorIN12_GLOBAL__N_121TestContextStatisticsENS3_22TestFunctionStatisticsEE12ContextEntryELm2EE4sizeEv
FN:352,_ZNK3etl5arrayIN12_GLOBAL__N_114TestStatisticsELm4EE4sizeEv
FN:374,_ZN3etl5arrayIhLm3EE4fillEh
FN:374,_ZN3etl5arrayIhLm38EE4fillEh
FN:374,_ZN3etl5arrayIPN7storage10StorageJobELm2EE4fillES3_
FN:872,_ZNK3etl5arrayImLm0EE4sizeEv
FN:1097,_ZN3etleqIjLm4EEEbRKNS_5arrayIT_XT0_EEES5_
FNDA:1,_ZNK3etl5arrayIN12_GLOBAL__N_114TestStatisticsELm3EE4sizeEv
FNDA:23,_ZN3etl5arrayIhLm38EE4fillEh
FNDA:14,_ZN3etl5arrayImLm32EE4dataEv
FNDA:1,_ZNK3etl5arrayIN12_GLOBAL__N_114TestStatisticsELm5EE4sizeEv
FNDA:9,_ZN3etl5arrayIhLm10EEixEm
FNDA:89,_ZN3etl5arrayIhLm6EE4dataEv
FNDA:15,_ZN3etl5arrayIhLm3EE5beginEv
FNDA:1,_ZNK3etl5arrayIKN9lifecycle8internal13LifecycleDescELm14EE3endEv
FNDA:1,_ZNK3etl5arrayImLm96EE4sizeEv
FNDA:3,_ZN3etl5arrayImLm49EEixEm
FNDA:19,_ZNK3etl5arrayIjLm4EEixEm
FNDA:0,_ZN3etl5arrayIhLm4EEixEm
FNDA:89,_ZNK3etl5arrayIhLm6EE4sizeEv
FNDA:5271,_ZN3etl5arrayIhLm17EEixEm
FNDA:20,_ZNK3etl5arrayIhLm3EE4sizeEv
FNDA:46,_ZNK3etl5arrayIPN7storage10StorageJobELm2EE4sizeEv
FNDA:3,_ZNK3etl5arrayImLm49EE4sizeEv
FNDA:1,_ZN3etl5arrayIPN2io7IWriterELm1EE4dataEv
FNDA:1,_ZNK3etl5arrayImLm256EE4sizeEv
FNDA:4,_ZNK3etl5arrayIhLm16384EE4sizeEv
FNDA:97,_ZN3etl5arrayIhLm6EEixEm
FNDA:2,_ZN3etl5arrayIN12_GLOBAL__N_114TestStatisticsELm5EE4dataEv
FNDA:1,_ZNK3etl5arrayIKN9lifecycle8internal13LifecycleDescELm14EE5beginEv
FNDA:7,_ZNK3etl5arrayImLm32EE4sizeEv
FNDA:491,_ZN3etl5arrayIhLm20EEixEm
FNDA:59,_ZN3etl5arrayIhLm128EEixEm
FNDA:46,_ZN3etl5arrayIPN7storage10StorageJobELm2EEixEm
FNDA:2,_ZN3etl5arrayImLm32EEixEm
FNDA:10,_ZN3etl5arrayImLm64EE4dataEv
FNDA:12,_ZN3etl5arrayIN5async11TaskContextINS1_15FreeRtosAdapterIN12_GLOBAL__N_111TestBindingEEEEELm3EEixEm
FNDA:3,_ZN3etl5arrayIhLm3EE4fillEh
FNDA:2,_ZNK3etl5arrayImLm128EE4sizeEv
FNDA:2,_ZN3etl5arrayIN7runtime14RuntimeMonitorIN12_GLOBAL__N_121TestContextStatisticsENS3_22TestFunctionStatisticsEE12ContextEntryELm2EE4dataEv
FNDA:11,_ZN3etl5arrayIN5async11TaskContextINS1_15FreeRtosAdapterINS1_12AsyncBindingEEEEELm3EEixEm
FNDA:362,_ZN3etl5arrayINS_8delegateIFvvEEELm2EEixEm
FNDA:18,_ZNK3etl5arrayIjLm4EE4cendEv
FNDA:2,_ZN3etl5arrayIN12_GLOBAL__N_114TestStatisticsELm3EE4dataEv
FNDA:2,_ZN3etl5arrayImLm96EE4dataEv
FNDA:4,_ZN3etl5arrayIPN2io7IWriterELm8EE4dataEv
FNDA:46,_ZN3etl5arrayIKPN7storage8IStorageELm3EE4dataEv
FNDA:2,_ZN3etl5arrayImLm1EE4dataEv
FNDA:18,_ZNK3etl5arrayINS_8delegateIFvvEEELm3EEixEm
FNDA:2,_ZN3etl5arrayIN12_GLOBAL__N_114TestStatisticsELm4EE4dataEv
FNDA:6,_ZN3etl5arrayIN9lifecycle16LifecycleManager13ComponentInfoELm4EE4dataEv
FNDA:11,_ZN3etl5arrayIhLm9EE4dataEv
FNDA:6,_ZNK3etl5arrayIhLm4EE4sizeEv
FNDA:26,_ZNK3etl5arrayINS_8delegateIFvvEEELm2EEixEm
FNDA:1,_ZNK3etl5arrayImLm1EE4sizeEv
FNDA:39,_ZN3etl5arrayImLm8EEixEm
FNDA:23,_ZN3etl5arrayIhLm38EE4dataEv
FNDA:1,_ZNK3etl5arrayIKN9lifecycle8internal13LifecycleDescELm5EE5beginEv
FNDA:4,_ZN3etl5arrayINS_8delegateIFvvEEELm3EEixEm
FNDA:1,_ZNK3etl5arrayImLm0EE4sizeEv
FNDA:1,_ZNK3etl5arrayImLm16EE4sizeEv
FNDA:1,_ZNK3etl5arrayIKN9lifecycle8internal13LifecycleDescELm2EE5beginEv
FNDA:0,_ZN3etl5arrayIhLm2EEixEm
FNDA:1,_ZNK3etl5arrayIhLm2EE4sizeEv
FNDA:2,_ZN3etl5arrayIN9lifecycle16LifecycleManager13ComponentInfoELm21EE4dataEv
FNDA:5,_ZNK3etl5arrayImLm64EE4sizeEv
FNDA:2,_ZNK3etl5arrayIN5async11TaskContextINS1_15FreeRtosAdapterIN12_GLOBAL__N_111TestBindingEEEEELm3EE4sizeEv
FNDA:340,_ZN3etl5arrayIhLm38EEixEm
FNDA:8,_ZN3etl5arrayIhLm16384EE4dataEv
FNDA:40,_ZN3etl5arrayIhLm3EE4dataEv
FNDA:23,_ZN3etl5arrayIPN7storage10StorageJobELm2EE4fillES3_
FNDA:1,_ZNK3etl5arrayIN7runtime14RuntimeMonitorIN12_GLOBAL__N_121TestContextStatisticsENS3_22TestFunctionStatisticsEE12ContextEntryELm3EE4sizeEv
FNDA:2,_ZN3etl5arrayImLm16EE4dataEv
FNDA:1,_ZNK3etl5arrayImLm48EE4sizeEv
FNDA:1,_ZNK3etl5arrayIN12_GLOBAL__N_114TestStatisticsELm4EE4sizeEv
FNDA:1,_ZNK3etl5arrayIN7runtime14RuntimeMonitorIN12_GLOBAL__N_121TestContextStatisticsENS3_22TestFunctionStatisticsEE12ContextEntryELm2EE4sizeEv
FNDA:46,_ZN3etl5arrayIhLm8EE4dataEv
FNDA:6,_ZN3etl5arrayIN9lifecycle16LifecycleManager13ComponentInfoELm3EE4dataEv
FNDA:11,_ZNK3etl5arrayIhLm9EE4sizeEv
FNDA:1,_ZNK3etl5arrayIKN9lifecycle8internal13LifecycleDescELm5EE3endEv
FNDA:23,_ZNK3etl5arrayIhLm8EE4sizeEv
FNDA:1,_ZNK3etl5arrayIKN9lifecycle8internal13LifecycleDescELm2EE3endEv
FNDA:6,_ZN3etl5arrayImLm49EE4dataEv
FNDA:51,_ZN3etl5arrayIhLm10240EEixEm
FNDA:18,_ZN3etleqIjLm4EEEbRKNS_5arrayIT_XT0_EEES5_
FNDA:22,_ZNK3etl5arrayINS_6stringILm16EEELm5EEixEm
FNDA:36,_ZNK3etl5arrayIjLm4EE6cbeginEv
FNDA:92,_ZN3etl5arrayIPN7storage10StorageJobELm2EE4dataEv
FNDA:5,_ZN3etl5arrayIhLm1024EEixEm
FNDA:77,_ZN3etl5arrayIhLm40EEixEm
FNDA:46,_ZN3etl5arrayIN7storage10StorageJobELm2EEixEm
FNDA:2,_ZN3etl5arrayIN7runtime14RuntimeMonitorIN12_GLOBAL__N_121TestContextStatisticsENS3_22TestFunctionStatisticsEE12ContextEntryELm3EE4dataEv
FNDA:2,_ZN3etl5arrayImLm48EE4dataEv
FNDA:14,_ZNK3etl5arrayINS_6stringILm16EEELm5EE4sizeEv
FNDA:53,_ZN3etl5arrayIhLm3EEixEm
FNDA:3,_ZNK3etl5arrayIN9lifecycle16LifecycleManager13ComponentInfoELm3EE4sizeEv
FNDA:3,_ZNK3etl5arrayIN9lifecycle16LifecycleManager13ComponentInfoELm4EE4sizeEv
FNDA:11,_ZN3etl5arrayIhLm4EE4dataEv
FNDA:16,_ZN3etl5arrayIPN2io7IWriterELm8EEixEm
FNDA:8,_ZN3etl5arrayIhLm5EE4dataEv
FNDA:4,_ZNK3etl5arrayIhLm5EE4sizeEv
FNDA:0,_ZN3etl5arrayIhLm512EEixEm
FNDA:166,_ZN3etl5arrayIjLm4EEixEm
FNDA:36,_ZNK3etl5arrayIjLm4EE5beginEv
FNDA:2,_ZN3etl5arrayIhLm2EE4dataEv
FNDA:2,_ZN3etl5arrayINS_6stringILm16EEELm5EEixEm
FNDA:2,_ZNK3etl5arrayIN5async11TaskContextINS1_15FreeRtosAdapterINS1_12AsyncBindingEEEEELm3EE4sizeEv
FNDA:23,_ZNK3etl5arrayIKPN7storage8IStorageELm3EE4sizeEv
FNDA:1,_ZNK3etl5arrayIN9lifecycle16LifecycleManager13ComponentInfoELm21EE4sizeEv
FNDA:2,_ZN3etl5arrayIiLm4EEixEm
FNF:103
FNH:100
DA:146,7164
DA:148,7164
DA:157,85
DA:159,85
DA:205,443
DA:207,443
DA:228,15
DA:230,15
DA:237,39
DA:239,39
DA:246,36
DA:248,36
DA:265,3
DA:267,3
DA:274,18
DA:276,18
DA:352,279
DA:354,279
DA:374,49
DA:376,49
DA:377,49
DA:872,1
DA:874,1
DA:1097,18
DA:1099,18
LF:25
LH:25
end_of_record
TN:
SF:/home/jenkins/libs/3rdparty/etl/include/etl/basic_string.h
FN:193,_ZNK3etl11string_base4sizeEv
FN:202,_ZNK3etl11string_base6lengthEv
FN:211,_ZNK3etl11string_base5emptyEv
FN:290,_ZN3etl11string_base10set_secureEv
FN:299,_ZNK3etl11string_base9is_secureEv
FN:313,_ZN3etl11string_baseC2Em
FN:323,_ZN3etl11string_base13set_truncatedEb
FN:332,_ZN3etl11string_baseD2Ev
FN:372,_ZN3etl13ibasic_stringIcE5beginEv
FN:381,_ZNK3etl13ibasic_stringIcE5beginEv
FN:399,_ZNK3etl13ibasic_stringIcE3endEv
FN:728,_ZN3etl13ibasic_stringIcE6assignEPKc
FN:792,_ZN3etl13ibasic_stringIcE5clearEv
FN:1388,_ZNK3etl13ibasic_stringIcE5c_strEv
FN:2472,_ZN3etl13ibasic_stringIcEC2EPcm
FN:2481,_ZN3etl13ibasic_stringIcE10initialiseEv
FN:2656,_ZN3etl13ibasic_stringIcE7cleanupEv
FN:2685,_ZN3etl13ibasic_stringIcED2Ev
FN:2790,_ZN3etl13ibasic_stringIcE11append_implEPcPKcbb
FN:2886,_ZN3etl13ibasic_stringIcE17get_string_lengthIcEENS_9enable_ifIXeqstT_stcEmE4typeEPKS4_
FN:2940,_ZN3etleqIcEEbRKNS_13ibasic_stringIT_EES5_
FNDA:8,_ZNK3etl11string_base4sizeEv
FNDA:10,_ZN3etl13ibasic_stringIcE7cleanupEv
FNDA:13,_ZN3etl13ibasic_stringIcED2Ev
FNDA:8,_ZNK3etl13ibasic_stringIcE5beginEv
FNDA:10,_ZN3etl13ibasic_stringIcE5beginEv
FNDA:4,_ZNK3etl13ibasic_stringIcE3endEv
FNDA:14,_ZNK3etl11string_base5emptyEv
FNDA:10,_ZN3etl13ibasic_stringIcE17get_string_lengthIcEENS_9enable_ifIXeqstT_stcEmE4typeEPKS4_
FNDA:0,_ZN3etl13ibasic_stringIcE5clearEv
FNDA:13,_ZN3etl11string_baseC2Em
FNDA:0,_ZN3etl11string_base10set_secureEv
FNDA:0,_ZNK3etl11string_base6lengthEv
FNDA:10,_ZN3etl13ibasic_stringIcE11append_implEPcPKcbb
FNDA:4,_ZN3etleqIcEEbRKNS_13ibasic_stringIT_EES5_
FNDA:13,_ZN3etl13ibasic_stringIcEC2EPcm
FNDA:8,_ZNK3etl13ibasic_stringIcE5c_strEv
FNDA:13,_ZN3etl11string_baseD2Ev
FNDA:10,_ZN3etl13ibasic_stringIcE6assignEPKc
FNDA:23,_ZNK3etl11string_base9is_secureEv
FNDA:23,_ZN3etl11string_base13set_truncatedEb
FNDA:13,_ZN3etl13ibasic_stringIcE10initialiseEv
FNF:21
FNH:18
DA:193,8
DA:195,8
DA:202,0
DA:204,0
DA:211,14
DA:213,14
DA:290,0
DA:292,0
DA:293,0
DA:299,23
DA:302,23
DA:313,13
DA:314,13
DA:315,13
DA:317,13
DA:323,23
DA:325,23
DA:326,23
DA:332,13
DA:334,13
DA:372,10
DA:374,10
DA:381,8
DA:383,8
DA:399,4
DA:401,4
DA:728,10
DA:730,10
DA:731,10
DA:792,0
DA:794,0
DA:795,0
DA:796,0
DA:1388,8
DA:1390,8
DA:2472,13
DA:2474,13
DA:2476,13
DA:2481,13
DA:2483,13
DA:2484,13
DA:2486,13
DA:2488,13
DA:2656,10
DA:2659,10
DA:2661,0
DA:2664,10
DA:2685,13
DA:2688,13
DA:2690,0
DA:2693,13
DA:2790,10
DA:2792,10
DA:2794,0
DA:2795,0
DA:2798,10
DA:2799,10
DA:2801,10
DA:2802,10
DA:2803,10
DA:2804,10
DA:2806,10
DA:2807,10
DA:2808,10
DA:2811,10
DA:2818,10
DA:2820,0
DA:2824,10
DA:2886,10
DA:2888,10
DA:2940,4
DA:2942,4
LF:72
LH:58
end_of_record
TN:
SF:/home/jenkins/libs/3rdparty/etl/include/etl/binary.h
FN:727,_ZN3etl13reverse_bytesIhEENS_9enable_ifIXaaaasrNS_11is_integralIT_EE5valuesrNS_11is_unsignedIS3_EE5valueeqsrNS_15integral_limitsIS3_EE4bitsLj8EES3_E4typeES3_
FN:740,_ZN3etl13reverse_bytesItEENS_9enable_ifIXaaaasrNS_11is_integralIT_EE5valuesrNS_11is_unsignedIS3_EE5valueeqsrNS_15integral_limitsIS3_EE4bitsLj16EES3_E4typeES3_
FN:756,_ZN3etl13reverse_bytesIjEENS_9enable_ifIXaaaasrNS_11is_integralIT_EE5valuesrNS_11is_unsignedIS3_EE5valueeqsrNS_15integral_limitsIS3_EE4bitsLj32EES3_E4typeES3_
FNDA:231,_ZN3etl13reverse_bytesItEENS_9enable_ifIXaaaasrNS_11is_integralIT_EE5valuesrNS_11is_unsignedIS3_EE5valueeqsrNS_15integral_limitsIS3_EE4bitsLj16EES3_E4typeES3_
FNDA:2040,_ZN3etl13reverse_bytesIhEENS_9enable_ifIXaaaasrNS_11is_integralIT_EE5valuesrNS_11is_unsignedIS3_EE5valueeqsrNS_15integral_limitsIS3_EE4bitsLj8EES3_E4typeES3_
FNDA:2761,_ZN3etl13reverse_bytesIjEENS_9enable_ifIXaaaasrNS_11is_integralIT_EE5valuesrNS_11is_unsignedIS3_EE5valueeqsrNS_15integral_limitsIS3_EE4bitsLj32EES3_E4typeES3_
FNF:3
FNH:3
DA:727,2040
DA:729,2040
DA:740,231
DA:745,231
DA:756,2761
DA:761,2761
DA:762,2761
DA:764,2761
LF:8
LH:8
end_of_record
TN:
SF:/home/jenkins/libs/3rdparty/etl/include/etl/char_traits.h
FN:140,_ZN3etl11char_traitsIcE6lengthEPKc
FN:158,_ZN3etl11char_traitsIcE6lengthEPKcm
FN:287,_ZN3etl6strlenIcEEmPKT_
FN:296,_ZN3etl6strlenIcEEmPKT_m
FNDA:672,_ZN3etl11char_traitsIcE6lengthEPKcm
FNDA:46,_ZN3etl6strlenIcEEmPKT_
FNDA:672,_ZN3etl6strlenIcEEmPKT_m
FNDA:140,_ZN3etl11char_traitsIcE6lengthEPKc
FNF:4
FNH:4
DA:140,140
DA:142,140
DA:144,0
DA:147,140
DA:149,1183
DA:154,140
DA:158,672
DA:160,672
DA:162,672
DA:164,732
DA:166,60
DA:170,672
DA:287,46
DA:289,46
DA:296,672
DA:298,672
LF:16
LH:15
end_of_record
TN:
SF:/home/jenkins/libs/3rdparty/etl/include/etl/circular_buffer.h
FN:54,_ZN3etl25circular_buffer_exceptionC2EPKcS2_i
FN:67,_ZN3etl21circular_buffer_emptyC2EPKci
FN:103,_ZNK3etl20circular_buffer_base5emptyEv
FN:109,_ZNK3etl20circular_buffer_base4fullEv
FN:143,_ZN3etl20circular_buffer_baseC2Em
FN:151,_ZN3etl20circular_buffer_base12increment_inEv
FN:161,_ZN3etl20circular_buffer_base13increment_outEv
FN:846,_ZN3etl16icircular_bufferIjE5frontEv
FN:908,_ZN3etl16icircular_bufferIjE4pushERKj
FN:989,_ZN3etl16icircular_bufferIjE5clearEv
FN:1042,_ZN3etl16icircular_bufferIjEC2EPjm
FN:1102,_ZN3etl16icircular_bufferIjED2Ev
FN:1124,_ZN3etl15circular_bufferIjLm5EEC2Ev
FN:1222,_ZN3etl15circular_bufferIjLm5EED2Ev
FNDA:6,_ZN3etl20circular_buffer_base13increment_outEv
FNDA:1,_ZN3etl16icircular_bufferIjE5clearEv
FNDA:1,_ZN3etl20circular_buffer_baseC2Em
FNDA:1,_ZN3etl16icircular_bufferIjEC2EPjm
FNDA:6,_ZNK3etl20circular_buffer_base4fullEv
FNDA:0,_ZN3etl25circular_buffer_exceptionC2EPKcS2_i
FNDA:11,_ZN3etl20circular_buffer_base12increment_inEv
FNDA:11,_ZN3etl16icircular_bufferIjE4pushERKj
FNDA:0,_ZN3etl21circular_buffer_emptyC2EPKci
FNDA:1,_ZN3etl15circular_bufferIjLm5EED2Ev
FNDA:1,_ZN3etl16icircular_bufferIjED2Ev
FNDA:1,_ZN3etl15circular_bufferIjLm5EEC2Ev
FNDA:6,_ZNK3etl20circular_buffer_base5emptyEv
FNDA:6,_ZN3etl16icircular_bufferIjE5frontEv
FNF:14
FNH:12
DA:54,0
DA:55,0
DA:57,0
DA:67,0
DA:68,0
DA:70,0
DA:103,6
DA:105,6
DA:109,6
DA:111,6
DA:113,6
DA:114,6
DA:116,1
DA:119,6
DA:143,1
DA:144,1
DA:145,1
DA:146,1
DA:148,1
DA:151,11
DA:153,11
DA:154,11
DA:156,1
DA:158,11
DA:161,6
DA:163,6
DA:164,6
DA:166,1
DA:168,6
DA:846,6
DA:848,6
DA:850,6
DA:908,11
DA:910,11
DA:911,11
DA:914,11
DA:917,6
DA:918,6
DA:924,11
DA:989,1
DA:993,1
DA:994,1
DA:1004,1
DA:1042,1
DA:1044,1
DA:1046,1
DA:1102,1
DA:1104,1
DA:1124,1
DA:1125,1
DA:1127,1
DA:1222,1
DA:1224,1
DA:1225,1
LF:54
LH:48
end_of_record
TN:
SF:/home/jenkins/libs/3rdparty/etl/include/etl/closure.h
FN:74,_ZN3etl7closureIFvPN9transport16TransportMessageENS1_34ITransportMessageProcessedListener16ProcessingResultEEEC2ERKNS_8delegateIS6_EES3_S5_
FN:74,_ZN3etl7closureIFvtPN3uds15AbstractDiagJobEEEC2ERKNS_8delegateIS4_EEtS3_
FN:74,_ZN3etl7closureIFvPN3uds22IncomingDiagConnectionEPKhtEEC2ERKNS_8delegateIS6_EES3_S5_t
FN:74,_ZN3etl7closureIFvhPN3uds15AbstractDiagJobEEEC2ERKNS_8delegateIS4_EEhS3_
FN:74,_ZN3etl7closureIFvtjEEC2ERKNS_8delegateIS1_EEtj
FN:84,_ZNK3etl7closureIFvtPN3uds15AbstractDiagJobEEEclEv
FN:84,_ZNK3etl7closureIFvPN9transport16TransportMessageENS1_34ITransportMessageProcessedListener16ProcessingResultEEEclEv
FN:84,_ZNK3etl7closureIFvhPN3uds15AbstractDiagJobEEEclEv
FN:84,_ZNK3etl7closureIFvPN3uds22IncomingDiagConnectionEPKhtEEclEv
FN:84,_ZNK3etl7closureIFvtjEEclEv
FN:137,_ZNK3etl7closureIFvPN9transport16TransportMessageENS1_34ITransportMessageProcessedListener16ProcessingResultEEE7executeIJLm0ELm1EEEEvNS_16integer_sequenceImJXspT_EEEE
FN:137,_ZNK3etl7closureIFvtPN3uds15AbstractDiagJobEEE7executeIJLm0ELm1EEEEvNS_16integer_sequenceImJXspT_EEEE
FN:137,_ZNK3etl7closureIFvhPN3uds15AbstractDiagJobEEE7executeIJLm0ELm1EEEEvNS_16integer_sequenceImJXspT_EEEE
FN:137,_ZNK3etl7closureIFvtjEE7executeIJLm0ELm1EEEEvNS_16integer_sequenceImJXspT_EEEE
FN:137,_ZNK3etl7closureIFvPN3uds22IncomingDiagConnectionEPKhtEE7executeIJLm0ELm1ELm2EEEEvNS_16integer_sequenceImJXspT_EEEE
FNDA:20,_ZNK3etl7closureIFvtPN3uds15AbstractDiagJobEEEclEv
FNDA:270,_ZN3etl7closureIFvtPN3uds15AbstractDiagJobEEEC2ERKNS_8delegateIS4_EEtS3_
FNDA:3,_ZNK3etl7closureIFvPN9transport16TransportMessageENS1_34ITransportMessageProcessedListener16ProcessingResultEEE7executeIJLm0ELm1EEEEvNS_16integer_sequenceImJXspT_EEEE
FNDA:20,_ZNK3etl7closureIFvtPN3uds15AbstractDiagJobEEE7executeIJLm0ELm1EEEEvNS_16integer_sequenceImJXspT_EEEE
FNDA:256,_ZN3etl7closureIFvhPN3uds15AbstractDiagJobEEEC2ERKNS_8delegateIS4_EEhS3_
FNDA:2,_ZNK3etl7closureIFvPN3uds22IncomingDiagConnectionEPKhtEEclEv
FNDA:3,_ZNK3etl7closureIFvPN9transport16TransportMessageENS1_34ITransportMessageProcessedListener16ProcessingResultEEEclEv
FNDA:9,_ZN3etl7closureIFvPN3uds22IncomingDiagConnectionEPKhtEEC2ERKNS_8delegateIS6_EES3_S5_t
FNDA:6,_ZNK3etl7closureIFvhPN3uds15AbstractDiagJobEEEclEv
FNDA:253,_ZN3etl7closureIFvPN9transport16TransportMessageENS1_34ITransportMessageProcessedListener16ProcessingResultEEEC2ERKNS_8delegateIS6_EES3_S5_
FNDA:1,_ZNK3etl7closureIFvtjEE7executeIJLm0ELm1EEEEvNS_16integer_sequenceImJXspT_EEEE
FNDA:2,_ZNK3etl7closureIFvPN3uds22IncomingDiagConnectionEPKhtEE7executeIJLm0ELm1ELm2EEEEvNS_16integer_sequenceImJXspT_EEEE
FNDA:1,_ZN3etl7closureIFvtjEEC2ERKNS_8delegateIS1_EEtj
FNDA:6,_ZNK3etl7closureIFvhPN3uds15AbstractDiagJobEEE7executeIJLm0ELm1EEEEvNS_16integer_sequenceImJXspT_EEEE
FNDA:1,_ZNK3etl7closureIFvtjEEclEv
FNF:15
FNH:15
DA:74,789
DA:75,789
DA:76,789
DA:78,789
DA:84,32
DA:86,32
DA:137,32
DA:139,32
LF:8
LH:8
end_of_record
TN:
SF:/home/jenkins/libs/3rdparty/etl/include/etl/deque.h
FN:153,_ZNK3etl10deque_base5emptyEv
FN:162,_ZNK3etl10deque_base4fullEv
FN:199,_ZN3etl10deque_baseC2Emm
FN:209,_ZN3etl10deque_baseD2Ev
FN:251,_ZN3etl6idequeIN4bios19CanFlex2Transceiver17TxJobWithCallbackEE8iteratorC2Ev
FN:259,_ZN3etl6idequeIN4bios19CanFlex2Transceiver17TxJobWithCallbackEE8iteratorC2ERKS5_
FN:267,_ZN3etl6idequeIN4bios19CanFlex2Transceiver17TxJobWithCallbackEE8iteratoraSERKS5_
FN:277,_ZN3etl6idequeIN4bios19CanFlex2Transceiver17TxJobWithCallbackEE8iteratorppEv
FN:294,_ZN3etl6idequeIN4bios19CanFlex2Transceiver17TxJobWithCallbackEE8iteratorpLEl
FN:310,_ZN3etl6idequeIN4bios19CanFlex2Transceiver17TxJobWithCallbackEE8iteratormIEl
FN:326,_ZN3etl6idequeIN4bios19CanFlex2Transceiver17TxJobWithCallbackEE8iteratormmEv
FN:343,_ZNK3etl6idequeIN4bios19CanFlex2Transceiver17TxJobWithCallbackEE8iteratordeEv
FN:389,_ZN3etlmiERKNS_6idequeIN4bios19CanFlex2Transceiver17TxJobWithCallbackEE8iteratorEl
FN:482,_ZN3etl6idequeIN4bios19CanFlex2Transceiver17TxJobWithCallbackEE8iteratorC2ElRS4_PS3_
FN:849,_ZN3etl6idequeIN4bios19CanFlex2Transceiver17TxJobWithCallbackEE5frontEv
FN:867,_ZN3etl6idequeIN4bios19CanFlex2Transceiver17TxJobWithCallbackEE4backEv
FN:980,_ZN3etl6idequeIN4bios19CanFlex2Transceiver17TxJobWithCallbackEE5clearEv
FN:1787,_ZN3etl6idequeIN4bios19CanFlex2Transceiver17TxJobWithCallbackEE12emplace_backIJRN3can21ICANFrameSentListenerERKNS6_8CANFrameEEEERS3_DpOT_
FN:2045,_ZN3etl6idequeIN4bios19CanFlex2Transceiver17TxJobWithCallbackEE9pop_frontEv
FN:2147,_ZN3etl6idequeIN4bios19CanFlex2Transceiver17TxJobWithCallbackEEC2EPS3_mm
FN:2156,_ZN3etl6idequeIN4bios19CanFlex2Transceiver17TxJobWithCallbackEE10initialiseEv
FN:2288,_ZN3etl6idequeIN4bios19CanFlex2Transceiver17TxJobWithCallbackEE21destroy_element_frontEv
FN:2299,_ZN3etl6idequeIN4bios19CanFlex2Transceiver17TxJobWithCallbackEE20destroy_element_backEv
FN:2360,_ZN3etl6idequeIN4bios19CanFlex2Transceiver17TxJobWithCallbackEED2Ev
FN:2397,_ZN3etl5dequeIN4bios19CanFlex2Transceiver17TxJobWithCallbackELm3EEC2Ev
FN:2406,_ZN3etl5dequeIN4bios19CanFlex2Transceiver17TxJobWithCallbackELm3EED2Ev
FNDA:26,_ZN3etl6idequeIN4bios19CanFlex2Transceiver17TxJobWithCallbackEE8iteratorppEv
FNDA:18,_ZN3etl6idequeIN4bios19CanFlex2Transceiver17TxJobWithCallbackEE8iteratorC2ERKS5_
FNDA:36,_ZN3etl6idequeIN4bios19CanFlex2Transceiver17TxJobWithCallbackEED2Ev
FNDA:18,_ZN3etlmiERKNS_6idequeIN4bios19CanFlex2Transceiver17TxJobWithCallbackEE8iteratorEl
FNDA:8,_ZN3etl6idequeIN4bios19CanFlex2Transceiver17TxJobWithCallbackEE9pop_frontEv
FNDA:36,_ZN3etl10deque_baseD2Ev
FNDA:36,_ZN3etl5dequeIN4bios19CanFlex2Transceiver17TxJobWithCallbackELm3EEC2Ev
FNDA:9,_ZN3etl6idequeIN4bios19CanFlex2Transceiver17TxJobWithCallbackEE5frontEv
FNDA:63,_ZNK3etl6idequeIN4bios19CanFlex2Transceiver17TxJobWithCallbackEE8iteratordeEv
FNDA:166,_ZN3etl6idequeIN4bios19CanFlex2Transceiver17TxJobWithCallbackEE8iteratoraSERKS5_
FNDA:36,_ZN3etl10deque_baseC2Emm
FNDA:10,_ZN3etl6idequeIN4bios19CanFlex2Transceiver17TxJobWithCallbackEE20destroy_element_backEv
FNDA:18,_ZN3etl6idequeIN4bios19CanFlex2Transceiver17TxJobWithCallbackEE8iteratormIEl
FNDA:0,_ZN3etl6idequeIN4bios19CanFlex2Transceiver17TxJobWithCallbackEE8iteratorpLEl
FNDA:30,_ZNK3etl10deque_base5emptyEv
FNDA:10,_ZN3etl6idequeIN4bios19CanFlex2Transceiver17TxJobWithCallbackEE8iteratormmEv
FNDA:36,_ZN3etl6idequeIN4bios19CanFlex2Transceiver17TxJobWithCallbackEEC2EPS3_mm
FNDA:8,_ZN3etl6idequeIN4bios19CanFlex2Transceiver17TxJobWithCallbackEE21destroy_element_frontEv
FNDA:18,_ZN3etl6idequeIN4bios19CanFlex2Transceiver17TxJobWithCallbackEE4backEv
FNDA:83,_ZN3etl6idequeIN4bios19CanFlex2Transceiver17TxJobWithCallbackEE10initialiseEv
FNDA:36,_ZN3etl5dequeIN4bios19CanFlex2Transceiver17TxJobWithCallbackELm3EED2Ev
FNDA:166,_ZN3etl6idequeIN4bios19CanFlex2Transceiver17TxJobWithCallbackEE8iteratorC2ElRS4_PS3_
FNDA:72,_ZN3etl6idequeIN4bios19CanFlex2Transceiver17TxJobWithCallbackEE8iteratorC2Ev
FNDA:11,_ZN3etl6idequeIN4bios19CanFlex2Transceiver17TxJobWithCallbackEE5clearEv
FNDA:19,_ZNK3etl10deque_base4fullEv
FNDA:18,_ZN3etl6idequeIN4bios19CanFlex2Transceiver17TxJobWithCallbackEE12emplace_backIJRN3can21ICANFrameSentListenerERKNS6_8CANFrameEEEERS3_DpOT_
FNF:26
FNH:25
DA:153,30
DA:155,30
DA:162,19
DA:164,19
DA:199,36
DA:200,36
DA:201,36
DA:202,36
DA:204,36
DA:209,36
DA:211,36
DA:251,72
DA:252,72
DA:253,72
DA:254,72
DA:256,72
DA:259,18
DA:260,18
DA:261,18
DA:262,18
DA:264,18
DA:267,166
DA:269,166
DA:270,166
DA:271,166
DA:273,166
DA:277,26
DA:279,26
DA:281,26
DA:294,0
DA:296,0
DA:298,0
DA:299,0
DA:301,0
DA:303,0
DA:306,0
DA:310,18
DA:312,18
DA:314,18
DA:315,18
DA:317,0
DA:319,0
DA:322,18
DA:326,10
DA:328,10
DA:330,10
DA:343,63
DA:345,63
DA:389,18
DA:391,18
DA:392,18
DA:393,18
DA:482,166
DA:483,166
DA:484,166
DA:485,166
DA:487,166
DA:849,9
DA:851,9
DA:867,18
DA:869,18
DA:980,11
DA:982,11
DA:983,11
DA:1787,18
DA:1793,18
DA:1794,18
DA:1795,18
DA:1797,18
DA:2045,8
DA:2050,8
DA:2051,8
DA:2147,36
DA:2149,36
DA:2151,36
DA:2156,83
DA:2165,93
DA:2167,10
DA:2171,83
DA:2172,83
DA:2173,83
DA:2288,8
DA:2290,8
DA:2291,8
DA:2293,8
DA:2294,8
DA:2299,10
DA:2301,10
DA:2302,10
DA:2303,10
DA:2305,10
DA:2360,36
DA:2362,36
DA:2397,36
DA:2398,36
DA:2400,36
DA:2401,36
DA:2406,36
DA:2408,36
DA:2409,36
LF:100
LH:91
end_of_record
TN:
SF:/home/jenkins/libs/3rdparty/etl/include/etl/endianness.h
FN:108,_ZNK3etl6endiancviEv
FN:108,_ZN3etl6endianC2ENS0_9enum_typeE
FN:134,_ZN3etl10endianness5valueEv
FN:145,_ZN3etl10endianness3getEv
FNDA:6402,_ZN3etl10endianness5valueEv
FNDA:6402,_ZN3etl6endianC2ENS0_9enum_typeE
FNDA:6402,_ZN3etl10endianness3getEv
FNDA:6402,_ZNK3etl6endiancviEv
FNF:4
FNH:4
DA:108,12804
DA:134,6402
DA:139,6402
DA:145,6402
DA:147,6402
LF:5
LH:5
end_of_record
TN:
SF:/home/jenkins/libs/3rdparty/etl/include/etl/exception.h
FN:69,_ZN3etl9exceptionC2EPKcS2_i
FNDA:1,_ZN3etl9exceptionC2EPKcS2_i
FNF:1
FNH:1
DA:69,1
DA:70,1
DA:71,1
DA:73,1
LF:4
LH:4
end_of_record
TN:
SF:/home/jenkins/libs/3rdparty/etl/include/etl/flags.h
FN:68,_ZN3etl5flagsIhLh255EEC2Ev
FN:87,_ZNK3etl5flagsIhLh255EE4testILh2EEEbv
FN:111,_ZN3etl5flagsIhLh255EE3setILh1EEERS1_b
FN:120,_ZN3etl5flagsIhLh255EE3setILh2EEERS1_v
FNDA:0,_ZN3etl5flagsIhLh255EE3setILh2EEERS1_v
FNDA:23,_ZN3etl5flagsIhLh255EE3setILh1EEERS1_b
FNDA:13,_ZN3etl5flagsIhLh255EEC2Ev
FNDA:23,_ZNK3etl5flagsIhLh255EE4testILh2EEEbv
FNF:4
FNH:3
DA:68,13
DA:69,13
DA:71,13
DA:87,23
DA:89,23
DA:111,23
DA:113,23
DA:115,23
DA:120,0
DA:122,0
DA:124,0
LF:11
LH:8
end_of_record
TN:
SF:/home/jenkins/libs/3rdparty/etl/include/etl/frame_check_sequence.h
FN:144,_ZN3etl20frame_check_sequenceINS_11private_crc10crc_policyINS1_14crc_parametersItLt4129ELt7439ELt0ELb0EEELm256EEEE3addIPKhEEvT_SA_
FN:166,_ZNK3etl20frame_check_sequenceINS_11private_crc10crc_policyINS1_14crc_parametersItLt4129ELt7439ELt0ELb0EEELm256EEEE5valueEv
FNDA:25,_ZNK3etl20frame_check_sequenceINS_11private_crc10crc_policyINS1_14crc_parametersItLt4129ELt7439ELt0ELb0EEELm256EEEE5valueEv
FNDA:25,_ZN3etl20frame_check_sequenceINS_11private_crc10crc_policyINS1_14crc_parametersItLt4129ELt7439ELt0ELb0EEELm256EEEE3addIPKhEEvT_SA_
FNF:2
FNH:2
DA:144,25
DA:148,95
DA:150,70
DA:151,70
DA:153,25
DA:166,25
DA:168,25
LF:7
LH:7
end_of_record
TN:
SF:/home/jenkins/libs/3rdparty/etl/include/etl/functional.h
FN:56,_ZN3etl17reference_wrapperIN5docan25IDoCanPhysicalTransceiverINS1_18DoCanDataLinkLayerIjthLj0EtEEEEEC2ERS5_
FN:56,_ZN3etl17reference_wrapperIN5docan25DoCanTransportLayerConfigINS1_18DoCanDataLinkLayerIjthLj0EtEEEEEC2ERS5_
FN:56,_ZN3etl17reference_wrapperIN5docan19IDoCanTickGeneratorEEC2ERS2_
FN:56,_ZN3etl17reference_wrapperIKhEC2ERS1_
FN:56,_ZN3etl17reference_wrapperIN9transport16TransportMessageEEC2ERS2_
FN:56,_ZN3etl17reference_wrapperIN5docan22IDoCanAddressConverterINS1_18DoCanDataLinkLayerIjthLj0EtEEEEEC2ERS5_
FN:77,_ZNK3etl17reference_wrapperIN5docan22IDoCanAddressConverterINS1_18DoCanDataLinkLayerIjthLj0EtEEEEEcvRS5_Ev
FN:77,_ZNK3etl17reference_wrapperIN9transport16TransportMessageEEcvRS2_Ev
FN:77,_ZNK3etl17reference_wrapperIKhEcvRS1_Ev
FN:77,_ZNK3etl17reference_wrapperIN5docan25IDoCanPhysicalTransceiverINS1_18DoCanDataLinkLayerIjthLj0EtEEEEEcvRS5_Ev
FN:77,_ZNK3etl17reference_wrapperIN5docan19IDoCanTickGeneratorEEcvRS2_Ev
FN:77,_ZNK3etl17reference_wrapperIN5docan25DoCanTransportLayerConfigINS1_18DoCanDataLinkLayerIjthLj0EtEEEEEcvRS5_Ev
FN:89,_ZN3etl3refIN5docan22IDoCanAddressConverterINS1_18DoCanDataLinkLayerIjthLj0EtEEEEEENS_17reference_wrapperIT_EERS7_
FN:89,_ZN3etl3refIN9transport16TransportMessageEEENS_17reference_wrapperIT_EERS4_
FN:89,_ZN3etl3refIKhEENS_17reference_wrapperIT_EERS3_
FN:89,_ZN3etl3refIN5docan25DoCanTransportLayerConfigINS1_18DoCanDataLinkLayerIjthLj0EtEEEEEENS_17reference_wrapperIT_EERS7_
FN:89,_ZN3etl3refIN5docan19IDoCanTickGeneratorEEENS_17reference_wrapperIT_EERS4_
FN:89,_ZN3etl3refIN5docan25IDoCanPhysicalTransceiverINS1_18DoCanDataLinkLayerIjthLj0EtEEEEEENS_17reference_wrapperIT_EERS7_
FN:173,_ZNK3etl4lessIhEclERKhS3_
FN:173,_ZNK3etl4lessIN5docan20DoCanMessageReceiverIN12_GLOBAL__N_113DataLinkLayerEEEEclERKS5_S8_
FN:173,_ZNK3etl4lessIN5docan20DoCanMessageReceiverINS1_18DoCanDataLinkLayerIjthLj0EtEEEEEclERKS5_S8_
FN:173,_ZNK3etl4lessImEclERKmS3_
FN:173,_ZNK3etl4lessIN5docan23DoCanMessageTransmitterINS1_18DoCanDataLinkLayerIjthLj0EtEEEEEclERKS5_S8_
FN:173,_ZNK3etl4lessIN5docan23DoCanMessageTransmitterINS1_18DoCanDataLinkLayerIjthLj4294967295EtEEEEEclERKS5_S8_
FN:173,_ZNK3etl4lessIN5docan20DoCanMessageReceiverINS1_18DoCanDataLinkLayerIjthLj4294967295EtEEEEEclERKS5_S8_
FN:173,_ZNK3etl4lessItEclERKtS3_
FN:173,_ZNK3etl4lessIN5docan23DoCanMessageTransmitterIN12_GLOBAL__N_113DataLinkLayerEEEEclERKS5_S8_
FN:173,_ZNK3etl4lessIjEclERKjS3_
FNDA:2,_ZNK3etl17reference_wrapperIN5docan25DoCanTransportLayerConfigINS1_18DoCanDataLinkLayerIjthLj0EtEEEEEcvRS5_Ev
FNDA:52,_ZNK3etl4lessIjEclERKjS3_
FNDA:2,_ZN3etl17reference_wrapperIN5docan22IDoCanAddressConverterINS1_18DoCanDataLinkLayerIjthLj0EtEEEEEC2ERS5_
FNDA:17,_ZNK3etl4lessIN5docan23DoCanMessageTransmitterIN12_GLOBAL__N_113DataLinkLayerEEEEclERKS5_S8_
FNDA:730,_ZNK3etl4lessItEclERKtS3_
FNDA:2,_ZNK3etl17reference_wrapperIN5docan19IDoCanTickGeneratorEEcvRS2_Ev
FNDA:38,_ZN3etl17reference_wrapperIN9transport16TransportMessageEEC2ERS2_
FNDA:2,_ZN3etl3refIN5docan25IDoCanPhysicalTransceiverINS1_18DoCanDataLinkLayerIjthLj0EtEEEEEENS_17reference_wrapperIT_EERS7_
FNDA:0,_ZNK3etl4lessIN5docan20DoCanMessageReceiverINS1_18DoCanDataLinkLayerIjthLj4294967295EtEEEEEclERKS5_S8_
FNDA:0,_ZNK3etl4lessIN5docan23DoCanMessageTransmitterINS1_18DoCanDataLinkLayerIjthLj4294967295EtEEEEEclERKS5_S8_
FNDA:0,_ZNK3etl4lessIN5docan23DoCanMessageTransmitterINS1_18DoCanDataLinkLayerIjthLj0EtEEEEEclERKS5_S8_
FNDA:2,_ZN3etl3refIN5docan19IDoCanTickGeneratorEEENS_17reference_wrapperIT_EERS4_
FNDA:2,_ZNK3etl17reference_wrapperIN5docan25IDoCanPhysicalTransceiverINS1_18DoCanDataLinkLayerIjthLj0EtEEEEEcvRS5_Ev
FNDA:6125,_ZNK3etl4lessImEclERKmS3_
FNDA:2,_ZN3etl17reference_wrapperIKhEC2ERS1_
FNDA:2,_ZNK3etl17reference_wrapperIKhEcvRS1_Ev
FNDA:2,_ZN3etl17reference_wrapperIN5docan19IDoCanTickGeneratorEEC2ERS2_
FNDA:2,_ZN3etl3refIN5docan25DoCanTransportLayerConfigINS1_18DoCanDataLinkLayerIjthLj0EtEEEEEENS_17reference_wrapperIT_EERS7_
FNDA:2,_ZN3etl17reference_wrapperIN5docan25DoCanTransportLayerConfigINS1_18DoCanDataLinkLayerIjthLj0EtEEEEEC2ERS5_
FNDA:38,_ZNK3etl17reference_wrapperIN9transport16TransportMessageEEcvRS2_Ev
FNDA:38,_ZN3etl3refIN9transport16TransportMessageEEENS_17reference_wrapperIT_EERS4_
FNDA:0,_ZNK3etl4lessIN5docan20DoCanMessageReceiverINS1_18DoCanDataLinkLayerIjthLj0EtEEEEEclERKS5_S8_
FNDA:2,_ZN3etl3refIKhEENS_17reference_wrapperIT_EERS3_
FNDA:2,_ZN3etl17reference_wrapperIN5docan25IDoCanPhysicalTransceiverINS1_18DoCanDataLinkLayerIjthLj0EtEEEEEC2ERS5_
FNDA:2,_ZN3etl3refIN5docan22IDoCanAddressConverterINS1_18DoCanDataLinkLayerIjthLj0EtEEEEEENS_17reference_wrapperIT_EERS7_
FNDA:2,_ZNK3etl17reference_wrapperIN5docan22IDoCanAddressConverterINS1_18DoCanDataLinkLayerIjthLj0EtEEEEEcvRS5_Ev
FNDA:224,_ZNK3etl4lessIN5docan20DoCanMessageReceiverIN12_GLOBAL__N_113DataLinkLayerEEEEclERKS5_S8_
FNDA:1565,_ZNK3etl4lessIhEclERKhS3_
FNF:28
FNH:24
DA:56,48
DA:57,48
DA:59,48
DA:77,48
DA:79,48
DA:89,48
DA:91,48
DA:173,8713
DA:175,8713
LF:9
LH:9
end_of_record
TN:
SF:/home/jenkins/libs/3rdparty/etl/include/etl/generic_pool.h
FN:66,_ZN3etl12generic_poolILm96ELm8ELm5EEC2Ev
FN:66,_ZN3etl12generic_poolILm88ELm8ELm2EEC2Ev
FN:66,_ZN3etl12generic_poolILm152ELm8ELm2EEC2Ev
FN:66,_ZN3etl12generic_poolILm88ELm8ELm5EEC2Ev
FN:66,_ZN3etl12generic_poolILm440ELm8ELm1EEC2Ev
FN:66,_ZN3etl12generic_poolILm40ELm8ELm2EEC2Ev
FN:66,_ZN3etl12generic_poolILm88ELm8ELm3EEC2Ev
FN:66,_ZN3etl12generic_poolILm104ELm8ELm4EEC2Ev
FN:66,_ZN3etl12generic_poolILm440ELm8ELm4EEC2Ev
FN:66,_ZN3etl12generic_poolILm88ELm8ELm105EEC2Ev
FN:66,_ZN3etl12generic_poolILm40ELm8ELm1EEC2Ev
FN:66,_ZN3etl12generic_poolILm96ELm8ELm1024EEC2Ev
FN:66,_ZN3etl12generic_poolILm88ELm8ELm15EEC2Ev
FN:66,_ZN3etl12generic_poolILm104ELm8ELm12EEC2Ev
FN:66,_ZN3etl12generic_poolILm96ELm8ELm1EEC2Ev
FN:66,_ZN3etl12generic_poolILm96ELm8ELm2EEC2Ev
FN:66,_ZN3etl12generic_poolILm352ELm1ELm1EEC2Ev
FN:66,_ZN3etl12generic_poolILm8ELm8ELm1EEC2Ev
FN:66,_ZN3etl12generic_poolILm96ELm8ELm3EEC2Ev
FNDA:3,_ZN3etl12generic_poolILm96ELm8ELm2EEC2Ev
FNDA:1,_ZN3etl12generic_poolILm8ELm8ELm1EEC2Ev
FNDA:1,_ZN3etl12generic_poolILm352ELm1ELm1EEC2Ev
FNDA:2,_ZN3etl12generic_poolILm96ELm8ELm3EEC2Ev
FNDA:1,_ZN3etl12generic_poolILm40ELm8ELm1EEC2Ev
FNDA:1,_ZN3etl12generic_poolILm96ELm8ELm1024EEC2Ev
FNDA:1,_ZN3etl12generic_poolILm88ELm8ELm15EEC2Ev
FNDA:1,_ZN3etl12generic_poolILm104ELm8ELm12EEC2Ev
FNDA:1,_ZN3etl12generic_poolILm96ELm8ELm1EEC2Ev
FNDA:1,_ZN3etl12generic_poolILm104ELm8ELm4EEC2Ev
FNDA:7,_ZN3etl12generic_poolILm440ELm8ELm4EEC2Ev
FNDA:1,_ZN3etl12generic_poolILm88ELm8ELm105EEC2Ev
FNDA:3,_ZN3etl12generic_poolILm88ELm8ELm3EEC2Ev
FNDA:95,_ZN3etl12generic_poolILm440ELm8ELm1EEC2Ev
FNDA:15,_ZN3etl12generic_poolILm40ELm8ELm2EEC2Ev
FNDA:2,_ZN3etl12generic_poolILm152ELm8ELm2EEC2Ev
FNDA:20,_ZN3etl12generic_poolILm88ELm8ELm5EEC2Ev
FNDA:16,_ZN3etl12generic_poolILm96ELm8ELm5EEC2Ev
FNDA:4,_ZN3etl12generic_poolILm88ELm8ELm2EEC2Ev
FNF:19
FNH:19
DA:66,176
DA:67,176
DA:69,176
LF:3
LH:3
end_of_record
TN:
SF:/home/jenkins/libs/3rdparty/etl/include/etl/intrusive_forward_list.h
FN:58,_ZN3etl32intrusive_forward_list_exceptionC2EPKcS2_i
FN:128,_ZN3etl46intrusive_forward_list_value_is_already_linkedC2EPKci
FN:149,_ZN3etl27intrusive_forward_list_baseINS_12forward_linkILm0EEEE5clearEv
FN:197,_ZN3etl27intrusive_forward_list_baseINS_12forward_linkILm0EEEE10push_frontERS2_
FN:207,_ZN3etl27intrusive_forward_list_baseINS_12forward_linkILm0EEEE9pop_frontEv
FN:243,_ZNK3etl27intrusive_forward_list_baseINS_12forward_linkILm0EEEE5emptyEv
FN:284,_ZN3etl27intrusive_forward_list_baseINS_12forward_linkILm0EEEEC2Ev
FN:292,_ZN3etl27intrusive_forward_list_baseINS_12forward_linkILm0EEEED2Ev
FN:308,_ZN3etl27intrusive_forward_list_baseINS_12forward_linkILm0EEEE17insert_link_afterERS2_S4_
FN:318,_ZN3etl27intrusive_forward_list_baseINS_12forward_linkILm0EEEE21disconnect_link_afterERS2_
FN:336,_ZN3etl27intrusive_forward_list_baseINS_12forward_linkILm0EEEE8get_headEv
FN:344,_ZNK3etl27intrusive_forward_list_baseINS_12forward_linkILm0EEEE8get_headEv
FN:352,_ZN3etl27intrusive_forward_list_baseINS_12forward_linkILm0EEEE10initialiseEv
FN:362,_ZNK3etl27intrusive_forward_list_baseINS_12forward_linkILm0EEEE15is_link_in_listEPKS2_
FN:386,_ZN3etl27intrusive_forward_list_baseINS_12forward_linkILm0EEEE11remove_linkEPS2_
FN:476,_ZN3etl22intrusive_forward_listIN7runtime24FunctionExecutionMonitorIN12_GLOBAL__N_118RuntimeMonitorMockEE5PointENS_12forward_linkILm0EEEE8iteratorC2Ev
FN:476,_ZN3etl22intrusive_forward_listIN9lifecycle18ILifecycleListenerENS_12forward_linkILm0EEEE8iteratorC2Ev
FN:476,_ZN3etl22intrusive_forward_listIN4util7command8ICommandENS_12forward_linkILm0EEEE8iteratorC2Ev
FN:481,_ZN3etl22intrusive_forward_listIN4util7command8ICommandENS_12forward_linkILm0EEEE8iteratorC2ERKS7_
FN:481,_ZN3etl22intrusive_forward_listIN5timer7TimeoutENS_12forward_linkILm0EEEE8iteratorC2ERKS6_
FN:481,_ZN3etl22intrusive_forward_listIN7runtime24FunctionExecutionMonitorIN12_GLOBAL__N_118RuntimeMonitorMockEE5PointENS_12forward_linkILm0EEEE8iteratorC2ERKSA_
FN:486,_ZN3etl22intrusive_forward_listIN4util7command8ICommandENS_12forward_linkILm0EEEE8iteratorppEv
FN:486,_ZN3etl22intrusive_forward_listIN7runtime24FunctionExecutionMonitorIN12_GLOBAL__N_118RuntimeMonitorMockEE5PointENS_12forward_linkILm0EEEE8iteratorppEv
FN:486,_ZN3etl22intrusive_forward_listIN5timer7TimeoutENS_12forward_linkILm0EEEE8iteratorppEv
FN:486,_ZN3etl22intrusive_forward_listIN9lifecycle18ILifecycleListenerENS_12forward_linkILm0EEEE8iteratorppEv
FN:486,_ZN3etl22intrusive_forward_listIN3can29IFilteredCANFrameSentListenerENS_12forward_linkILm0EEEE8iteratorppEv
FN:501,_ZN3etl22intrusive_forward_listIN4util7command8ICommandENS_12forward_linkILm0EEEE8iteratoraSERKS7_
FN:501,_ZN3etl22intrusive_forward_listIN9lifecycle18ILifecycleListenerENS_12forward_linkILm0EEEE8iteratoraSERKS6_
FN:501,_ZN3etl22intrusive_forward_listIN5timer7TimeoutENS_12forward_linkILm0EEEE8iteratoraSERKS6_
FN:501,_ZN3etl22intrusive_forward_listIN7runtime24FunctionExecutionMonitorIN12_GLOBAL__N_118RuntimeMonitorMockEE5PointENS_12forward_linkILm0EEEE8iteratoraSERKSA_
FN:507,_ZNK3etl22intrusive_forward_listIN3can29IFilteredCANFrameSentListenerENS_12forward_linkILm0EEEE8iteratordeEv
FN:507,_ZNK3etl22intrusive_forward_listIN9lifecycle18ILifecycleListenerENS_12forward_linkILm0EEEE8iteratordeEv
FN:507,_ZNK3etl22intrusive_forward_listIN4util7command8ICommandENS_12forward_linkILm0EEEE8iteratordeEv
FN:507,_ZNK3etl22intrusive_forward_listIN7runtime24FunctionExecutionMonitorIN12_GLOBAL__N_118RuntimeMonitorMockEE5PointENS_12forward_linkILm0EEEE8iteratordeEv
FN:519,_ZNK3etl22intrusive_forward_listIN4util7command8ICommandENS_12forward_linkILm0EEEE8iteratorptEv
FN:519,_ZNK3etl22intrusive_forward_listIN7runtime24FunctionExecutionMonitorIN12_GLOBAL__N_118RuntimeMonitorMockEE5PointENS_12forward_linkILm0EEEE8iteratorptEv
FN:519,_ZNK3etl22intrusive_forward_listIN5timer7TimeoutENS_12forward_linkILm0EEEE8iteratorptEv
FN:524,_ZN3etleqERKNS_22intrusive_forward_listIN3can29IFilteredCANFrameSentListenerENS_12forward_linkILm0EEEE8iteratorES8_
FN:524,_ZN3etleqERKNS_22intrusive_forward_listIN7runtime24FunctionExecutionMonitorIN12_GLOBAL__N_118RuntimeMonitorMockEE5PointENS_12forward_linkILm0EEEE8iteratorESC_
FN:524,_ZN3etleqERKNS_22intrusive_forward_listIN4util7command8ICommandENS_12forward_linkILm0EEEE8iteratorES9_
FN:524,_ZN3etleqERKNS_22intrusive_forward_listIN9lifecycle18ILifecycleListenerENS_12forward_linkILm0EEEE8iteratorES8_
FN:524,_ZN3etleqERKNS_22intrusive_forward_listIN5timer7TimeoutENS_12forward_linkILm0EEEE8iteratorES8_
FN:529,_ZN3etlneERKNS_22intrusive_forward_listIN5timer7TimeoutENS_12forward_linkILm0EEEE8iteratorES8_
FN:529,_ZN3etlneERKNS_22intrusive_forward_listIN3can29IFilteredCANFrameSentListenerENS_12forward_linkILm0EEEE8iteratorES8_
FN:529,_ZN3etlneERKNS_22intrusive_forward_listIN4util7command8ICommandENS_12forward_linkILm0EEEE8iteratorES9_
FN:529,_ZN3etlneERKNS_22intrusive_forward_listIN7runtime24FunctionExecutionMonitorIN12_GLOBAL__N_118RuntimeMonitorMockEE5PointENS_12forward_linkILm0EEEE8iteratorESC_
FN:529,_ZN3etlneERKNS_22intrusive_forward_listIN9lifecycle18ILifecycleListenerENS_12forward_linkILm0EEEE8iteratorES8_
FN:536,_ZN3etl22intrusive_forward_listIN7runtime24FunctionExecutionMonitorIN12_GLOBAL__N_118RuntimeMonitorMockEE5PointENS_12forward_linkILm0EEEE8iteratorC2EPS8_
FN:536,_ZN3etl22intrusive_forward_listIN5timer7TimeoutENS_12forward_linkILm0EEEE8iteratorC2EPS4_
FN:536,_ZN3etl22intrusive_forward_listIN9lifecycle18ILifecycleListenerENS_12forward_linkILm0EEEE8iteratorC2EPS4_
FN:536,_ZN3etl22intrusive_forward_listIN4util7command8ICommandENS_12forward_linkILm0EEEE8iteratorC2EPS5_
FN:536,_ZN3etl22intrusive_forward_listIN3can29IFilteredCANFrameSentListenerENS_12forward_linkILm0EEEE8iteratorC2EPS4_
FN:568,_ZN3etl22intrusive_forward_listIN4util7command8ICommandENS_12forward_linkILm0EEEE14const_iteratorppEv
FN:589,_ZNK3etl22intrusive_forward_listIN4util7command8ICommandENS_12forward_linkILm0EEEE14const_iteratordeEv
FN:604,_ZN3etleqERKNS_22intrusive_forward_listIN4util7command8ICommandENS_12forward_linkILm0EEEE14const_iteratorES9_
FN:609,_ZN3etlneERKNS_22intrusive_forward_listIN4util7command8ICommandENS_12forward_linkILm0EEEE14const_iteratorES9_
FN:616,_ZN3etl22intrusive_forward_listIN4util7command8ICommandENS_12forward_linkILm0EEEE14const_iteratorC2EPKS5_
FN:629,_ZN3etl22intrusive_forward_listIN9lifecycle18ILifecycleListenerENS_12forward_linkILm0EEEEC2Ev
FN:629,_ZN3etl22intrusive_forward_listIN3can29IFilteredCANFrameSentListenerENS_12forward_linkILm0EEEEC2Ev
FN:629,_ZN3etl22intrusive_forward_listIN5timer7TimeoutENS_12forward_linkILm0EEEEC2Ev
FN:629,_ZN3etl22intrusive_forward_listIN7runtime24FunctionExecutionMonitorIN12_GLOBAL__N_118RuntimeMonitorMockEE5PointENS_12forward_linkILm0EEEEC2Ev
FN:629,_ZN3etl22intrusive_forward_listIN4util7command8ICommandENS_12forward_linkILm0EEEEC2Ev
FN:636,_ZN3etl22intrusive_forward_listIN7runtime24FunctionExecutionMonitorIN12_GLOBAL__N_118RuntimeMonitorMockEE5PointENS_12forward_linkILm0EEEED2Ev
FN:636,_ZN3etl22intrusive_forward_listIN9lifecycle18ILifecycleListenerENS_12forward_linkILm0EEEED2Ev
FN:636,_ZN3etl22intrusive_forward_listIN5timer7TimeoutENS_12forward_linkILm0EEEED2Ev
FN:636,_ZN3etl22intrusive_forward_listIN4util7command8ICommandENS_12forward_linkILm0EEEED2Ev
FN:636,_ZN3etl22intrusive_forward_listIN3can29IFilteredCANFrameSentListenerENS_12forward_linkILm0EEEED2Ev
FN:668,_ZN3etl22intrusive_forward_listIN3can29IFilteredCANFrameSentListenerENS_12forward_linkILm0EEEE5beginEv
FN:668,_ZN3etl22intrusive_forward_listIN5timer7TimeoutENS_12forward_linkILm0EEEE5beginEv
FN:668,_ZN3etl22intrusive_forward_listIN4util7command8ICommandENS_12forward_linkILm0EEEE5beginEv
FN:668,_ZN3etl22intrusive_forward_listIN9lifecycle18ILifecycleListenerENS_12forward_linkILm0EEEE5beginEv
FN:668,_ZN3etl22intrusive_forward_listIN7runtime24FunctionExecutionMonitorIN12_GLOBAL__N_118RuntimeMonitorMockEE5PointENS_12forward_linkILm0EEEE5beginEv
FN:676,_ZNK3etl22intrusive_forward_listIN4util7command8ICommandENS_12forward_linkILm0EEEE5beginEv
FN:684,_ZN3etl22intrusive_forward_listIN5timer7TimeoutENS_12forward_linkILm0EEEE12before_beginEv
FN:684,_ZN3etl22intrusive_forward_listIN7runtime24FunctionExecutionMonitorIN12_GLOBAL__N_118RuntimeMonitorMockEE5PointENS_12forward_linkILm0EEEE12before_beginEv
FN:708,_ZN3etl22intrusive_forward_listIN9lifecycle18ILifecycleListenerENS_12forward_linkILm0EEEE3endEv
FN:708,_ZN3etl22intrusive_forward_listIN3can29IFilteredCANFrameSentListenerENS_12forward_linkILm0EEEE3endEv
FN:708,_ZN3etl22intrusive_forward_listIN5timer7TimeoutENS_12forward_linkILm0EEEE3endEv
FN:708,_ZN3etl22intrusive_forward_listIN4util7command8ICommandENS_12forward_linkILm0EEEE3endEv
FN:708,_ZN3etl22intrusive_forward_listIN7runtime24FunctionExecutionMonitorIN12_GLOBAL__N_118RuntimeMonitorMockEE5PointENS_12forward_linkILm0EEEE3endEv
FN:716,_ZNK3etl22intrusive_forward_listIN4util7command8ICommandENS_12forward_linkILm0EEEE3endEv
FN:732,_ZN3etl22intrusive_forward_listIN5timer7TimeoutENS_12forward_linkILm0EEEE5frontEv
FN:740,_ZNK3etl22intrusive_forward_listIN5timer7TimeoutENS_12forward_linkILm0EEEE5frontEv
FN:748,_ZN3etl22intrusive_forward_listIN7runtime24FunctionExecutionMonitorIN12_GLOBAL__N_118RuntimeMonitorMockEE5PointENS_12forward_linkILm0EEEE12insert_afterENS9_8iteratorERS6_
FN:748,_ZN3etl22intrusive_forward_listIN5timer7TimeoutENS_12forward_linkILm0EEEE12insert_afterENS5_8iteratorERS2_
FN:748,_ZN3etl22intrusive_forward_listIN4util7command8ICommandENS_12forward_linkILm0EEEE12insert_afterENS6_8iteratorERS3_
FN:823,_ZN3etl22intrusive_forward_listIN9lifecycle18ILifecycleListenerENS_12forward_linkILm0EEEE5eraseERKS2_
FN:823,_ZN3etl22intrusive_forward_listIN5timer7TimeoutENS_12forward_linkILm0EEEE5eraseERKS2_
FN:823,_ZN3etl22intrusive_forward_listIN3can29IFilteredCANFrameSentListenerENS_12forward_linkILm0EEEE5eraseERKS2_
FN:823,_ZN3etl22intrusive_forward_listIN7runtime24FunctionExecutionMonitorIN12_GLOBAL__N_118RuntimeMonitorMockEE5PointENS_12forward_linkILm0EEEE5eraseERKS6_
FNDA:8,_ZN3etl22intrusive_forward_listIN3can29IFilteredCANFrameSentListenerENS_12forward_linkILm0EEEE8iteratorC2EPS4_
FNDA:15,_ZN3etlneERKNS_22intrusive_forward_listIN9lifecycle18ILifecycleListenerENS_12forward_linkILm0EEEE8iteratorES8_
FNDA:5,_ZN3etl22intrusive_forward_listIN3can29IFilteredCANFrameSentListenerENS_12forward_linkILm0EEEE8iteratorppEv
FNDA:21,_ZN3etl22intrusive_forward_listIN4util7command8ICommandENS_12forward_linkILm0EEEED2Ev
FNDA:24,_ZN3etl22intrusive_forward_listIN7runtime24FunctionExecutionMonitorIN12_GLOBAL__N_118RuntimeMonitorMockEE5PointENS_12forward_linkILm0EEEE3endEv
FNDA:331,_ZN3etl27intrusive_forward_list_baseINS_12forward_linkILm0EEEE5clearEv
FNDA:154,_ZN3etl27intrusive_forward_list_baseINS_12forward_linkILm0EEEE17insert_link_afterERS2_S4_
FNDA:48,_ZN3etl22intrusive_forward_listIN3can29IFilteredCANFrameSentListenerENS_12forward_linkILm0EEEED2Ev
FNDA:7,_ZN3etl22intrusive_forward_listIN7runtime24FunctionExecutionMonitorIN12_GLOBAL__N_118RuntimeMonitorMockEE5PointENS_12forward_linkILm0EEEE5eraseERKS6_
FNDA:42,_ZN3etl22intrusive_forward_listIN4util7command8ICommandENS_12forward_linkILm0EEEE14const_iteratorC2EPKS5_
FNDA:29,_ZNK3etl22intrusive_forward_listIN5timer7TimeoutENS_12forward_linkILm0EEEE8iteratorptEv
FNDA:7,_ZN3etl22intrusive_forward_listIN7runtime24FunctionExecutionMonitorIN12_GLOBAL__N_118RuntimeMonitorMockEE5PointENS_12forward_linkILm0EEEE8iteratorC2ERKSA_
FNDA:4,_ZNK3etl22intrusive_forward_listIN7runtime24FunctionExecutionMonitorIN12_GLOBAL__N_118RuntimeMonitorMockEE5PointENS_12forward_linkILm0EEEE8iteratordeEv
FNDA:5,_ZN3etl22intrusive_forward_listIN3can29IFilteredCANFrameSentListenerENS_12forward_linkILm0EEEE5eraseERKS2_
FNDA:15,_ZN3etl22intrusive_forward_listIN7runtime24FunctionExecutionMonitorIN12_GLOBAL__N_118RuntimeMonitorMockEE5PointENS_12forward_linkILm0EEEE5beginEv
FNDA:137,_ZN3etl22intrusive_forward_listIN4util7command8ICommandENS_12forward_linkILm0EEEE8iteratorC2EPS5_
FNDA:7,_ZN3etl22intrusive_forward_listIN7runtime24FunctionExecutionMonitorIN12_GLOBAL__N_118RuntimeMonitorMockEE5PointENS_12forward_linkILm0EEEE8iteratoraSERKSA_
FNDA:7,_ZN3etl22intrusive_forward_listIN7runtime24FunctionExecutionMonitorIN12_GLOBAL__N_118RuntimeMonitorMockEE5PointENS_12forward_linkILm0EEEE12before_beginEv
FNDA:75,_ZN3etl22intrusive_forward_listIN4util7command8ICommandENS_12forward_linkILm0EEEE5beginEv
FNDA:330,_ZN3etl27intrusive_forward_list_baseINS_12forward_linkILm0EEEED2Ev
FNDA:9,_ZN3etl22intrusive_forward_listIN9lifecycle18ILifecycleListenerENS_12forward_linkILm0EEEE5beginEv
FNDA:7,_ZN3etl22intrusive_forward_listIN4util7command8ICommandENS_12forward_linkILm0EEEE12insert_afterENS6_8iteratorERS3_
FNDA:27,_ZN3etlneERKNS_22intrusive_forward_listIN7runtime24FunctionExecutionMonitorIN12_GLOBAL__N_118RuntimeMonitorMockEE5PointENS_12forward_linkILm0EEEE8iteratorESC_
FNDA:247,_ZN3etl22intrusive_forward_listIN5timer7TimeoutENS_12forward_linkILm0EEEE5frontEv
FNDA:33,_ZN3etl22intrusive_forward_listIN7runtime24FunctionExecutionMonitorIN12_GLOBAL__N_118RuntimeMonitorMockEE5PointENS_12forward_linkILm0EEEEC2Ev
FNDA:578,_ZN3etl27intrusive_forward_list_baseINS_12forward_linkILm0EEEE8get_headEv
FNDA:22,_ZN3etl22intrusive_forward_listIN5timer7TimeoutENS_12forward_linkILm0EEEE8iteratoraSERKS6_
FNDA:23,_ZNK3etl22intrusive_forward_listIN4util7command8ICommandENS_12forward_linkILm0EEEE8iteratordeEv
FNDA:21,_ZN3etl22intrusive_forward_listIN4util7command8ICommandENS_12forward_linkILm0EEEEC2Ev
FNDA:248,_ZNK3etl27intrusive_forward_list_baseINS_12forward_linkILm0EEEE8get_headEv
FNDA:114,_ZN3etl22intrusive_forward_listIN5timer7TimeoutENS_12forward_linkILm0EEEE8iteratorC2ERKS6_
FNDA:221,_ZN3etl22intrusive_forward_listIN5timer7TimeoutENS_12forward_linkILm0EEEED2Ev
FNDA:398,_ZNK3etl27intrusive_forward_list_baseINS_12forward_linkILm0EEEE5emptyEv
FNDA:7,_ZN3etl22intrusive_forward_listIN7runtime24FunctionExecutionMonitorIN12_GLOBAL__N_118RuntimeMonitorMockEE5PointENS_12forward_linkILm0EEEE12insert_afterENS9_8iteratorERS6_
FNDA:114,_ZN3etl22intrusive_forward_listIN5timer7TimeoutENS_12forward_linkILm0EEEE12insert_afterENS5_8iteratorERS2_
FNDA:7,_ZN3etl22intrusive_forward_listIN9lifecycle18ILifecycleListenerENS_12forward_linkILm0EEEED2Ev
FNDA:63,_ZN3etlneERKNS_22intrusive_forward_listIN4util7command8ICommandENS_12forward_linkILm0EEEE8iteratorES9_
FNDA:9,_ZN3etl22intrusive_forward_listIN9lifecycle18ILifecycleListenerENS_12forward_linkILm0EEEE8iteratoraSERKS6_
FNDA:15,_ZN3etleqERKNS_22intrusive_forward_listIN9lifecycle18ILifecycleListenerENS_12forward_linkILm0EEEE8iteratorES8_
FNDA:228,_ZN3etl22intrusive_forward_listIN5timer7TimeoutENS_12forward_linkILm0EEEE5beginEv
FNDA:7,_ZN3etl22intrusive_forward_listIN4util7command8ICommandENS_12forward_linkILm0EEEE8iteratorC2ERKS7_
FNDA:221,_ZN3etl22intrusive_forward_listIN5timer7TimeoutENS_12forward_linkILm0EEEEC2Ev
FNDA:250,_ZN3etleqERKNS_22intrusive_forward_listIN5timer7TimeoutENS_12forward_linkILm0EEEE8iteratorES8_
FNDA:33,_ZN3etl22intrusive_forward_listIN7runtime24FunctionExecutionMonitorIN12_GLOBAL__N_118RuntimeMonitorMockEE5PointENS_12forward_linkILm0EEEED2Ev
FNDA:0,_ZN3etl32intrusive_forward_list_exceptionC2EPKcS2_i
FNDA:58,_ZN3etleqERKNS_22intrusive_forward_listIN4util7command8ICommandENS_12forward_linkILm0EEEE14const_iteratorES9_
FNDA:21,_ZNK3etl22intrusive_forward_listIN4util7command8ICommandENS_12forward_linkILm0EEEE3endEv
FNDA:48,_ZN3etl22intrusive_forward_listIN3can29IFilteredCANFrameSentListenerENS_12forward_linkILm0EEEEC2Ev
FNDA:30,_ZNK3etl27intrusive_forward_list_baseINS_12forward_linkILm0EEEE15is_link_in_listEPKS2_
FNDA:114,_ZN3etl22intrusive_forward_listIN5timer7TimeoutENS_12forward_linkILm0EEEE12before_beginEv
FNDA:37,_ZN3etl22intrusive_forward_listIN4util7command8ICommandENS_12forward_linkILm0EEEE14const_iteratorppEv
FNDA:17,_ZN3etl22intrusive_forward_listIN5timer7TimeoutENS_12forward_linkILm0EEEE5eraseERKS2_
FNDA:4,_ZN3etl22intrusive_forward_listIN3can29IFilteredCANFrameSentListenerENS_12forward_linkILm0EEEE5beginEv
FNDA:11,_ZNK3etl22intrusive_forward_listIN7runtime24FunctionExecutionMonitorIN12_GLOBAL__N_118RuntimeMonitorMockEE5PointENS_12forward_linkILm0EEEE8iteratorptEv
FNDA:30,_ZN3etl27intrusive_forward_list_baseINS_12forward_linkILm0EEEE11remove_linkEPS2_
FNDA:92,_ZN3etleqERKNS_22intrusive_forward_listIN4util7command8ICommandENS_12forward_linkILm0EEEE8iteratorES9_
FNDA:37,_ZNK3etl22intrusive_forward_listIN4util7command8ICommandENS_12forward_linkILm0EEEE14const_iteratordeEv
FNDA:55,_ZN3etl22intrusive_forward_listIN4util7command8ICommandENS_12forward_linkILm0EEEE3endEv
FNDA:6,_ZNK3etl22intrusive_forward_listIN9lifecycle18ILifecycleListenerENS_12forward_linkILm0EEEE8iteratordeEv
FNDA:136,_ZN3etl22intrusive_forward_listIN5timer7TimeoutENS_12forward_linkILm0EEEE3endEv
FNDA:7,_ZN3etl22intrusive_forward_listIN9lifecycle18ILifecycleListenerENS_12forward_linkILm0EEEEC2Ev
FNDA:330,_ZN3etl27intrusive_forward_list_baseINS_12forward_linkILm0EEEEC2Ev
FNDA:27,_ZN3etleqERKNS_22intrusive_forward_listIN7runtime24FunctionExecutionMonitorIN12_GLOBAL__N_118RuntimeMonitorMockEE5PointENS_12forward_linkILm0EEEE8iteratorESC_
FNDA:24,_ZN3etl22intrusive_forward_listIN9lifecycle18ILifecycleListenerENS_12forward_linkILm0EEEE8iteratorC2EPS4_
FNDA:9,_ZN3etl22intrusive_forward_listIN9lifecycle18ILifecycleListenerENS_12forward_linkILm0EEEE8iteratorC2Ev
FNDA:29,_ZN3etl22intrusive_forward_listIN4util7command8ICommandENS_12forward_linkILm0EEEE8iteratorC2Ev
FNDA:9,_ZN3etl22intrusive_forward_listIN4util7command8ICommandENS_12forward_linkILm0EEEE8iteratoraSERKS7_
FNDA:21,_ZNK3etl22intrusive_forward_listIN4util7command8ICommandENS_12forward_linkILm0EEEE5beginEv
FNDA:9,_ZN3etlneERKNS_22intrusive_forward_listIN3can29IFilteredCANFrameSentListenerENS_12forward_linkILm0EEEE8iteratorES8_
FNDA:14,_ZNK3etl22intrusive_forward_listIN4util7command8ICommandENS_12forward_linkILm0EEEE8iteratorptEv
FNDA:28,_ZN3etl27intrusive_forward_list_baseINS_12forward_linkILm0EEEE10push_frontERS2_
FNDA:227,_ZNK3etl22intrusive_forward_listIN5timer7TimeoutENS_12forward_linkILm0EEEE5frontEv
FNDA:4,_ZN3etl22intrusive_forward_listIN3can29IFilteredCANFrameSentListenerENS_12forward_linkILm0EEEE3endEv
FNDA:136,_ZN3etlneERKNS_22intrusive_forward_listIN5timer7TimeoutENS_12forward_linkILm0EEEE8iteratorES8_
FNDA:5,_ZNK3etl22intrusive_forward_listIN3can29IFilteredCANFrameSentListenerENS_12forward_linkILm0EEEE8iteratordeEv
FNDA:78,_ZN3etl27intrusive_forward_list_baseINS_12forward_linkILm0EEEE9pop_frontEv
FNDA:58,_ZN3etlneERKNS_22intrusive_forward_listIN4util7command8ICommandENS_12forward_linkILm0EEEE14const_iteratorES9_
FNDA:22,_ZN3etl22intrusive_forward_listIN5timer7TimeoutENS_12forward_linkILm0EEEE8iteratorppEv
FNDA:0,_ZN3etl46intrusive_forward_list_value_is_already_linkedC2EPKci
FNDA:15,_ZN3etl22intrusive_forward_listIN9lifecycle18ILifecycleListenerENS_12forward_linkILm0EEEE3endEv
FNDA:9,_ZN3etleqERKNS_22intrusive_forward_listIN3can29IFilteredCANFrameSentListenerENS_12forward_linkILm0EEEE8iteratorES8_
FNDA:6,_ZN3etl22intrusive_forward_listIN9lifecycle18ILifecycleListenerENS_12forward_linkILm0EEEE8iteratorppEv
FNDA:53,_ZN3etl22intrusive_forward_listIN7runtime24FunctionExecutionMonitorIN12_GLOBAL__N_118RuntimeMonitorMockEE5PointENS_12forward_linkILm0EEEE8iteratorC2EPS8_
FNDA:17,_ZN3etl22intrusive_forward_listIN4util7command8ICommandENS_12forward_linkILm0EEEE8iteratorppEv
FNDA:108,_ZN3etl27intrusive_forward_list_baseINS_12forward_linkILm0EEEE21disconnect_link_afterERS2_
FNDA:661,_ZN3etl27intrusive_forward_list_baseINS_12forward_linkILm0EEEE10initialiseEv
FNDA:592,_ZN3etl22intrusive_forward_listIN5timer7TimeoutENS_12forward_linkILm0EEEE8iteratorC2EPS4_
FNDA:7,_ZN3etl22intrusive_forward_listIN7runtime24FunctionExecutionMonitorIN12_GLOBAL__N_118RuntimeMonitorMockEE5PointENS_12forward_linkILm0EEEE8iteratorC2Ev
FNDA:14,_ZN3etl22intrusive_forward_listIN7runtime24FunctionExecutionMonitorIN12_GLOBAL__N_118RuntimeMonitorMockEE5PointENS_12forward_linkILm0EEEE8iteratorppEv
FNDA:1,_ZN3etl22intrusive_forward_listIN9lifecycle18ILifecycleListenerENS_12forward_linkILm0EEEE5eraseERKS2_
FNF:90
FNH:88
DA:58,0
DA:59,0
DA:61,0
DA:128,0
DA:129,0
DA:131,0
DA:149,331
DA:152,331
DA:154,377
DA:156,46
DA:157,46
DA:158,46
DA:161,331
DA:162,331
DA:197,28
DA:199,28
DA:201,28
DA:202,28
DA:207,78
DA:212,78
DA:213,78
DA:243,398
DA:245,398
DA:284,330
DA:285,330
DA:286,330
DA:287,330
DA:292,330
DA:294,330
DA:295,330
DA:308,154
DA:311,154
DA:312,154
DA:313,154
DA:318,108
DA:320,108
DA:322,108
DA:324,108
DA:325,108
DA:327,108
DA:329,108
DA:331,108
DA:336,578
DA:338,578
DA:344,248
DA:346,248
DA:352,661
DA:354,661
DA:355,661
DA:356,661
DA:362,30
DA:364,30
DA:365,30
DA:367,35
DA:369,35
DA:371,30
DA:374,5
DA:375,5
DA:378,0
DA:386,30
DA:388,30
DA:390,30
DA:392,30
DA:394,30
DA:396,30
DA:398,30
DA:400,2
DA:404,30
DA:476,45
DA:477,45
DA:479,45
DA:481,128
DA:482,128
DA:484,128
DA:486,64
DA:489,64
DA:490,64
DA:501,47
DA:503,47
DA:504,47
DA:507,38
DA:510,38
DA:519,54
DA:521,54
DA:524,393
DA:526,393
DA:529,250
DA:531,250
DA:536,814
DA:537,814
DA:539,814
DA:568,37
DA:571,37
DA:572,37
DA:589,37
DA:591,37
DA:604,58
DA:606,58
DA:609,58
DA:611,58
DA:616,42
DA:617,42
DA:619,42
DA:629,330
DA:630,330
DA:631,330
DA:636,330
DA:638,330
DA:668,331
DA:670,331
DA:676,21
DA:678,21
DA:684,121
DA:686,121
DA:708,234
DA:710,234
DA:716,21
DA:718,21
DA:732,247
DA:734,247
DA:740,227
DA:742,227
DA:748,128
DA:750,128
DA:752,126
DA:753,126
DA:823,30
DA:825,30
LF:128
LH:121
end_of_record
TN:
SF:/home/jenkins/libs/3rdparty/etl/include/etl/intrusive_links.h
FN:95,_ZN3etl12forward_linkILm0EEC2Ev
FN:121,_ZN3etl12forward_linkILm0EE5clearEv
FN:128,_ZNK3etl12forward_linkILm0EE9is_linkedEv
FN:225,_ZN3etl11link_spliceINS_12forward_linkILm0EEEEENS_9enable_ifIXsrNS_15is_forward_linkIT_EE5valueEvE4typeERS5_S9_
FN:308,_ZN3etl12unlink_afterINS_12forward_linkILm0EEEEENS_9enable_ifIXsrNS_15is_forward_linkIT_EE5valueEPS5_E4typeERS5_
FN:525,_ZN3etl18bidirectional_linkILm0EEC2Ev
FN:555,_ZN3etl18bidirectional_linkILm0EE5clearEv
FN:563,_ZNK3etl18bidirectional_linkILm0EE9is_linkedEv
FN:628,_ZN3etl18bidirectional_linkILm0EE6unlinkEv
FN:668,_ZN3etl4linkINS_18bidirectional_linkILm0EEEEENS_9enable_ifIXsrNS_7is_sameIT_NS1_IXsrS5_2IDEEEEE5valueEvE4typeERS5_SA_
FN:678,_ZN3etl4linkINS_18bidirectional_linkILm0EEEEENS_9enable_ifIXsrNS_7is_sameIT_NS1_IXsrS5_2IDEEEEE5valueEvE4typeEPS5_SA_
FN:709,_ZN3etl4linkINS_18bidirectional_linkILm0EEEEENS_9enable_ifIXsrNS_7is_sameIT_NS1_IXsrS5_2IDEEEEE5valueEvE4typeEPS5_RS5_
FN:723,_ZN3etl11link_spliceINS_18bidirectional_linkILm0EEEEENS_9enable_ifIXsrNS_7is_sameIT_NS1_IXsrS5_2IDEEEEE5valueEvE4typeERS5_SA_
FN:789,_ZN3etl11link_spliceINS_18bidirectional_linkILm0EEEEENS_9enable_ifIXsrNS_7is_sameIT_NS1_IXsrS5_2IDEEEEE5valueEvE4typeEPS5_RS5_
FN:860,_ZN3etl6unlinkINS_18bidirectional_linkILm0EEEEENS_9enable_ifIXsrNS_7is_sameIT_NS1_IXsrS5_2IDEEEEE5valueEvE4typeERS5_
FNDA:461,_ZN3etl11link_spliceINS_18bidirectional_linkILm0EEEEENS_9enable_ifIXsrNS_7is_sameIT_NS1_IXsrS5_2IDEEEEE5valueEvE4typeEPS5_RS5_
FNDA:2,_ZN3etl11link_spliceINS_18bidirectional_linkILm0EEEEENS_9enable_ifIXsrNS_7is_sameIT_NS1_IXsrS5_2IDEEEEE5valueEvE4typeERS5_SA_
FNDA:1600,_ZN3etl4linkINS_18bidirectional_linkILm0EEEEENS_9enable_ifIXsrNS_7is_sameIT_NS1_IXsrS5_2IDEEEEE5valueEvE4typeERS5_SA_
FNDA:461,_ZN3etl4linkINS_18bidirectional_linkILm0EEEEENS_9enable_ifIXsrNS_7is_sameIT_NS1_IXsrS5_2IDEEEEE5valueEvE4typeEPS5_RS5_
FNDA:205,_ZN3etl18bidirectional_linkILm0EE6unlinkEv
FNDA:219,_ZNK3etl12forward_linkILm0EE9is_linkedEv
FNDA:965,_ZN3etl12forward_linkILm0EEC2Ev
FNDA:154,_ZN3etl11link_spliceINS_12forward_linkILm0EEEEENS_9enable_ifIXsrNS_15is_forward_linkIT_EE5valueEvE4typeERS5_S9_
FNDA:1454,_ZN3etl18bidirectional_linkILm0EEC2Ev
FNDA:205,_ZN3etl6unlinkINS_18bidirectional_linkILm0EEEEENS_9enable_ifIXsrNS_7is_sameIT_NS1_IXsrS5_2IDEEEEE5valueEvE4typeERS5_
FNDA:427,_ZNK3etl18bidirectional_linkILm0EE9is_linkedEv
FNDA:461,_ZN3etl4linkINS_18bidirectional_linkILm0EEEEENS_9enable_ifIXsrNS_7is_sameIT_NS1_IXsrS5_2IDEEEEE5valueEvE4typeEPS5_SA_
FNDA:262,_ZN3etl12forward_linkILm0EE5clearEv
FNDA:108,_ZN3etl12unlink_afterINS_12forward_linkILm0EEEEENS_9enable_ifIXsrNS_15is_forward_linkIT_EE5valueEPS5_E4typeERS5_
FNDA:463,_ZN3etl18bidirectional_linkILm0EE5clearEv
FNF:15
FNH:15
DA:95,965
DA:96,965
DA:98,965
DA:121,262
DA:123,262
DA:124,262
DA:128,219
DA:130,219
DA:225,154
DA:227,154
DA:228,154
DA:229,154
DA:308,108
DA:310,108
DA:312,108
DA:313,108
DA:314,108
DA:315,108
DA:318,0
DA:525,1454
DA:526,1454
DA:527,1454
DA:529,1454
DA:555,463
DA:557,463
DA:558,463
DA:559,463
DA:563,427
DA:565,427
DA:628,205
DA:631,205
DA:633,205
DA:637,205
DA:639,205
DA:642,205
DA:643,205
DA:668,1600
DA:670,1600
DA:671,1600
DA:672,1600
DA:678,461
DA:680,461
DA:682,461
DA:685,461
DA:687,461
DA:689,461
DA:709,461
DA:711,461
DA:713,461
DA:716,461
DA:717,461
DA:723,2
DA:725,2
DA:726,2
DA:728,2
DA:730,2
DA:733,2
DA:734,2
DA:789,461
DA:791,461
DA:793,461
DA:796,461
DA:798,461
DA:800,461
DA:802,461
DA:805,461
DA:807,461
DA:860,205
DA:862,205
DA:863,205
LF:70
LH:69
end_of_record
TN:
SF:/home/jenkins/libs/3rdparty/etl/include/etl/intrusive_list.h
FN:59,_ZN3etl24intrusive_list_exceptionC2EPKcS2_i
FN:115,_ZN3etl38intrusive_list_value_is_already_linkedC2EPKci
FN:163,_ZN3etl19intrusive_list_baseINS_18bidirectional_linkILm0EEEE10push_frontERS2_
FN:173,_ZN3etl19intrusive_list_baseINS_18bidirectional_linkILm0EEEE9pop_frontEv
FN:184,_ZN3etl19intrusive_list_baseINS_18bidirectional_linkILm0EEEE9push_backERS2_
FN:205,_ZN3etl19intrusive_list_baseINS_18bidirectional_linkILm0EEEE5clearEv
FN:245,_ZNK3etl19intrusive_list_baseINS_18bidirectional_linkILm0EEEE5emptyEv
FN:253,_ZNK3etl19intrusive_list_baseINS_18bidirectional_linkILm0EEEE4sizeEv
FN:262,_ZNK3etl19intrusive_list_baseINS_18bidirectional_linkILm0EEEE13contains_nodeERKS2_
FN:286,_ZN3etl19intrusive_list_baseINS_18bidirectional_linkILm0EEEED2Ev
FN:293,_ZNK3etl19intrusive_list_baseINS_18bidirectional_linkILm0EEEE15is_trivial_listEv
FN:301,_ZN3etl19intrusive_list_baseINS_18bidirectional_linkILm0EEEE11insert_linkERS2_S4_
FN:311,_ZN3etl19intrusive_list_baseINS_18bidirectional_linkILm0EEEE11insert_linkEPS2_RS2_
FN:341,_ZN3etl19intrusive_list_baseINS_18bidirectional_linkILm0EEEE15disconnect_linkERS2_
FN:350,_ZN3etl19intrusive_list_baseINS_18bidirectional_linkILm0EEEE15disconnect_linkEPS2_
FN:359,_ZN3etl19intrusive_list_baseINS_18bidirectional_linkILm0EEEE8get_headEv
FN:391,_ZN3etl19intrusive_list_baseINS_18bidirectional_linkILm0EEEE10initialiseEv
FN:400,_ZNK3etl19intrusive_list_baseINS_18bidirectional_linkILm0EEEE15is_link_in_listEPKS2_
FN:421,_ZN3etl19intrusive_list_baseINS_18bidirectional_linkILm0EEEE11remove_linkEPS2_
FN:501,_ZN3etl14intrusive_listIN5docan23DoCanMessageTransmitterINS1_18DoCanDataLinkLayerIjthLj4294967295EtEEEENS_18bidirectional_linkILm0EEEE8iteratorC2Ev
FN:501,_ZN3etl14intrusive_listIN5docan20DoCanMessageReceiverINS1_18DoCanDataLinkLayerIjthLj0EtEEEENS_18bidirectional_linkILm0EEEE8iteratorC2Ev
FN:501,_ZN3etl14intrusive_listIN5docan23DoCanMessageTransmitterINS1_18DoCanDataLinkLayerIjthLj0EtEEEENS_18bidirectional_linkILm0EEEE8iteratorC2Ev
FN:501,_ZN3etl14intrusive_listIN5docan20DoCanMessageReceiverIN12_GLOBAL__N_113DataLinkLayerEEENS_18bidirectional_linkILm0EEEE8iteratorC2Ev
FN:501,_ZN3etl14intrusive_listIN5docan20DoCanMessageReceiverINS1_18DoCanDataLinkLayerIjthLj4294967295EtEEEENS_18bidirectional_linkILm0EEEE8iteratorC2Ev
FN:501,_ZN3etl14intrusive_listIN5docan23DoCanMessageTransmitterIN12_GLOBAL__N_113DataLinkLayerEEENS_18bidirectional_linkILm0EEEE8iteratorC2Ev
FN:506,_ZN3etl14intrusive_listIN5docan20DoCanMessageReceiverIN12_GLOBAL__N_113DataLinkLayerEEENS_18bidirectional_linkILm0EEEE8iteratorC2ERKS9_
FN:506,_ZN3etl14intrusive_listIN5docan23DoCanMessageTransmitterINS1_18DoCanDataLinkLayerIjthLj4294967295EtEEEENS_18bidirectional_linkILm0EEEE8iteratorC2ERKS9_
FN:506,_ZN3etl14intrusive_listIN5docan20DoCanMessageReceiverINS1_18DoCanDataLinkLayerIjthLj0EtEEEENS_18bidirectional_linkILm0EEEE8iteratorC2ERKS9_
FN:506,_ZN3etl14intrusive_listIN5docan23DoCanMessageTransmitterIN12_GLOBAL__N_113DataLinkLayerEEENS_18bidirectional_linkILm0EEEE8iteratorC2ERKS9_
FN:506,_ZN3etl14intrusive_listIN5docan20DoCanMessageReceiverINS1_18DoCanDataLinkLayerIjthLj4294967295EtEEEENS_18bidirectional_linkILm0EEEE8iteratorC2ERKS9_
FN:506,_ZN3etl14intrusive_listIN5docan23DoCanMessageTransmitterINS1_18DoCanDataLinkLayerIjthLj0EtEEEENS_18bidirectional_linkILm0EEEE8iteratorC2ERKS9_
FN:506,_ZN3etl14intrusive_listIN5docan23DoCanMessageTransmitterIN12_GLOBAL__N_128SmallFrameIndexDataLinkLayerEEENS_18bidirectional_linkILm0EEEE8iteratorC2ERKS9_
FN:511,_ZN3etl14intrusive_listIN5docan20DoCanMessageReceiverINS1_18DoCanDataLinkLayerIjthLj0EtEEEENS_18bidirectional_linkILm0EEEE8iteratorppEv
FN:511,_ZN3etl14intrusive_listIN3uds29ManagedOutgoingDiagConnectionENS_18bidirectional_linkILm0EEEE8iteratorppEv
FN:511,_ZN3etl14intrusive_listIN5docan23DoCanMessageTransmitterIN12_GLOBAL__N_128SmallFrameIndexDataLinkLayerEEENS_18bidirectional_linkILm0EEEE8iteratorppEv
FN:511,_ZN3etl14intrusive_listIN5docan20DoCanMessageReceiverIN12_GLOBAL__N_113DataLinkLayerEEENS_18bidirectional_linkILm0EEEE8iteratorppEv
FN:511,_ZN3etl14intrusive_listIN5docan23DoCanMessageTransmitterIN12_GLOBAL__N_113DataLinkLayerEEENS_18bidirectional_linkILm0EEEE8iteratorppEv
FN:511,_ZN3etl14intrusive_listIN5docan23DoCanMessageTransmitterINS1_18DoCanDataLinkLayerIjthLj0EtEEEENS_18bidirectional_linkILm0EEEE8iteratorppEv
FN:511,_ZN3etl14intrusive_listIN3can17ICANFrameListenerENS_18bidirectional_linkILm0EEEE8iteratorppEv
FN:511,_ZN3etl14intrusive_listIN3uds27ICommunicationStateListenerENS_18bidirectional_linkILm0EEEE8iteratorppEv
FN:511,_ZN3etl14intrusive_listIN5docan23DoCanMessageTransmitterINS1_18DoCanDataLinkLayerIjthLj4294967295EtEEEENS_18bidirectional_linkILm0EEEE8iteratorppEv
FN:511,_ZN3etl14intrusive_listIN5docan20DoCanMessageReceiverINS1_18DoCanDataLinkLayerIjthLj4294967295EtEEEENS_18bidirectional_linkILm0EEEE8iteratorppEv
FN:511,_ZN3etl14intrusive_listIN3uds30ICommunicationSubStateListenerENS_18bidirectional_linkILm0EEEE8iteratorppEv
FN:511,_ZN3etl14intrusive_listIN6logger15ILoggerListenerENS_18bidirectional_linkILm0EEEE8iteratorppEv
FN:511,_ZN3etl14intrusive_listIN3uds27IDiagSessionChangedListenerENS_18bidirectional_linkILm0EEEE8iteratorppEv
FN:518,_ZN3etl14intrusive_listIN5docan23DoCanMessageTransmitterINS1_18DoCanDataLinkLayerIjthLj4294967295EtEEEENS_18bidirectional_linkILm0EEEE8iteratorppEi
FN:518,_ZN3etl14intrusive_listIN5docan23DoCanMessageTransmitterIN12_GLOBAL__N_113DataLinkLayerEEENS_18bidirectional_linkILm0EEEE8iteratorppEi
FN:518,_ZN3etl14intrusive_listIN5docan20DoCanMessageReceiverINS1_18DoCanDataLinkLayerIjthLj4294967295EtEEEENS_18bidirectional_linkILm0EEEE8iteratorppEi
FN:518,_ZN3etl14intrusive_listIN5docan23DoCanMessageTransmitterINS1_18DoCanDataLinkLayerIjthLj0EtEEEENS_18bidirectional_linkILm0EEEE8iteratorppEi
FN:518,_ZN3etl14intrusive_listIN5docan20DoCanMessageReceiverINS1_18DoCanDataLinkLayerIjthLj0EtEEEENS_18bidirectional_linkILm0EEEE8iteratorppEi
FN:518,_ZN3etl14intrusive_listIN5docan20DoCanMessageReceiverIN12_GLOBAL__N_113DataLinkLayerEEENS_18bidirectional_linkILm0EEEE8iteratorppEi
FN:541,_ZN3etl14intrusive_listIN5docan20DoCanMessageReceiverINS1_18DoCanDataLinkLayerIjthLj4294967295EtEEEENS_18bidirectional_linkILm0EEEE8iteratoraSERKS9_
FN:541,_ZN3etl14intrusive_listIN5docan23DoCanMessageTransmitterIN12_GLOBAL__N_113DataLinkLayerEEENS_18bidirectional_linkILm0EEEE8iteratoraSERKS9_
FN:541,_ZN3etl14intrusive_listIN5docan23DoCanMessageTransmitterIN12_GLOBAL__N_128SmallFrameIndexDataLinkLayerEEENS_18bidirectional_linkILm0EEEE8iteratoraSERKS9_
FN:541,_ZN3etl14intrusive_listIN5docan20DoCanMessageReceiverINS1_18DoCanDataLinkLayerIjthLj0EtEEEENS_18bidirectional_linkILm0EEEE8iteratoraSERKS9_
FN:541,_ZN3etl14intrusive_listIN5docan20DoCanMessageReceiverIN12_GLOBAL__N_113DataLinkLayerEEENS_18bidirectional_linkILm0EEEE8iteratoraSERKS9_
FN:541,_ZN3etl14intrusive_listIN5docan23DoCanMessageTransmitterINS1_18DoCanDataLinkLayerIjthLj4294967295EtEEEENS_18bidirectional_linkILm0EEEE8iteratoraSERKS9_
FN:541,_ZN3etl14intrusive_listIN5docan23DoCanMessageTransmitterINS1_18DoCanDataLinkLayerIjthLj0EtEEEENS_18bidirectional_linkILm0EEEE8iteratoraSERKS9_
FN:547,_ZNK3etl14intrusive_listIN5docan23DoCanMessageTransmitterINS1_18DoCanDataLinkLayerIjthLj4294967295EtEEEENS_18bidirectional_linkILm0EEEE8iteratordeEv
FN:547,_ZNK3etl14intrusive_listIN5docan20DoCanMessageReceiverINS1_18DoCanDataLinkLayerIjthLj0EtEEEENS_18bidirectional_linkILm0EEEE8iteratordeEv
FN:547,_ZNK3etl14intrusive_listIN5docan20DoCanMessageReceiverIN12_GLOBAL__N_113DataLinkLayerEEENS_18bidirectional_linkILm0EEEE8iteratordeEv
FN:547,_ZNK3etl14intrusive_listIN6logger15ILoggerListenerENS_18bidirectional_linkILm0EEEE8iteratordeEv
FN:547,_ZNK3etl14intrusive_listIN5docan23DoCanMessageTransmitterIN12_GLOBAL__N_113DataLinkLayerEEENS_18bidirectional_linkILm0EEEE8iteratordeEv
FN:547,_ZNK3etl14intrusive_listIN3can17ICANFrameListenerENS_18bidirectional_linkILm0EEEE8iteratordeEv
FN:547,_ZNK3etl14intrusive_listIN5docan23DoCanMessageTransmitterIN12_GLOBAL__N_128SmallFrameIndexDataLinkLayerEEENS_18bidirectional_linkILm0EEEE8iteratordeEv
FN:547,_ZNK3etl14intrusive_listIN5docan20DoCanMessageReceiverINS1_18DoCanDataLinkLayerIjthLj4294967295EtEEEENS_18bidirectional_linkILm0EEEE8iteratordeEv
FN:547,_ZNK3etl14intrusive_listIN5docan23DoCanMessageTransmitterINS1_18DoCanDataLinkLayerIjthLj0EtEEEENS_18bidirectional_linkILm0EEEE8iteratordeEv
FN:559,_ZNK3etl14intrusive_listIN5docan20DoCanMessageReceiverINS1_18DoCanDataLinkLayerIjthLj0EtEEEENS_18bidirectional_linkILm0EEEE8iteratorptEv
FN:559,_ZNK3etl14intrusive_listIN5docan23DoCanMessageTransmitterIN12_GLOBAL__N_128SmallFrameIndexDataLinkLayerEEENS_18bidirectional_linkILm0EEEE8iteratorptEv
FN:559,_ZNK3etl14intrusive_listIN3uds27IDiagSessionChangedListenerENS_18bidirectional_linkILm0EEEE8iteratorptEv
FN:559,_ZNK3etl14intrusive_listIN5docan20DoCanMessageReceiverIN12_GLOBAL__N_113DataLinkLayerEEENS_18bidirectional_linkILm0EEEE8iteratorptEv
FN:559,_ZNK3etl14intrusive_listIN5docan23DoCanMessageTransmitterIN12_GLOBAL__N_113DataLinkLayerEEENS_18bidirectional_linkILm0EEEE8iteratorptEv
FN:559,_ZNK3etl14intrusive_listIN3uds30ICommunicationSubStateListenerENS_18bidirectional_linkILm0EEEE8iteratorptEv
FN:559,_ZNK3etl14intrusive_listIN3uds29ManagedOutgoingDiagConnectionENS_18bidirectional_linkILm0EEEE8iteratorptEv
FN:559,_ZNK3etl14intrusive_listIN3uds27ICommunicationStateListenerENS_18bidirectional_linkILm0EEEE8iteratorptEv
FN:559,_ZNK3etl14intrusive_listIN5docan20DoCanMessageReceiverINS1_18DoCanDataLinkLayerIjthLj4294967295EtEEEENS_18bidirectional_linkILm0EEEE8iteratorptEv
FN:559,_ZNK3etl14intrusive_listIN5docan23DoCanMessageTransmitterINS1_18DoCanDataLinkLayerIjthLj0EtEEEENS_18bidirectional_linkILm0EEEE8iteratorptEv
FN:559,_ZNK3etl14intrusive_listIN5docan23DoCanMessageTransmitterINS1_18DoCanDataLinkLayerIjthLj4294967295EtEEEENS_18bidirectional_linkILm0EEEE8iteratorptEv
FN:564,_ZN3etleqERKNS_14intrusive_listIN5docan20DoCanMessageReceiverINS1_18DoCanDataLinkLayerIjthLj0EtEEEENS_18bidirectional_linkILm0EEEE8iteratorESB_
FN:564,_ZN3etleqERKNS_14intrusive_listIN3uds27ICommunicationStateListenerENS_18bidirectional_linkILm0EEEE8iteratorES8_
FN:564,_ZN3etleqERKNS_14intrusive_listIN5docan23DoCanMessageTransmitterIN12_GLOBAL__N_113DataLinkLayerEEENS_18bidirectional_linkILm0EEEE8iteratorESB_
FN:564,_ZN3etleqERKNS_14intrusive_listIN3can17ICANFrameListenerENS_18bidirectional_linkILm0EEEE8iteratorES8_
FN:564,_ZN3etleqERKNS_14intrusive_listIN3uds27IDiagSessionChangedListenerENS_18bidirectional_linkILm0EEEE8iteratorES8_
FN:564,_ZN3etleqERKNS_14intrusive_listIN5docan23DoCanMessageTransmitterIN12_GLOBAL__N_128SmallFrameIndexDataLinkLayerEEENS_18bidirectional_linkILm0EEEE8iteratorESB_
FN:564,_ZN3etleqERKNS_14intrusive_listIN3uds29ManagedOutgoingDiagConnectionENS_18bidirectional_linkILm0EEEE8iteratorES8_
FN:564,_ZN3etleqERKNS_14intrusive_listIN5docan20DoCanMessageReceiverINS1_18DoCanDataLinkLayerIjthLj4294967295EtEEEENS_18bidirectional_linkILm0EEEE8iteratorESB_
FN:564,_ZN3etleqERKNS_14intrusive_listIN5docan20DoCanMessageReceiverIN12_GLOBAL__N_113DataLinkLayerEEENS_18bidirectional_linkILm0EEEE8iteratorESB_
FN:564,_ZN3etleqERKNS_14intrusive_listIN5docan23DoCanMessageTransmitterINS1_18DoCanDataLinkLayerIjthLj0EtEEEENS_18bidirectional_linkILm0EEEE8iteratorESB_
FN:564,_ZN3etleqERKNS_14intrusive_listIN6logger15ILoggerListenerENS_18bidirectional_linkILm0EEEE8iteratorES8_
FN:564,_ZN3etleqERKNS_14intrusive_listIN3uds30ICommunicationSubStateListenerENS_18bidirectional_linkILm0EEEE8iteratorES8_
FN:564,_ZN3etleqERKNS_14intrusive_listIN5docan23DoCanMessageTransmitterINS1_18DoCanDataLinkLayerIjthLj4294967295EtEEEENS_18bidirectional_linkILm0EEEE8iteratorESB_
FN:569,_ZN3etlneERKNS_14intrusive_listIN5docan20DoCanMessageReceiverINS1_18DoCanDataLinkLayerIjthLj0EtEEEENS_18bidirectional_linkILm0EEEE8iteratorESB_
FN:569,_ZN3etlneERKNS_14intrusive_listIN3can17ICANFrameListenerENS_18bidirectional_linkILm0EEEE8iteratorES8_
FN:569,_ZN3etlneERKNS_14intrusive_listIN3uds30ICommunicationSubStateListenerENS_18bidirectional_linkILm0EEEE8iteratorES8_
FN:569,_ZN3etlneERKNS_14intrusive_listIN6logger15ILoggerListenerENS_18bidirectional_linkILm0EEEE8iteratorES8_
FN:569,_ZN3etlneERKNS_14intrusive_listIN5docan23DoCanMessageTransmitterIN12_GLOBAL__N_128SmallFrameIndexDataLinkLayerEEENS_18bidirectional_linkILm0EEEE8iteratorESB_
FN:569,_ZN3etlneERKNS_14intrusive_listIN3uds27IDiagSessionChangedListenerENS_18bidirectional_linkILm0EEEE8iteratorES8_
FN:569,_ZN3etlneERKNS_14intrusive_listIN5docan23DoCanMessageTransmitterIN12_GLOBAL__N_113DataLinkLayerEEENS_18bidirectional_linkILm0EEEE8iteratorESB_
FN:569,_ZN3etlneERKNS_14intrusive_listIN3uds29ManagedOutgoingDiagConnectionENS_18bidirectional_linkILm0EEEE8iteratorES8_
FN:569,_ZN3etlneERKNS_14intrusive_listIN5docan23DoCanMessageTransmitterINS1_18DoCanDataLinkLayerIjthLj4294967295EtEEEENS_18bidirectional_linkILm0EEEE8iteratorESB_
FN:569,_ZN3etlneERKNS_14intrusive_listIN5docan20DoCanMessageReceiverINS1_18DoCanDataLinkLayerIjthLj4294967295EtEEEENS_18bidirectional_linkILm0EEEE8iteratorESB_
FN:569,_ZN3etlneERKNS_14intrusive_listIN5docan23DoCanMessageTransmitterINS1_18DoCanDataLinkLayerIjthLj0EtEEEENS_18bidirectional_linkILm0EEEE8iteratorESB_
FN:569,_ZN3etlneERKNS_14intrusive_listIN5docan20DoCanMessageReceiverIN12_GLOBAL__N_113DataLinkLayerEEENS_18bidirectional_linkILm0EEEE8iteratorESB_
FN:569,_ZN3etlneERKNS_14intrusive_listIN3uds27ICommunicationStateListenerENS_18bidirectional_linkILm0EEEE8iteratorES8_
FN:576,_ZN3etl14intrusive_listIN3uds27IDiagSessionChangedListenerENS_18bidirectional_linkILm0EEEE8iteratorC2EPS4_
FN:576,_ZN3etl14intrusive_listIN6logger15ILoggerListenerENS_18bidirectional_linkILm0EEEE8iteratorC2EPS4_
FN:576,_ZN3etl14intrusive_listIN3uds29ManagedOutgoingDiagConnectionENS_18bidirectional_linkILm0EEEE8iteratorC2EPS4_
FN:576,_ZN3etl14intrusive_listIN3can17ICANFrameListenerENS_18bidirectional_linkILm0EEEE8iteratorC2EPS4_
FN:576,_ZN3etl14intrusive_listIN3uds30ICommunicationSubStateListenerENS_18bidirectional_linkILm0EEEE8iteratorC2EPS4_
FN:576,_ZN3etl14intrusive_listIN5docan23DoCanMessageTransmitterINS1_18DoCanDataLinkLayerIjthLj4294967295EtEEEENS_18bidirectional_linkILm0EEEE8iteratorC2EPS7_
FN:576,_ZN3etl14intrusive_listIN5docan23DoCanMessageTransmitterIN12_GLOBAL__N_128SmallFrameIndexDataLinkLayerEEENS_18bidirectional_linkILm0EEEE8iteratorC2EPS7_
FN:576,_ZN3etl14intrusive_listIN3uds27ICommunicationStateListenerENS_18bidirectional_linkILm0EEEE8iteratorC2EPS4_
FN:576,_ZN3etl14intrusive_listIN5docan23DoCanMessageTransmitterINS1_18DoCanDataLinkLayerIjthLj0EtEEEENS_18bidirectional_linkILm0EEEE8iteratorC2EPS7_
FN:576,_ZN3etl14intrusive_listIN5docan20DoCanMessageReceiverINS1_18DoCanDataLinkLayerIjthLj0EtEEEENS_18bidirectional_linkILm0EEEE8iteratorC2EPS7_
FN:576,_ZN3etl14intrusive_listIN5docan20DoCanMessageReceiverIN12_GLOBAL__N_113DataLinkLayerEEENS_18bidirectional_linkILm0EEEE8iteratorC2EPS7_
FN:576,_ZN3etl14intrusive_listIN5docan23DoCanMessageTransmitterIN12_GLOBAL__N_113DataLinkLayerEEENS_18bidirectional_linkILm0EEEE8iteratorC2EPS7_
FN:576,_ZN3etl14intrusive_listIN5docan20DoCanMessageReceiverINS1_18DoCanDataLinkLayerIjthLj4294967295EtEEEENS_18bidirectional_linkILm0EEEE8iteratorC2EPS7_
FN:598,_ZN3etl14intrusive_listIN5docan23DoCanMessageTransmitterIN12_GLOBAL__N_113DataLinkLayerEEENS_18bidirectional_linkILm0EEEE14const_iteratorC2ERKNS8_8iteratorE
FN:598,_ZN3etl14intrusive_listIN5docan23DoCanMessageTransmitterINS1_18DoCanDataLinkLayerIjthLj4294967295EtEEEENS_18bidirectional_linkILm0EEEE14const_iteratorC2ERKNS8_8iteratorE
FN:598,_ZN3etl14intrusive_listIN5docan23DoCanMessageTransmitterIN12_GLOBAL__N_128SmallFrameIndexDataLinkLayerEEENS_18bidirectional_linkILm0EEEE14const_iteratorC2ERKNS8_8iteratorE
FN:598,_ZN3etl14intrusive_listIN5docan23DoCanMessageTransmitterINS1_18DoCanDataLinkLayerIjthLj0EtEEEENS_18bidirectional_linkILm0EEEE14const_iteratorC2ERKNS8_8iteratorE
FN:684,_ZN3etl14intrusive_listIN5docan20DoCanMessageReceiverINS1_18DoCanDataLinkLayerIjthLj0EtEEEENS_18bidirectional_linkILm0EEEEC2Ev
FN:684,_ZN3etl14intrusive_listIN5docan23DoCanMessageTransmitterINS1_18DoCanDataLinkLayerIjthLj4294967295EtEEEENS_18bidirectional_linkILm0EEEEC2Ev
FN:684,_ZN3etl14intrusive_listIN5docan23DoCanMessageTransmitterINS1_18DoCanDataLinkLayerIjthLj0EtEEEENS_18bidirectional_linkILm0EEEEC2Ev
FN:684,_ZN3etl14intrusive_listIN3can17ICANFrameListenerENS_18bidirectional_linkILm0EEEEC2Ev
FN:684,_ZN3etl14intrusive_listIN3uds16IAsyncDiagHelper13StoredRequestENS_18bidirectional_linkILm0EEEEC2Ev
FN:684,_ZN3etl14intrusive_listIN5docan23DoCanMessageTransmitterIN12_GLOBAL__N_113DataLinkLayerEEENS_18bidirectional_linkILm0EEEEC2Ev
FN:684,_ZN3etl14intrusive_listIN3uds27IDiagSessionChangedListenerENS_18bidirectional_linkILm0EEEEC2Ev
FN:684,_ZN3etl14intrusive_listIN6logger15ILoggerListenerENS_18bidirectional_linkILm0EEEEC2Ev
FN:684,_ZN3etl14intrusive_listIN3uds27ICommunicationStateListenerENS_18bidirectional_linkILm0EEEEC2Ev
FN:684,_ZN3etl14intrusive_listIN3uds29ManagedOutgoingDiagConnectionENS_18bidirectional_linkILm0EEEEC2Ev
FN:684,_ZN3etl14intrusive_listIN5docan20DoCanMessageReceiverIN12_GLOBAL__N_113DataLinkLayerEEENS_18bidirectional_linkILm0EEEEC2Ev
FN:684,_ZN3etl14intrusive_listIN7storage10StorageJobENS_18bidirectional_linkILm0EEEEC2Ev
FN:684,_ZN3etl14intrusive_listIN3uds30ICommunicationSubStateListenerENS_18bidirectional_linkILm0EEEEC2Ev
FN:684,_ZN3etl14intrusive_listIN5docan20DoCanMessageReceiverINS1_18DoCanDataLinkLayerIjthLj4294967295EtEEEENS_18bidirectional_linkILm0EEEEC2Ev
FN:684,_ZN3etl14intrusive_listIN5docan23DoCanMessageTransmitterIN12_GLOBAL__N_128SmallFrameIndexDataLinkLayerEEENS_18bidirectional_linkILm0EEEEC2Ev
FN:692,_ZN3etl14intrusive_listIN3uds27IDiagSessionChangedListenerENS_18bidirectional_linkILm0EEEED2Ev
FN:692,_ZN3etl14intrusive_listIN3uds30ICommunicationSubStateListenerENS_18bidirectional_linkILm0EEEED2Ev
FN:692,_ZN3etl14intrusive_listIN3can17ICANFrameListenerENS_18bidirectional_linkILm0EEEED2Ev
FN:692,_ZN3etl14intrusive_listIN3uds16IAsyncDiagHelper13StoredRequestENS_18bidirectional_linkILm0EEEED2Ev
FN:692,_ZN3etl14intrusive_listIN7storage10StorageJobENS_18bidirectional_linkILm0EEEED2Ev
FN:692,_ZN3etl14intrusive_listIN5docan23DoCanMessageTransmitterIN12_GLOBAL__N_113DataLinkLayerEEENS_18bidirectional_linkILm0EEEED2Ev
FN:692,_ZN3etl14intrusive_listIN5docan23DoCanMessageTransmitterINS1_18DoCanDataLinkLayerIjthLj4294967295EtEEEENS_18bidirectional_linkILm0EEEED2Ev
FN:692,_ZN3etl14intrusive_listIN6logger15ILoggerListenerENS_18bidirectional_linkILm0EEEED2Ev
FN:692,_ZN3etl14intrusive_listIN5docan23DoCanMessageTransmitterINS1_18DoCanDataLinkLayerIjthLj0EtEEEENS_18bidirectional_linkILm0EEEED2Ev
FN:692,_ZN3etl14intrusive_listIN5docan20DoCanMessageReceiverINS1_18DoCanDataLinkLayerIjthLj0EtEEEENS_18bidirectional_linkILm0EEEED2Ev
FN:692,_ZN3etl14intrusive_listIN5docan23DoCanMessageTransmitterIN12_GLOBAL__N_128SmallFrameIndexDataLinkLayerEEENS_18bidirectional_linkILm0EEEED2Ev
FN:692,_ZN3etl14intrusive_listIN5docan20DoCanMessageReceiverINS1_18DoCanDataLinkLayerIjthLj4294967295EtEEEENS_18bidirectional_linkILm0EEEED2Ev
FN:692,_ZN3etl14intrusive_listIN5docan20DoCanMessageReceiverIN12_GLOBAL__N_113DataLinkLayerEEENS_18bidirectional_linkILm0EEEED2Ev
FN:692,_ZN3etl14intrusive_listIN3uds27ICommunicationStateListenerENS_18bidirectional_linkILm0EEEED2Ev
FN:692,_ZN3etl14intrusive_listIN3uds29ManagedOutgoingDiagConnectionENS_18bidirectional_linkILm0EEEED2Ev
FN:727,_ZN3etl14intrusive_listIN5docan23DoCanMessageTransmitterINS1_18DoCanDataLinkLayerIjthLj4294967295EtEEEENS_18bidirectional_linkILm0EEEE5beginEv
FN:727,_ZN3etl14intrusive_listIN3uds30ICommunicationSubStateListenerENS_18bidirectional_linkILm0EEEE5beginEv
FN:727,_ZN3etl14intrusive_listIN5docan23DoCanMessageTransmitterIN12_GLOBAL__N_128SmallFrameIndexDataLinkLayerEEENS_18bidirectional_linkILm0EEEE5beginEv
FN:727,_ZN3etl14intrusive_listIN5docan20DoCanMessageReceiverINS1_18DoCanDataLinkLayerIjthLj4294967295EtEEEENS_18bidirectional_linkILm0EEEE5beginEv
FN:727,_ZN3etl14intrusive_listIN3uds27IDiagSessionChangedListenerENS_18bidirectional_linkILm0EEEE5beginEv
FN:727,_ZN3etl14intrusive_listIN5docan23DoCanMessageTransmitterINS1_18DoCanDataLinkLayerIjthLj0EtEEEENS_18bidirectional_linkILm0EEEE5beginEv
FN:727,_ZN3etl14intrusive_listIN3uds29ManagedOutgoingDiagConnectionENS_18bidirectional_linkILm0EEEE5beginEv
FN:727,_ZN3etl14intrusive_listIN5docan20DoCanMessageReceiverINS1_18DoCanDataLinkLayerIjthLj0EtEEEENS_18bidirectional_linkILm0EEEE5beginEv
FN:727,_ZN3etl14intrusive_listIN3uds27ICommunicationStateListenerENS_18bidirectional_linkILm0EEEE5beginEv
FN:727,_ZN3etl14intrusive_listIN6logger15ILoggerListenerENS_18bidirectional_linkILm0EEEE5beginEv
FN:727,_ZN3etl14intrusive_listIN3can17ICANFrameListenerENS_18bidirectional_linkILm0EEEE5beginEv
FN:727,_ZN3etl14intrusive_listIN5docan20DoCanMessageReceiverIN12_GLOBAL__N_113DataLinkLayerEEENS_18bidirectional_linkILm0EEEE5beginEv
FN:727,_ZN3etl14intrusive_listIN5docan23DoCanMessageTransmitterIN12_GLOBAL__N_113DataLinkLayerEEENS_18bidirectional_linkILm0EEEE5beginEv
FN:751,_ZN3etl14intrusive_listIN5docan20DoCanMessageReceiverINS1_18DoCanDataLinkLayerIjthLj0EtEEEENS_18bidirectional_linkILm0EEEE3endEv
FN:751,_ZN3etl14intrusive_listIN3uds27IDiagSessionChangedListenerENS_18bidirectional_linkILm0EEEE3endEv
FN:751,_ZN3etl14intrusive_listIN5docan20DoCanMessageReceiverIN12_GLOBAL__N_113DataLinkLayerEEENS_18bidirectional_linkILm0EEEE3endEv
FN:751,_ZN3etl14intrusive_listIN3uds29ManagedOutgoingDiagConnectionENS_18bidirectional_linkILm0EEEE3endEv
FN:751,_ZN3etl14intrusive_listIN3uds30ICommunicationSubStateListenerENS_18bidirectional_linkILm0EEEE3endEv
FN:751,_ZN3etl14intrusive_listIN3can17ICANFrameListenerENS_18bidirectional_linkILm0EEEE3endEv
FN:751,_ZN3etl14intrusive_listIN5docan23DoCanMessageTransmitterINS1_18DoCanDataLinkLayerIjthLj4294967295EtEEEENS_18bidirectional_linkILm0EEEE3endEv
FN:751,_ZN3etl14intrusive_listIN5docan23DoCanMessageTransmitterINS1_18DoCanDataLinkLayerIjthLj0EtEEEENS_18bidirectional_linkILm0EEEE3endEv
FN:751,_ZN3etl14intrusive_listIN5docan23DoCanMessageTransmitterIN12_GLOBAL__N_113DataLinkLayerEEENS_18bidirectional_linkILm0EEEE3endEv
FN:751,_ZN3etl14intrusive_listIN3uds27ICommunicationStateListenerENS_18bidirectional_linkILm0EEEE3endEv
FN:751,_ZN3etl14intrusive_listIN5docan20DoCanMessageReceiverINS1_18DoCanDataLinkLayerIjthLj4294967295EtEEEENS_18bidirectional_linkILm0EEEE3endEv
FN:751,_ZN3etl14intrusive_listIN6logger15ILoggerListenerENS_18bidirectional_linkILm0EEEE3endEv
FN:751,_ZN3etl14intrusive_listIN5docan23DoCanMessageTransmitterIN12_GLOBAL__N_128SmallFrameIndexDataLinkLayerEEENS_18bidirectional_linkILm0EEEE3endEv
FN:775,_ZN3etl14intrusive_listIN5docan23DoCanMessageTransmitterIN12_GLOBAL__N_113DataLinkLayerEEENS_18bidirectional_linkILm0EEEE5frontEv
FN:775,_ZN3etl14intrusive_listIN3uds16IAsyncDiagHelper13StoredRequestENS_18bidirectional_linkILm0EEEE5frontEv
FN:775,_ZN3etl14intrusive_listIN3uds29ManagedOutgoingDiagConnectionENS_18bidirectional_linkILm0EEEE5frontEv
FN:775,_ZN3etl14intrusive_listIN5docan23DoCanMessageTransmitterINS1_18DoCanDataLinkLayerIjthLj4294967295EtEEEENS_18bidirectional_linkILm0EEEE5frontEv
FN:775,_ZN3etl14intrusive_listIN5docan23DoCanMessageTransmitterIN12_GLOBAL__N_128SmallFrameIndexDataLinkLayerEEENS_18bidirectional_linkILm0EEEE5frontEv
FN:775,_ZN3etl14intrusive_listIN5docan23DoCanMessageTransmitterINS1_18DoCanDataLinkLayerIjthLj0EtEEEENS_18bidirectional_linkILm0EEEE5frontEv
FN:775,_ZN3etl14intrusive_listIN7storage10StorageJobENS_18bidirectional_linkILm0EEEE5frontEv
FN:807,_ZN3etl14intrusive_listIN5docan23DoCanMessageTransmitterIN12_GLOBAL__N_113DataLinkLayerEEENS_18bidirectional_linkILm0EEEE6insertENS8_14const_iteratorERS5_
FN:807,_ZN3etl14intrusive_listIN5docan23DoCanMessageTransmitterINS1_18DoCanDataLinkLayerIjthLj0EtEEEENS_18bidirectional_linkILm0EEEE6insertENS8_14const_iteratorERS5_
FN:807,_ZN3etl14intrusive_listIN5docan23DoCanMessageTransmitterINS1_18DoCanDataLinkLayerIjthLj4294967295EtEEEENS_18bidirectional_linkILm0EEEE6insertENS8_14const_iteratorERS5_
FN:807,_ZN3etl14intrusive_listIN5docan23DoCanMessageTransmitterIN12_GLOBAL__N_128SmallFrameIndexDataLinkLayerEEENS_18bidirectional_linkILm0EEEE6insertENS8_14const_iteratorERS5_
FN:830,_ZN3etl14intrusive_listIN5docan23DoCanMessageTransmitterIN12_GLOBAL__N_128SmallFrameIndexDataLinkLayerEEENS_18bidirectional_linkILm0EEEE5eraseENS8_8iteratorE
FN:830,_ZN3etl14intrusive_listIN5docan23DoCanMessageTransmitterINS1_18DoCanDataLinkLayerIjthLj4294967295EtEEEENS_18bidirectional_linkILm0EEEE5eraseENS8_8iteratorE
FN:830,_ZN3etl14intrusive_listIN5docan20DoCanMessageReceiverINS1_18DoCanDataLinkLayerIjthLj0EtEEEENS_18bidirectional_linkILm0EEEE5eraseENS8_8iteratorE
FN:830,_ZN3etl14intrusive_listIN5docan20DoCanMessageReceiverINS1_18DoCanDataLinkLayerIjthLj4294967295EtEEEENS_18bidirectional_linkILm0EEEE5eraseENS8_8iteratorE
FN:830,_ZN3etl14intrusive_listIN5docan23DoCanMessageTransmitterINS1_18DoCanDataLinkLayerIjthLj0EtEEEENS_18bidirectional_linkILm0EEEE5eraseENS8_8iteratorE
FN:830,_ZN3etl14intrusive_listIN5docan23DoCanMessageTransmitterIN12_GLOBAL__N_113DataLinkLayerEEENS_18bidirectional_linkILm0EEEE5eraseENS8_8iteratorE
FN:830,_ZN3etl14intrusive_listIN5docan20DoCanMessageReceiverIN12_GLOBAL__N_113DataLinkLayerEEENS_18bidirectional_linkILm0EEEE5eraseENS8_8iteratorE
FN:882,_ZN3etl14intrusive_listIN3can17ICANFrameListenerENS_18bidirectional_linkILm0EEEE5eraseERKS2_
FN:882,_ZN3etl14intrusive_listIN3uds29ManagedOutgoingDiagConnectionENS_18bidirectional_linkILm0EEEE5eraseERKS2_
FN:882,_ZN3etl14intrusive_listIN3uds27ICommunicationStateListenerENS_18bidirectional_linkILm0EEEE5eraseERKS2_
FN:882,_ZN3etl14intrusive_listIN6logger15ILoggerListenerENS_18bidirectional_linkILm0EEEE5eraseERKS2_
FN:882,_ZN3etl14intrusive_listIN3uds27IDiagSessionChangedListenerENS_18bidirectional_linkILm0EEEE5eraseERKS2_
FN:882,_ZN3etl14intrusive_listIN3uds30ICommunicationSubStateListenerENS_18bidirectional_linkILm0EEEE5eraseERKS2_
FN:928,_ZN3etl14intrusive_listIN5docan20DoCanMessageReceiverINS1_18DoCanDataLinkLayerIjthLj4294967295EtEEEENS_18bidirectional_linkILm0EEEE4sortEv
FN:928,_ZN3etl14intrusive_listIN5docan23DoCanMessageTransmitterIN12_GLOBAL__N_113DataLinkLayerEEENS_18bidirectional_linkILm0EEEE4sortEv
FN:928,_ZN3etl14intrusive_listIN5docan23DoCanMessageTransmitterINS1_18DoCanDataLinkLayerIjthLj0EtEEEENS_18bidirectional_linkILm0EEEE4sortEv
FN:928,_ZN3etl14intrusive_listIN5docan20DoCanMessageReceiverINS1_18DoCanDataLinkLayerIjthLj0EtEEEENS_18bidirectional_linkILm0EEEE4sortEv
FN:928,_ZN3etl14intrusive_listIN5docan20DoCanMessageReceiverIN12_GLOBAL__N_113DataLinkLayerEEENS_18bidirectional_linkILm0EEEE4sortEv
FN:928,_ZN3etl14intrusive_listIN5docan23DoCanMessageTransmitterINS1_18DoCanDataLinkLayerIjthLj4294967295EtEEEENS_18bidirectional_linkILm0EEEE4sortEv
FN:959,_ZN3etl14intrusive_listIN5docan20DoCanMessageReceiverINS1_18DoCanDataLinkLayerIjthLj4294967295EtEEEENS_18bidirectional_linkILm0EEEE4sortINS_4lessIS5_EEEEvT_
FN:959,_ZN3etl14intrusive_listIN5docan20DoCanMessageReceiverIN12_GLOBAL__N_113DataLinkLayerEEENS_18bidirectional_linkILm0EEEE4sortINS_4lessIS5_EEEEvT_
FN:959,_ZN3etl14intrusive_listIN5docan23DoCanMessageTransmitterINS1_18DoCanDataLinkLayerIjthLj0EtEEEENS_18bidirectional_linkILm0EEEE4sortINS_4lessIS5_EEEEvT_
FN:959,_ZN3etl14intrusive_listIN5docan20DoCanMessageReceiverINS1_18DoCanDataLinkLayerIjthLj0EtEEEENS_18bidirectional_linkILm0EEEE4sortINS_4lessIS5_EEEEvT_
FN:959,_ZN3etl14intrusive_listIN5docan23DoCanMessageTransmitterINS1_18DoCanDataLinkLayerIjthLj4294967295EtEEEENS_18bidirectional_linkILm0EEEE4sortINS_4lessIS5_EEEEvT_
FN:959,_ZN3etl14intrusive_listIN5docan23DoCanMessageTransmitterIN12_GLOBAL__N_113DataLinkLayerEEENS_18bidirectional_linkILm0EEEE4sortINS_4lessIS5_EEEEvT_
FNDA:6,_ZNK3etl19intrusive_list_baseINS_18bidirectional_linkILm0EEEE4sizeEv
FNDA:15,_ZN3etl14intrusive_listIN5docan23DoCanMessageTransmitterIN12_GLOBAL__N_113DataLinkLayerEEENS_18bidirectional_linkILm0EEEE4sortINS_4lessIS5_EEEEvT_
FNDA:2,_ZN3etl14intrusive_listIN5docan23DoCanMessageTransmitterINS1_18DoCanDataLinkLayerIjthLj0EtEEEENS_18bidirectional_linkILm0EEEE5frontEv
FNDA:2,_ZN3etleqERKNS_14intrusive_listIN5docan23DoCanMessageTransmitterINS1_18DoCanDataLinkLayerIjthLj4294967295EtEEEENS_18bidirectional_linkILm0EEEE8iteratorESB_
FNDA:32,_ZN3etlneERKNS_14intrusive_listIN3uds27ICommunicationStateListenerENS_18bidirectional_linkILm0EEEE8iteratorES8_
FNDA:0,_ZN3etl14intrusive_listIN5docan23DoCanMessageTransmitterIN12_GLOBAL__N_128SmallFrameIndexDataLinkLayerEEENS_18bidirectional_linkILm0EEEE8iteratorC2ERKS9_
FNDA:42,_ZN3etl14intrusive_listIN5docan20DoCanMessageReceiverIN12_GLOBAL__N_113DataLinkLayerEEENS_18bidirectional_linkILm0EEEE5eraseENS8_8iteratorE
FNDA:1,_ZN3etl14intrusive_listIN5docan23DoCanMessageTransmitterIN12_GLOBAL__N_128SmallFrameIndexDataLinkLayerEEENS_18bidirectional_linkILm0EEEED2Ev
FNDA:2,_ZN3etl14intrusive_listIN5docan20DoCanMessageReceiverINS1_18DoCanDataLinkLayerIjthLj4294967295EtEEEENS_18bidirectional_linkILm0EEEE8iteratorC2EPS7_
FNDA:24,_ZN3etl14intrusive_listIN5docan20DoCanMessageReceiverIN12_GLOBAL__N_113DataLinkLayerEEENS_18bidirectional_linkILm0EEEED2Ev
FNDA:1,_ZN3etl14intrusive_listIN5docan20DoCanMessageReceiverINS1_18DoCanDataLinkLayerIjthLj4294967295EtEEEENS_18bidirectional_linkILm0EEEED2Ev
FNDA:0,_ZNK3etl14intrusive_listIN5docan20DoCanMessageReceiverINS1_18DoCanDataLinkLayerIjthLj4294967295EtEEEENS_18bidirectional_linkILm0EEEE8iteratorptEv
FNDA:676,_ZN3etl14intrusive_listIN5docan23DoCanMessageTransmitterIN12_GLOBAL__N_113DataLinkLayerEEENS_18bidirectional_linkILm0EEEE5beginEv
FNDA:46,_ZNK3etl14intrusive_listIN5docan23DoCanMessageTransmitterINS1_18DoCanDataLinkLayerIjthLj0EtEEEENS_18bidirectional_linkILm0EEEE8iteratorptEv
FNDA:82,_ZN3etl19intrusive_list_baseINS_18bidirectional_linkILm0EEEE15disconnect_linkERS2_
FNDA:15,_ZN3etl14intrusive_listIN3uds27IDiagSessionChangedListenerENS_18bidirectional_linkILm0EEEE8iteratorppEv
FNDA:251,_ZN3etl14intrusive_listIN3uds29ManagedOutgoingDiagConnectionENS_18bidirectional_linkILm0EEEED2Ev
FNDA:34,_ZN3etl14intrusive_listIN7storage10StorageJobENS_18bidirectional_linkILm0EEEE5frontEv
FNDA:1600,_ZN3etl19intrusive_list_baseINS_18bidirectional_linkILm0EEEE10initialiseEv
FNDA:75,_ZN3etl14intrusive_listIN5docan23DoCanMessageTransmitterIN12_GLOBAL__N_113DataLinkLayerEEENS_18bidirectional_linkILm0EEEE8iteratorC2Ev
FNDA:2,_ZN3etl14intrusive_listIN5docan23DoCanMessageTransmitterIN12_GLOBAL__N_128SmallFrameIndexDataLinkLayerEEENS_18bidirectional_linkILm0EEEE3endEv
FNDA:0,_ZNK3etl14intrusive_listIN5docan23DoCanMessageTransmitterINS1_18DoCanDataLinkLayerIjthLj4294967295EtEEEENS_18bidirectional_linkILm0EEEE8iteratorptEv
FNDA:1,_ZN3etl14intrusive_listIN5docan23DoCanMessageTransmitterIN12_GLOBAL__N_128SmallFrameIndexDataLinkLayerEEENS_18bidirectional_linkILm0EEEEC2Ev
FNDA:2,_ZN3etl14intrusive_listIN5docan23DoCanMessageTransmitterINS1_18DoCanDataLinkLayerIjthLj0EtEEEENS_18bidirectional_linkILm0EEEE14const_iteratorC2ERKNS8_8iteratorE
FNDA:0,_ZN3etl14intrusive_listIN5docan20DoCanMessageReceiverINS1_18DoCanDataLinkLayerIjthLj4294967295EtEEEENS_18bidirectional_linkILm0EEEE8iteratorC2Ev
FNDA:0,_ZN3etl14intrusive_listIN5docan23DoCanMessageTransmitterIN12_GLOBAL__N_128SmallFrameIndexDataLinkLayerEEENS_18bidirectional_linkILm0EEEE6insertENS8_14const_iteratorERS5_
FNDA:38,_ZN3etl14intrusive_listIN3uds27ICommunicationStateListenerENS_18bidirectional_linkILm0EEEED2Ev
FNDA:0,_ZN3etl14intrusive_listIN5docan23DoCanMessageTransmitterINS1_18DoCanDataLinkLayerIjthLj4294967295EtEEEENS_18bidirectional_linkILm0EEEE5frontEv
FNDA:3,_ZN3etl14intrusive_listIN6logger15ILoggerListenerENS_18bidirectional_linkILm0EEEE3endEv
FNDA:0,_ZNK3etl14intrusive_listIN5docan20DoCanMessageReceiverINS1_18DoCanDataLinkLayerIjthLj4294967295EtEEEENS_18bidirectional_linkILm0EEEE8iteratordeEv
FNDA:0,_ZN3etl14intrusive_listIN5docan23DoCanMessageTransmitterINS1_18DoCanDataLinkLayerIjthLj4294967295EtEEEENS_18bidirectional_linkILm0EEEE4sortINS_4lessIS5_EEEEvT_
FNDA:1,_ZN3etl24intrusive_list_exceptionC2EPKcS2_i
FNDA:3444,_ZN3etlneERKNS_14intrusive_listIN5docan20DoCanMessageReceiverIN12_GLOBAL__N_113DataLinkLayerEEENS_18bidirectional_linkILm0EEEE8iteratorESB_
FNDA:0,_ZN3etl14intrusive_listIN5docan23DoCanMessageTransmitterINS1_18DoCanDataLinkLayerIjthLj4294967295EtEEEENS_18bidirectional_linkILm0EEEE6insertENS8_14const_iteratorERS5_
FNDA:1,_ZN3etl14intrusive_listIN5docan20DoCanMessageReceiverINS1_18DoCanDataLinkLayerIjthLj4294967295EtEEEENS_18bidirectional_linkILm0EEEE3endEv
FNDA:0,_ZN3etl14intrusive_listIN5docan20DoCanMessageReceiverINS1_18DoCanDataLinkLayerIjthLj4294967295EtEEEENS_18bidirectional_linkILm0EEEE5eraseENS8_8iteratorE
FNDA:416,_ZN3etl14intrusive_listIN5docan20DoCanMessageReceiverIN12_GLOBAL__N_113DataLinkLayerEEENS_18bidirectional_linkILm0EEEE8iteratorppEi
FNDA:0,_ZN3etl14intrusive_listIN5docan23DoCanMessageTransmitterIN12_GLOBAL__N_128SmallFrameIndexDataLinkLayerEEENS_18bidirectional_linkILm0EEEE5frontEv
FNDA:1,_ZN3etl14intrusive_listIN6logger15ILoggerListenerENS_18bidirectional_linkILm0EEEE8iteratorppEv
FNDA:25,_ZN3etl14intrusive_listIN5docan23DoCanMessageTransmitterINS1_18DoCanDataLinkLayerIjthLj0EtEEEENS_18bidirectional_linkILm0EEEE8iteratoraSERKS9_
FNDA:1,_ZN3etl14intrusive_listIN5docan20DoCanMessageReceiverINS1_18DoCanDataLinkLayerIjthLj4294967295EtEEEENS_18bidirectional_linkILm0EEEEC2Ev
FNDA:2145,_ZN3etl14intrusive_listIN5docan23DoCanMessageTransmitterIN12_GLOBAL__N_113DataLinkLayerEEENS_18bidirectional_linkILm0EEEE8iteratorC2EPS7_
FNDA:35,_ZN3etl14intrusive_listIN5docan23DoCanMessageTransmitterIN12_GLOBAL__N_113DataLinkLayerEEENS_18bidirectional_linkILm0EEEE5eraseENS8_8iteratorE
FNDA:7429,_ZN3etl14intrusive_listIN5docan20DoCanMessageReceiverIN12_GLOBAL__N_113DataLinkLayerEEENS_18bidirectional_linkILm0EEEE8iteratorC2EPS7_
FNDA:2,_ZN3etl14intrusive_listIN5docan23DoCanMessageTransmitterINS1_18DoCanDataLinkLayerIjthLj0EtEEEENS_18bidirectional_linkILm0EEEE5eraseENS8_8iteratorE
FNDA:21,_ZNK3etl14intrusive_listIN5docan23DoCanMessageTransmitterINS1_18DoCanDataLinkLayerIjthLj0EtEEEENS_18bidirectional_linkILm0EEEE8iteratordeEv
FNDA:2,_ZN3etl14intrusive_listIN6logger15ILoggerListenerENS_18bidirectional_linkILm0EEEE5beginEv
FNDA:0,_ZNK3etl14intrusive_listIN5docan23DoCanMessageTransmitterIN12_GLOBAL__N_128SmallFrameIndexDataLinkLayerEEENS_18bidirectional_linkILm0EEEE8iteratordeEv
FNDA:16,_ZN3etl14intrusive_listIN3uds27ICommunicationStateListenerENS_18bidirectional_linkILm0EEEE5beginEv
FNDA:1473,_ZN3etl14intrusive_listIN5docan20DoCanMessageReceiverINS1_18DoCanDataLinkLayerIjthLj0EtEEEENS_18bidirectional_linkILm0EEEE8iteratorC2EPS7_
FNDA:33,_ZN3etl14intrusive_listIN5docan20DoCanMessageReceiverIN12_GLOBAL__N_113DataLinkLayerEEENS_18bidirectional_linkILm0EEEE4sortEv
FNDA:2,_ZN3etl14intrusive_listIN5docan20DoCanMessageReceiverINS1_18DoCanDataLinkLayerIjthLj0EtEEEENS_18bidirectional_linkILm0EEEE4sortINS_4lessIS5_EEEEvT_
FNDA:32,_ZN3etl14intrusive_listIN3uds27ICommunicationStateListenerENS_18bidirectional_linkILm0EEEE3endEv
FNDA:33,_ZN3etl14intrusive_listIN5docan23DoCanMessageTransmitterINS1_18DoCanDataLinkLayerIjthLj0EtEEEENS_18bidirectional_linkILm0EEEE8iteratorC2ERKS9_
FNDA:249,_ZN3etl14intrusive_listIN5docan23DoCanMessageTransmitterINS1_18DoCanDataLinkLayerIjthLj0EtEEEENS_18bidirectional_linkILm0EEEE8iteratorC2EPS7_
FNDA:5,_ZN3etl14intrusive_listIN3uds29ManagedOutgoingDiagConnectionENS_18bidirectional_linkILm0EEEE5frontEv
FNDA:2,_ZN3etl14intrusive_listIN6logger15ILoggerListenerENS_18bidirectional_linkILm0EEEED2Ev
FNDA:7,_ZN3etl14intrusive_listIN3uds30ICommunicationSubStateListenerENS_18bidirectional_linkILm0EEEE8iteratorppEv
FNDA:16,_ZNK3etl14intrusive_listIN3uds27ICommunicationStateListenerENS_18bidirectional_linkILm0EEEE8iteratorptEv
FNDA:0,_ZN3etl14intrusive_listIN5docan23DoCanMessageTransmitterINS1_18DoCanDataLinkLayerIjthLj4294967295EtEEEENS_18bidirectional_linkILm0EEEE4sortEv
FNDA:2927,_ZN3etl14intrusive_listIN5docan20DoCanMessageReceiverIN12_GLOBAL__N_113DataLinkLayerEEENS_18bidirectional_linkILm0EEEE5beginEv
FNDA:2,_ZN3etl14intrusive_listIN5docan23DoCanMessageTransmitterINS1_18DoCanDataLinkLayerIjthLj0EtEEEENS_18bidirectional_linkILm0EEEE6insertENS8_14const_iteratorERS5_
FNDA:93,_ZN3etlneERKNS_14intrusive_listIN5docan23DoCanMessageTransmitterINS1_18DoCanDataLinkLayerIjthLj0EtEEEENS_18bidirectional_linkILm0EEEE8iteratorESB_
FNDA:4,_ZN3etl14intrusive_listIN3can17ICANFrameListenerENS_18bidirectional_linkILm0EEEE5beginEv
FNDA:4,_ZN3etl14intrusive_listIN5docan20DoCanMessageReceiverINS1_18DoCanDataLinkLayerIjthLj0EtEEEENS_18bidirectional_linkILm0EEEED2Ev
FNDA:1,_ZN3etlneERKNS_14intrusive_listIN5docan20DoCanMessageReceiverINS1_18DoCanDataLinkLayerIjthLj4294967295EtEEEENS_18bidirectional_linkILm0EEEE8iteratorESB_
FNDA:14,_ZN3etleqERKNS_14intrusive_listIN3uds30ICommunicationSubStateListenerENS_18bidirectional_linkILm0EEEE8iteratorES8_
FNDA:6,_ZNK3etl14intrusive_listIN3uds29ManagedOutgoingDiagConnectionENS_18bidirectional_linkILm0EEEE8iteratorptEv
FNDA:32,_ZN3etl14intrusive_listIN5docan23DoCanMessageTransmitterINS1_18DoCanDataLinkLayerIjthLj0EtEEEENS_18bidirectional_linkILm0EEEED2Ev
FNDA:2,_ZN3etl19intrusive_list_baseINS_18bidirectional_linkILm0EEEE10push_frontERS2_
FNDA:19,_ZN3etl14intrusive_listIN3uds30ICommunicationSubStateListenerENS_18bidirectional_linkILm0EEEE5eraseERKS2_
FNDA:2,_ZN3etlneERKNS_14intrusive_listIN5docan23DoCanMessageTransmitterINS1_18DoCanDataLinkLayerIjthLj4294967295EtEEEENS_18bidirectional_linkILm0EEEE8iteratorESB_
FNDA:4,_ZN3etl14intrusive_listIN5docan23DoCanMessageTransmitterINS1_18DoCanDataLinkLayerIjthLj0EtEEEENS_18bidirectional_linkILm0EEEE4sortEv
FNDA:122,_ZN3etleqERKNS_14intrusive_listIN5docan23DoCanMessageTransmitterINS1_18DoCanDataLinkLayerIjthLj0EtEEEENS_18bidirectional_linkILm0EEEE8iteratorESB_
FNDA:1404,_ZN3etl14intrusive_listIN5docan20DoCanMessageReceiverIN12_GLOBAL__N_113DataLinkLayerEEENS_18bidirectional_linkILm0EEEE8iteratoraSERKS9_
FNDA:10,_ZN3etl14intrusive_listIN5docan20DoCanMessageReceiverINS1_18DoCanDataLinkLayerIjthLj0EtEEEENS_18bidirectional_linkILm0EEEE8iteratorC2Ev
FNDA:461,_ZN3etl19intrusive_list_baseINS_18bidirectional_linkILm0EEEE11insert_linkEPS2_RS2_
FNDA:38,_ZN3etl14intrusive_listIN3uds27ICommunicationStateListenerENS_18bidirectional_linkILm0EEEEC2Ev
FNDA:0,_ZN3etl14intrusive_listIN5docan20DoCanMessageReceiverINS1_18DoCanDataLinkLayerIjthLj4294967295EtEEEENS_18bidirectional_linkILm0EEEE8iteratorppEv
FNDA:1,_ZN3etl14intrusive_listIN5docan23DoCanMessageTransmitterINS1_18DoCanDataLinkLayerIjthLj4294967295EtEEEENS_18bidirectional_linkILm0EEEE8iteratoraSERKS9_
FNDA:0,_ZN3etl14intrusive_listIN5docan23DoCanMessageTransmitterINS1_18DoCanDataLinkLayerIjthLj4294967295EtEEEENS_18bidirectional_linkILm0EEEE8iteratorppEv
FNDA:2,_ZN3etl14intrusive_listIN5docan20DoCanMessageReceiverINS1_18DoCanDataLinkLayerIjthLj0EtEEEENS_18bidirectional_linkILm0EEEE4sortEv
FNDA:92,_ZN3etl14intrusive_listIN7storage10StorageJobENS_18bidirectional_linkILm0EEEEC2Ev
FNDA:24,_ZN3etl14intrusive_listIN5docan20DoCanMessageReceiverIN12_GLOBAL__N_113DataLinkLayerEEENS_18bidirectional_linkILm0EEEEC2Ev
FNDA:38,_ZN3etl14intrusive_listIN3uds30ICommunicationSubStateListenerENS_18bidirectional_linkILm0EEEEC2Ev
FNDA:0,_ZN3etl14intrusive_listIN5docan20DoCanMessageReceiverINS1_18DoCanDataLinkLayerIjthLj4294967295EtEEEENS_18bidirectional_linkILm0EEEE8iteratorC2ERKS9_
FNDA:613,_ZNK3etl14intrusive_listIN5docan23DoCanMessageTransmitterIN12_GLOBAL__N_113DataLinkLayerEEENS_18bidirectional_linkILm0EEEE8iteratorptEv
FNDA:165,_ZN3etl14intrusive_listIN5docan20DoCanMessageReceiverIN12_GLOBAL__N_113DataLinkLayerEEENS_18bidirectional_linkILm0EEEE8iteratorC2Ev
FNDA:3,_ZN3etleqERKNS_14intrusive_listIN6logger15ILoggerListenerENS_18bidirectional_linkILm0EEEE8iteratorES8_
FNDA:20,_ZN3etl14intrusive_listIN5docan23DoCanMessageTransmitterINS1_18DoCanDataLinkLayerIjthLj0EtEEEENS_18bidirectional_linkILm0EEEE8iteratorC2Ev
FNDA:55,_ZN3etl14intrusive_listIN3uds29ManagedOutgoingDiagConnectionENS_18bidirectional_linkILm0EEEE5beginEv
FNDA:97,_ZN3etl14intrusive_listIN5docan23DoCanMessageTransmitterINS1_18DoCanDataLinkLayerIjthLj0EtEEEENS_18bidirectional_linkILm0EEEE5beginEv
FNDA:251,_ZN3etl14intrusive_listIN3uds29ManagedOutgoingDiagConnectionENS_18bidirectional_linkILm0EEEEC2Ev
FNDA:3007,_ZNK3etl14intrusive_listIN5docan20DoCanMessageReceiverIN12_GLOBAL__N_113DataLinkLayerEEENS_18bidirectional_linkILm0EEEE8iteratorptEv
FNDA:736,_ZN3etl14intrusive_listIN5docan20DoCanMessageReceiverINS1_18DoCanDataLinkLayerIjthLj0EtEEEENS_18bidirectional_linkILm0EEEE5beginEv
FNDA:32,_ZN3etl14intrusive_listIN3uds27IDiagSessionChangedListenerENS_18bidirectional_linkILm0EEEE5eraseERKS2_
FNDA:1434,_ZN3etl14intrusive_listIN5docan23DoCanMessageTransmitterIN12_GLOBAL__N_113DataLinkLayerEEENS_18bidirectional_linkILm0EEEE3endEv
FNDA:2,_ZN3etl14intrusive_listIN5docan23DoCanMessageTransmitterINS1_18DoCanDataLinkLayerIjthLj4294967295EtEEEENS_18bidirectional_linkILm0EEEED2Ev
FNDA:7,_ZNK3etl14intrusive_listIN3uds30ICommunicationSubStateListenerENS_18bidirectional_linkILm0EEEE8iteratorptEv
FNDA:48,_ZN3etl14intrusive_listIN3uds27ICommunicationStateListenerENS_18bidirectional_linkILm0EEEE8iteratorC2EPS4_
FNDA:390,_ZN3etl14intrusive_listIN5docan23DoCanMessageTransmitterIN12_GLOBAL__N_113DataLinkLayerEEENS_18bidirectional_linkILm0EEEE8iteratorC2ERKS9_
FNDA:2,_ZN3etl19intrusive_list_baseINS_18bidirectional_linkILm0EEEE11insert_linkERS2_S4_
FNDA:1,_ZN3etl14intrusive_listIN6logger15ILoggerListenerENS_18bidirectional_linkILm0EEEE5eraseERKS2_
FNDA:150,_ZN3etl14intrusive_listIN5docan23DoCanMessageTransmitterINS1_18DoCanDataLinkLayerIjthLj0EtEEEENS_18bidirectional_linkILm0EEEE3endEv
FNDA:64,_ZN3etl19intrusive_list_baseINS_18bidirectional_linkILm0EEEE11remove_linkEPS2_
FNDA:4380,_ZN3etleqERKNS_14intrusive_listIN5docan20DoCanMessageReceiverIN12_GLOBAL__N_113DataLinkLayerEEENS_18bidirectional_linkILm0EEEE8iteratorESB_
FNDA:3,_ZN3etl14intrusive_listIN3uds16IAsyncDiagHelper13StoredRequestENS_18bidirectional_linkILm0EEEE5frontEv
FNDA:57,_ZN3etlneERKNS_14intrusive_listIN3uds29ManagedOutgoingDiagConnectionENS_18bidirectional_linkILm0EEEE8iteratorES8_
FNDA:912,_ZN3etlneERKNS_14intrusive_listIN5docan23DoCanMessageTransmitterIN12_GLOBAL__N_113DataLinkLayerEEENS_18bidirectional_linkILm0EEEE8iteratorESB_
FNDA:1,_ZN3etleqERKNS_14intrusive_listIN5docan20DoCanMessageReceiverINS1_18DoCanDataLinkLayerIjthLj4294967295EtEEEENS_18bidirectional_linkILm0EEEE8iteratorESB_
FNDA:2,_ZN3etl14intrusive_listIN5docan23DoCanMessageTransmitterIN12_GLOBAL__N_128SmallFrameIndexDataLinkLayerEEENS_18bidirectional_linkILm0EEEE8iteratorC2EPS7_
FNDA:4697,_ZN3etl19intrusive_list_baseINS_18bidirectional_linkILm0EEEE8get_headEv
FNDA:79,_ZN3etl19intrusive_list_baseINS_18bidirectional_linkILm0EEEE9pop_frontEv
FNDA:551,_ZNK3etl19intrusive_list_baseINS_18bidirectional_linkILm0EEEE5emptyEv
FNDA:4,_ZN3etl14intrusive_listIN5docan23DoCanMessageTransmitterINS1_18DoCanDataLinkLayerIjthLj0EtEEEENS_18bidirectional_linkILm0EEEE4sortINS_4lessIS5_EEEEvT_
FNDA:2,_ZN3etl14intrusive_listIN6logger15ILoggerListenerENS_18bidirectional_linkILm0EEEEC2Ev
FNDA:1,_ZN3etl14intrusive_listIN5docan20DoCanMessageReceiverINS1_18DoCanDataLinkLayerIjthLj4294967295EtEEEENS_18bidirectional_linkILm0EEEE5beginEv
FNDA:0,_ZN3etl14intrusive_listIN5docan23DoCanMessageTransmitterINS1_18DoCanDataLinkLayerIjthLj0EtEEEENS_18bidirectional_linkILm0EEEE8iteratorppEi
FNDA:198,_ZN3etl14intrusive_listIN5docan23DoCanMessageTransmitterIN12_GLOBAL__N_113DataLinkLayerEEENS_18bidirectional_linkILm0EEEEC2Ev
FNDA:92,_ZN3etl14intrusive_listIN7storage10StorageJobENS_18bidirectional_linkILm0EEEED2Ev
FNDA:0,_ZN3etl14intrusive_listIN5docan23DoCanMessageTransmitterINS1_18DoCanDataLinkLayerIjthLj4294967295EtEEEENS_18bidirectional_linkILm0EEEE5eraseENS8_8iteratorE
FNDA:8,_ZN3etl14intrusive_listIN5docan23DoCanMessageTransmitterINS1_18DoCanDataLinkLayerIjthLj4294967295EtEEEENS_18bidirectional_linkILm0EEEE8iteratorC2EPS7_
FNDA:31,_ZN3etl14intrusive_listIN3uds27IDiagSessionChangedListenerENS_18bidirectional_linkILm0EEEEC2Ev
FNDA:15,_ZN3etl14intrusive_listIN3can17ICANFrameListenerENS_18bidirectional_linkILm0EEEE8iteratorppEv
FNDA:33,_ZN3etl14intrusive_listIN5docan20DoCanMessageReceiverIN12_GLOBAL__N_113DataLinkLayerEEENS_18bidirectional_linkILm0EEEE4sortINS_4lessIS5_EEEEvT_
FNDA:0,_ZN3etl14intrusive_listIN5docan23DoCanMessageTransmitterIN12_GLOBAL__N_128SmallFrameIndexDataLinkLayerEEENS_18bidirectional_linkILm0EEEE5eraseENS8_8iteratorE
FNDA:4,_ZN3etl14intrusive_listIN3can17ICANFrameListenerENS_18bidirectional_linkILm0EEEE3endEv
FNDA:1555,_ZNK3etl14intrusive_listIN5docan20DoCanMessageReceiverIN12_GLOBAL__N_113DataLinkLayerEEENS_18bidirectional_linkILm0EEEE8iteratordeEv
FNDA:459,_ZN3etl14intrusive_listIN5docan23DoCanMessageTransmitterIN12_GLOBAL__N_113DataLinkLayerEEENS_18bidirectional_linkILm0EEEE8iteratorppEv
FNDA:21,_ZN3etl14intrusive_listIN3uds30ICommunicationSubStateListenerENS_18bidirectional_linkILm0EEEE8iteratorC2EPS4_
FNDA:0,_ZN3etlneERKNS_14intrusive_listIN5docan23DoCanMessageTransmitterIN12_GLOBAL__N_128SmallFrameIndexDataLinkLayerEEENS_18bidirectional_linkILm0EEEE8iteratorESB_
FNDA:0,_ZN3etl14intrusive_listIN3uds27ICommunicationStateListenerENS_18bidirectional_linkILm0EEEE5eraseERKS2_
FNDA:35,_ZN3etl14intrusive_listIN5docan23DoCanMessageTransmitterIN12_GLOBAL__N_113DataLinkLayerEEENS_18bidirectional_linkILm0EEEE14const_iteratorC2ERKNS8_8iteratorE
FNDA:0,_ZN3etl14intrusive_listIN5docan20DoCanMessageReceiverINS1_18DoCanDataLinkLayerIjthLj4294967295EtEEEENS_18bidirectional_linkILm0EEEE8iteratorppEi
FNDA:25,_ZN3etl14intrusive_listIN5docan23DoCanMessageTransmitterINS1_18DoCanDataLinkLayerIjthLj0EtEEEENS_18bidirectional_linkILm0EEEE8iteratorppEv
FNDA:37,_ZN3etl14intrusive_listIN3uds16IAsyncDiagHelper13StoredRequestENS_18bidirectional_linkILm0EEEEC2Ev
FNDA:0,_ZN3etl14intrusive_listIN5docan23DoCanMessageTransmitterINS1_18DoCanDataLinkLayerIjthLj4294967295EtEEEENS_18bidirectional_linkILm0EEEE8iteratorC2ERKS9_
FNDA:198,_ZN3etl14intrusive_listIN5docan23DoCanMessageTransmitterIN12_GLOBAL__N_113DataLinkLayerEEENS_18bidirectional_linkILm0EEEED2Ev
FNDA:57,_ZN3etleqERKNS_14intrusive_listIN3uds29ManagedOutgoingDiagConnectionENS_18bidirectional_linkILm0EEEE8iteratorES8_
FNDA:15,_ZNK3etl14intrusive_listIN3can17ICANFrameListenerENS_18bidirectional_linkILm0EEEE8iteratordeEv
FNDA:0,_ZN3etleqERKNS_14intrusive_listIN5docan23DoCanMessageTransmitterIN12_GLOBAL__N_128SmallFrameIndexDataLinkLayerEEENS_18bidirectional_linkILm0EEEE8iteratorESB_
FNDA:123,_ZN3etl19intrusive_list_baseINS_18bidirectional_linkILm0EEEE15disconnect_linkEPS2_
FNDA:6,_ZN3etl14intrusive_listIN5docan20DoCanMessageReceiverINS1_18DoCanDataLinkLayerIjthLj0EtEEEENS_18bidirectional_linkILm0EEEE8iteratorC2ERKS9_
FNDA:30,_ZN3etlneERKNS_14intrusive_listIN3uds27IDiagSessionChangedListenerENS_18bidirectional_linkILm0EEEE8iteratorES8_
FNDA:5,_ZN3etl14intrusive_listIN5docan23DoCanMessageTransmitterINS1_18DoCanDataLinkLayerIjthLj4294967295EtEEEENS_18bidirectional_linkILm0EEEE3endEv
FNDA:3,_ZN3etl14intrusive_listIN5docan20DoCanMessageReceiverINS1_18DoCanDataLinkLayerIjthLj0EtEEEENS_18bidirectional_linkILm0EEEE8iteratoraSERKS9_
FNDA:15,_ZN3etl14intrusive_listIN3uds27IDiagSessionChangedListenerENS_18bidirectional_linkILm0EEEE5beginEv
FNDA:15,_ZN3etl14intrusive_listIN5docan23DoCanMessageTransmitterIN12_GLOBAL__N_113DataLinkLayerEEENS_18bidirectional_linkILm0EEEE4sortEv
FNDA:35,_ZN3etl14intrusive_listIN5docan23DoCanMessageTransmitterIN12_GLOBAL__N_113DataLinkLayerEEENS_18bidirectional_linkILm0EEEE6insertENS8_14const_iteratorERS5_
FNDA:0,_ZN3etl14intrusive_listIN5docan23DoCanMessageTransmitterINS1_18DoCanDataLinkLayerIjthLj4294967295EtEEEENS_18bidirectional_linkILm0EEEE14const_iteratorC2ERKNS8_8iteratorE
FNDA:1,_ZNK3etl14intrusive_listIN6logger15ILoggerListenerENS_18bidirectional_linkILm0EEEE8iteratordeEv
FNDA:16,_ZN3etl14intrusive_listIN3uds27ICommunicationStateListenerENS_18bidirectional_linkILm0EEEE8iteratorppEv
FNDA:0,_ZN3etl14intrusive_listIN5docan20DoCanMessageReceiverINS1_18DoCanDataLinkLayerIjthLj0EtEEEENS_18bidirectional_linkILm0EEEE8iteratorppEi
FNDA:0,_ZN3etl14intrusive_listIN5docan23DoCanMessageTransmitterIN12_GLOBAL__N_128SmallFrameIndexDataLinkLayerEEENS_18bidirectional_linkILm0EEEE14const_iteratorC2ERKNS8_8iteratorE
FNDA:3,_ZN3etl14intrusive_listIN5docan20DoCanMessageReceiverINS1_18DoCanDataLinkLayerIjthLj0EtEEEENS_18bidirectional_linkILm0EEEE5eraseENS8_8iteratorE
FNDA:16,_ZNK3etl19intrusive_list_baseINS_18bidirectional_linkILm0EEEE13contains_nodeERKS2_
FNDA:242,_ZNK3etl14intrusive_listIN5docan23DoCanMessageTransmitterIN12_GLOBAL__N_113DataLinkLayerEEENS_18bidirectional_linkILm0EEEE8iteratordeEv
FNDA:1,_ZN3etl38intrusive_list_value_is_already_linkedC2EPKci
FNDA:0,_ZN3etl14intrusive_listIN5docan20DoCanMessageReceiverINS1_18DoCanDataLinkLayerIjthLj4294967295EtEEEENS_18bidirectional_linkILm0EEEE4sortINS_4lessIS5_EEEEvT_
FNDA:30,_ZN3etl14intrusive_listIN3uds27IDiagSessionChangedListenerENS_18bidirectional_linkILm0EEEE3endEv
FNDA:112,_ZN3etl14intrusive_listIN3uds29ManagedOutgoingDiagConnectionENS_18bidirectional_linkILm0EEEE8iteratorC2EPS4_
FNDA:12,_ZN3etl14intrusive_listIN3can17ICANFrameListenerENS_18bidirectional_linkILm0EEEE5eraseERKS2_
FNDA:32,_ZN3etleqERKNS_14intrusive_listIN3uds27ICommunicationStateListenerENS_18bidirectional_linkILm0EEEE8iteratorES8_
FNDA:5,_ZN3etl14intrusive_listIN6logger15ILoggerListenerENS_18bidirectional_linkILm0EEEE8iteratorC2EPS4_
FNDA:48,_ZN3etl14intrusive_listIN3can17ICANFrameListenerENS_18bidirectional_linkILm0EEEED2Ev
FNDA:3,_ZN3etlneERKNS_14intrusive_listIN6logger15ILoggerListenerENS_18bidirectional_linkILm0EEEE8iteratorES8_
FNDA:8,_ZN3etl14intrusive_listIN3can17ICANFrameListenerENS_18bidirectional_linkILm0EEEE8iteratorC2EPS4_
FNDA:19,_ZN3etleqERKNS_14intrusive_listIN3can17ICANFrameListenerENS_18bidirectional_linkILm0EEEE8iteratorES8_
FNDA:14,_ZN3etl14intrusive_listIN3uds30ICommunicationSubStateListenerENS_18bidirectional_linkILm0EEEE3endEv
FNDA:48,_ZN3etl14intrusive_listIN3can17ICANFrameListenerENS_18bidirectional_linkILm0EEEEC2Ev
FNDA:37,_ZN3etl14intrusive_listIN3uds16IAsyncDiagHelper13StoredRequestENS_18bidirectional_linkILm0EEEED2Ev
FNDA:32,_ZN3etl14intrusive_listIN5docan23DoCanMessageTransmitterIN12_GLOBAL__N_113DataLinkLayerEEENS_18bidirectional_linkILm0EEEE8iteratorppEi
FNDA:531,_ZN3etl14intrusive_listIN5docan20DoCanMessageReceiverIN12_GLOBAL__N_113DataLinkLayerEEENS_18bidirectional_linkILm0EEEE8iteratorppEv
FNDA:719,_ZNK3etl14intrusive_listIN5docan20DoCanMessageReceiverINS1_18DoCanDataLinkLayerIjthLj0EtEEEENS_18bidirectional_linkILm0EEEE8iteratordeEv
FNDA:30,_ZN3etleqERKNS_14intrusive_listIN3uds27IDiagSessionChangedListenerENS_18bidirectional_linkILm0EEEE8iteratorES8_
FNDA:14,_ZN3etlneERKNS_14intrusive_listIN3uds30ICommunicationSubStateListenerENS_18bidirectional_linkILm0EEEE8iteratorES8_
FNDA:1,_ZN3etl14intrusive_listIN5docan23DoCanMessageTransmitterIN12_GLOBAL__N_128SmallFrameIndexDataLinkLayerEEENS_18bidirectional_linkILm0EEEE8iteratoraSERKS9_
FNDA:2,_ZN3etl14intrusive_listIN5docan23DoCanMessageTransmitterINS1_18DoCanDataLinkLayerIjthLj4294967295EtEEEENS_18bidirectional_linkILm0EEEEC2Ev
FNDA:32,_ZN3etl14intrusive_listIN5docan23DoCanMessageTransmitterINS1_18DoCanDataLinkLayerIjthLj0EtEEEENS_18bidirectional_linkILm0EEEEC2Ev
FNDA:0,_ZN3etl14intrusive_listIN3uds29ManagedOutgoingDiagConnectionENS_18bidirectional_linkILm0EEEE5eraseERKS2_
FNDA:35,_ZN3etl14intrusive_listIN5docan23DoCanMessageTransmitterIN12_GLOBAL__N_113DataLinkLayerEEENS_18bidirectional_linkILm0EEEE5frontEv
FNDA:423,_ZN3etl14intrusive_listIN5docan23DoCanMessageTransmitterIN12_GLOBAL__N_113DataLinkLayerEEENS_18bidirectional_linkILm0EEEE8iteratoraSERKS9_
FNDA:57,_ZN3etl14intrusive_listIN3uds29ManagedOutgoingDiagConnectionENS_18bidirectional_linkILm0EEEE3endEv
FNDA:0,_ZN3etl14intrusive_listIN5docan23DoCanMessageTransmitterIN12_GLOBAL__N_128SmallFrameIndexDataLinkLayerEEENS_18bidirectional_linkILm0EEEE5beginEv
FNDA:4502,_ZN3etl14intrusive_listIN5docan20DoCanMessageReceiverIN12_GLOBAL__N_113DataLinkLayerEEENS_18bidirectional_linkILm0EEEE3endEv
FNDA:1381,_ZN3etleqERKNS_14intrusive_listIN5docan23DoCanMessageTransmitterIN12_GLOBAL__N_113DataLinkLayerEEENS_18bidirectional_linkILm0EEEE8iteratorESB_
FNDA:0,_ZNK3etl14intrusive_listIN5docan23DoCanMessageTransmitterINS1_18DoCanDataLinkLayerIjthLj4294967295EtEEEENS_18bidirectional_linkILm0EEEE8iteratordeEv
FNDA:0,_ZN3etl14intrusive_listIN5docan23DoCanMessageTransmitterIN12_GLOBAL__N_128SmallFrameIndexDataLinkLayerEEENS_18bidirectional_linkILm0EEEE8iteratorppEv
FNDA:80,_ZNK3etl19intrusive_list_baseINS_18bidirectional_linkILm0EEEE15is_link_in_listEPKS2_
FNDA:54,_ZNK3etl19intrusive_list_baseINS_18bidirectional_linkILm0EEEE15is_trivial_listEv
FNDA:31,_ZN3etl14intrusive_listIN3uds27IDiagSessionChangedListenerENS_18bidirectional_linkILm0EEEED2Ev
FNDA:0,_ZN3etl14intrusive_listIN5docan23DoCanMessageTransmitterINS1_18DoCanDataLinkLayerIjthLj4294967295EtEEEENS_18bidirectional_linkILm0EEEE8iteratorppEi
FNDA:3,_ZN3etl14intrusive_listIN5docan23DoCanMessageTransmitterINS1_18DoCanDataLinkLayerIjthLj4294967295EtEEEENS_18bidirectional_linkILm0EEEE5beginEv
FNDA:737,_ZN3etl14intrusive_listIN5docan20DoCanMessageReceiverINS1_18DoCanDataLinkLayerIjthLj0EtEEEENS_18bidirectional_linkILm0EEEE3endEv
FNDA:0,_ZNK3etl14intrusive_listIN5docan23DoCanMessageTransmitterIN12_GLOBAL__N_128SmallFrameIndexDataLinkLayerEEENS_18bidirectional_linkILm0EEEE8iteratorptEv
FNDA:425,_ZN3etl19intrusive_list_baseINS_18bidirectional_linkILm0EEEE9push_backERS2_
FNDA:19,_ZN3etlneERKNS_14intrusive_listIN3can17ICANFrameListenerENS_18bidirectional_linkILm0EEEE8iteratorES8_
FNDA:500,_ZN3etl14intrusive_listIN5docan20DoCanMessageReceiverIN12_GLOBAL__N_113DataLinkLayerEEENS_18bidirectional_linkILm0EEEE8iteratorC2ERKS9_
FNDA:737,_ZN3etlneERKNS_14intrusive_listIN5docan20DoCanMessageReceiverINS1_18DoCanDataLinkLayerIjthLj0EtEEEENS_18bidirectional_linkILm0EEEE8iteratorESB_
FNDA:7,_ZN3etl14intrusive_listIN5docan20DoCanMessageReceiverINS1_18DoCanDataLinkLayerIjthLj0EtEEEENS_18bidirectional_linkILm0EEEE8iteratorppEv
FNDA:724,_ZNK3etl14intrusive_listIN5docan20DoCanMessageReceiverINS1_18DoCanDataLinkLayerIjthLj0EtEEEENS_18bidirectional_linkILm0EEEE8iteratorptEv
FNDA:4,_ZN3etl14intrusive_listIN5docan20DoCanMessageReceiverINS1_18DoCanDataLinkLayerIjthLj0EtEEEENS_18bidirectional_linkILm0EEEEC2Ev
FNDA:45,_ZN3etl14intrusive_listIN3uds27IDiagSessionChangedListenerENS_18bidirectional_linkILm0EEEE8iteratorC2EPS4_
FNDA:2,_ZN3etl14intrusive_listIN3uds29ManagedOutgoingDiagConnectionENS_18bidirectional_linkILm0EEEE8iteratorppEv
FNDA:0,_ZN3etl14intrusive_listIN5docan20DoCanMessageReceiverINS1_18DoCanDataLinkLayerIjthLj4294967295EtEEEENS_18bidirectional_linkILm0EEEE8iteratoraSERKS9_
FNDA:737,_ZN3etleqERKNS_14intrusive_listIN5docan20DoCanMessageReceiverINS1_18DoCanDataLinkLayerIjthLj0EtEEEENS_18bidirectional_linkILm0EEEE8iteratorESB_
FNDA:0,_ZN3etl14intrusive_listIN5docan20DoCanMessageReceiverINS1_18DoCanDataLinkLayerIjthLj4294967295EtEEEENS_18bidirectional_linkILm0EEEE4sortEv
FNDA:15,_ZNK3etl14intrusive_listIN3uds27IDiagSessionChangedListenerENS_18bidirectional_linkILm0EEEE8iteratorptEv
FNDA:801,_ZN3etl19intrusive_list_baseINS_18bidirectional_linkILm0EEEE5clearEv
FNDA:0,_ZN3etl14intrusive_listIN5docan23DoCanMessageTransmitterINS1_18DoCanDataLinkLayerIjthLj4294967295EtEEEENS_18bidirectional_linkILm0EEEE8iteratorC2Ev
FNDA:7,_ZN3etl14intrusive_listIN3uds30ICommunicationSubStateListenerENS_18bidirectional_linkILm0EEEE5beginEv
FNDA:799,_ZN3etl19intrusive_list_baseINS_18bidirectional_linkILm0EEEED2Ev
FNDA:38,_ZN3etl14intrusive_listIN3uds30ICommunicationSubStateListenerENS_18bidirectional_linkILm0EEEED2Ev
FNF:213
FNH:176
DA:59,1
DA:60,1
DA:62,1
DA:115,1
DA:116,1
DA:118,1
DA:163,2
DA:165,2
DA:167,2
DA:168,2
DA:173,79
DA:178,79
DA:179,79
DA:184,425
DA:186,425
DA:188,424
DA:189,424
DA:205,801
DA:208,801
DA:210,1059
DA:212,258
DA:213,258
DA:214,258
DA:217,801
DA:218,801
DA:245,551
DA:247,551
DA:253,6
DA:255,6
DA:262,16
DA:264,16
DA:286,799
DA:288,799
DA:293,54
DA:295,54
DA:301,2
DA:304,2
DA:305,2
DA:306,2
DA:311,461
DA:314,461
DA:315,461
DA:316,461
DA:341,82
DA:343,82
DA:344,82
DA:345,82
DA:350,123
DA:352,123
DA:353,123
DA:354,123
DA:359,4697
DA:361,4697
DA:391,1600
DA:393,1600
DA:394,1600
DA:395,1600
DA:400,80
DA:402,80
DA:404,95
DA:406,63
DA:408,48
DA:411,15
DA:414,32
DA:421,64
DA:423,64
DA:425,64
DA:427,44
DA:429,44
DA:431,44
DA:433,4
DA:437,64
DA:501,270
DA:502,270
DA:504,270
DA:506,929
DA:507,929
DA:509,929
DA:511,1078
DA:514,1078
DA:515,1078
DA:518,448
DA:520,448
DA:522,448
DA:523,448
DA:541,1857
DA:543,1857
DA:544,1857
DA:547,2553
DA:550,2553
DA:559,4434
DA:561,4434
DA:564,6778
DA:566,6778
DA:569,5344
DA:571,5344
DA:576,11547
DA:577,11547
DA:579,11547
DA:598,37
DA:599,37
DA:601,37
DA:684,799
DA:685,799
DA:686,799
DA:687,799
DA:692,799
DA:694,799
DA:695,799
DA:727,4539
DA:729,4539
DA:751,6971
DA:753,6971
DA:775,79
DA:777,79
DA:807,37
DA:809,37
DA:810,37
DA:830,82
DA:832,82
DA:833,82
DA:835,82
DA:837,82
DA:882,64
DA:884,64
DA:928,54
DA:930,54
DA:931,54
DA:959,54
DA:961,54
DA:962,54
DA:963,54
DA:964,54
DA:965,54
DA:966,54
DA:971,54
DA:973,24
DA:976,43
DA:978,73
DA:979,73
DA:980,73
DA:982,73
DA:984,224
DA:986,151
DA:987,151
DA:988,151
DA:991,401
DA:993,276
DA:994,276
DA:996,276
DA:998,26
DA:1003,151
DA:1006,612
DA:1009,461
DA:1012,172
DA:1013,172
DA:1015,289
DA:1018,48
DA:1019,48
DA:1021,241
DA:1024,228
DA:1025,228
DA:1030,13
DA:1031,13
DA:1032,13
DA:1036,461
DA:1038,73
DA:1039,73
DA:1040,73
DA:1044,388
DA:1045,388
DA:1048,461
DA:1052,151
DA:1056,73
DA:1058,30
DA:1062,43
LF:176
LH:176
end_of_record
TN:
SF:/home/jenkins/libs/3rdparty/etl/include/etl/ipool.h
FN:55,_ZN3etl14pool_exceptionC2EPKcS2_i
FN:68,_ZN3etl18pool_no_allocationC2EPKci
FN:81,_ZN3etl23pool_object_not_in_poolC2EPKci
FN:94,_ZN3etl17pool_element_sizeC2EPKci
FN:114,_ZNK3etl5ipool10buffer_endEv
FN:124,_ZNK3etl5ipool39is_pointing_into_pool_or_end_or_nullptrEPKc
FN:132,_ZNK3etl5ipool15is_in_free_listEPKc
FN:166,_ZN3etl5ipool14ipool_iteratorILb0EEC2ERKS2_
FN:174,_ZN3etl5ipool14ipool_iteratorILb0EEppEv
FN:199,_ZNK3etl5ipool14ipool_iteratorILb0EEdeEv
FN:206,_ZNK3etl5ipool14ipool_iteratorILb0EE3getIN3uds22IncomingDiagConnectionEEERT_v
FN:212,_ZN3etleqERKNS_5ipool14ipool_iteratorILb0EEES4_
FN:218,_ZN3etlneERKNS_5ipool14ipool_iteratorILb0EEES4_
FN:229,_ZN3etl5ipool14ipool_iteratorILb0EE14find_allocatedEv
FN:249,_ZN3etl5ipool14ipool_iteratorILb0EEC2EPcPS0_
FN:275,_ZN3etl5ipool5beginEv
FN:281,_ZN3etl5ipool3endEv
FN:316,_ZN3etl5ipool8allocateIN5docan23DoCanMessageTransmitterIN12_GLOBAL__N_113DataLinkLayerEEEEEPT_v
FN:316,_ZN3etl5ipool8allocateIN3uds16IAsyncDiagHelper13StoredRequestEEEPT_v
FN:316,_ZN3etl5ipool8allocateIN5docan23DoCanMessageTransmitterIN12_GLOBAL__N_128SmallFrameIndexDataLinkLayerEEEEEPT_v
FN:316,_ZN3etl5ipool8allocateIN5docan23DoCanMessageTransmitterINS2_18DoCanDataLinkLayerIjthLj4294967295EtEEEEEEPT_v
FN:316,_ZN3etl5ipool8allocateIN5docan20DoCanMessageReceiverIN12_GLOBAL__N_113DataLinkLayerEEEEEPT_v
FN:316,_ZN3etl5ipool8allocateIN5docan20DoCanMessageReceiverINS2_18DoCanDataLinkLayerIjthLj0EtEEEEEEPT_v
FN:316,_ZN3etl5ipool8allocateIN5docan20DoCanMessageReceiverINS2_18DoCanDataLinkLayerIjthLj4294967295EtEEEEEEPT_v
FN:316,_ZN3etl5ipool8allocateIN5docan23DoCanMessageTransmitterINS2_18DoCanDataLinkLayerIjthLj0EtEEEEEEPT_v
FN:316,_ZN3etl5ipool8allocateIN3uds22IncomingDiagConnectionEEEPT_v
FN:406,_ZN3etl5ipool6createIN3uds22IncomingDiagConnectionEJKhEEEPT_DpOT0_
FN:406,_ZN3etl5ipool6createIN3uds16IAsyncDiagHelper13StoredRequestEJRNS2_22IncomingDiagConnectionEPKhtEEEPT_DpOT0_
FN:442,_ZN3etl5ipool7releaseEPKv
FN:451,_ZN3etl5ipool11release_allEv
FN:472,_ZNK3etl5ipool8max_sizeEv
FN:480,_ZNK3etl5ipool13max_item_sizeEv
FN:504,_ZNK3etl5ipool4sizeEv
FN:513,_ZNK3etl5ipool5emptyEv
FN:522,_ZNK3etl5ipool4fullEv
FN:532,_ZN3etl5ipoolC2EPcjj
FN:549,_ZN3etl5ipool13allocate_itemEv
FN:596,_ZN3etl5ipool12release_itemEPc
FN:619,_ZNK3etl5ipool15is_item_in_poolEPKc
FN:659,_ZN3etl5ipoolD2Ev
FNDA:88,_ZN3etl5ipool12release_itemEPc
FNDA:36,_ZN3etl5ipool8allocateIN5docan23DoCanMessageTransmitterIN12_GLOBAL__N_113DataLinkLayerEEEEEPT_v
FNDA:48,_ZN3etl5ipool3endEv
FNDA:48,_ZN3etleqERKNS_5ipool14ipool_iteratorILb0EEES4_
FNDA:176,_ZN3etl5ipoolD2Ev
FNDA:72,_ZN3etl5ipool14ipool_iteratorILb0EEC2EPcPS0_
FNDA:5,_ZNK3etl5ipool14ipool_iteratorILb0EE3getIN3uds22IncomingDiagConnectionEEERT_v
FNDA:3,_ZN3etl5ipool8allocateIN3uds16IAsyncDiagHelper13StoredRequestEEEPT_v
FNDA:24,_ZN3etl5ipool14ipool_iteratorILb0EEC2ERKS2_
FNDA:0,_ZN3etl5ipool8allocateIN5docan23DoCanMessageTransmitterIN12_GLOBAL__N_128SmallFrameIndexDataLinkLayerEEEEEPT_v
FNDA:10,_ZN3etl5ipool6createIN3uds22IncomingDiagConnectionEJKhEEEPT_DpOT0_
FNDA:0,_ZN3etl5ipool14ipool_iteratorILb0EEppEv
FNDA:176,_ZN3etl5ipoolC2EPcjj
FNDA:0,_ZN3etl18pool_no_allocationC2EPKci
FNDA:96,_ZN3etl5ipool14ipool_iteratorILb0EE14find_allocatedEv
FNDA:0,_ZN3etl5ipool8allocateIN5docan23DoCanMessageTransmitterINS2_18DoCanDataLinkLayerIjthLj4294967295EtEEEEEEPT_v
FNDA:10,_ZNK3etl5ipool39is_pointing_into_pool_or_end_or_nullptrEPKc
FNDA:97,_ZN3etl5ipool13allocate_itemEv
FNDA:4,_ZNK3etl5ipool8max_sizeEv
FNDA:43,_ZN3etl5ipool8allocateIN5docan20DoCanMessageReceiverIN12_GLOBAL__N_113DataLinkLayerEEEEEPT_v
FNDA:87,_ZNK3etl5ipool13max_item_sizeEv
FNDA:0,_ZN3etl23pool_object_not_in_poolC2EPKci
FNDA:3,_ZN3etl5ipool8allocateIN5docan20DoCanMessageReceiverINS2_18DoCanDataLinkLayerIjthLj0EtEEEEEEPT_v
FNDA:0,_ZN3etl5ipool8allocateIN5docan20DoCanMessageReceiverINS2_18DoCanDataLinkLayerIjthLj4294967295EtEEEEEEPT_v
FNDA:0,_ZN3etl17pool_element_sizeC2EPKci
FNDA:2,_ZN3etl5ipool11release_allEv
FNDA:2,_ZN3etl5ipool8allocateIN5docan23DoCanMessageTransmitterINS2_18DoCanDataLinkLayerIjthLj0EtEEEEEEPT_v
FNDA:96,_ZNK3etl5ipool10buffer_endEv
FNDA:46,_ZNK3etl5ipool5emptyEv
FNDA:10,_ZN3etl5ipool8allocateIN3uds22IncomingDiagConnectionEEEPT_v
FNDA:2,_ZNK3etl5ipool4sizeEv
FNDA:0,_ZNK3etl5ipool15is_in_free_listEPKc
FNDA:106,_ZNK3etl5ipool4fullEv
FNDA:88,_ZNK3etl5ipool15is_item_in_poolEPKc
FNDA:5,_ZNK3etl5ipool14ipool_iteratorILb0EEdeEv
FNDA:0,_ZN3etl14pool_exceptionC2EPKcS2_i
FNDA:3,_ZN3etl5ipool6createIN3uds16IAsyncDiagHelper13StoredRequestEJRNS2_22IncomingDiagConnectionEPKhtEEEPT_DpOT0_
FNDA:88,_ZN3etl5ipool7releaseEPKv
FNDA:24,_ZN3etl5ipool5beginEv
FNDA:24,_ZN3etlneERKNS_5ipool14ipool_iteratorILb0EEES4_
FNF:40
FNH:31
DA:55,0
DA:56,0
DA:57,0
DA:68,0
DA:69,0
DA:70,0
DA:81,0
DA:82,0
DA:83,0
DA:94,0
DA:95,0
DA:96,0
DA:114,96
DA:116,96
DA:124,10
DA:126,10
DA:132,0
DA:134,0
DA:135,0
DA:137,0
DA:139,0
DA:141,0
DA:143,0
DA:166,24
DA:167,24
DA:168,24
DA:170,24
DA:171,24
DA:174,0
DA:176,0
DA:177,0
DA:178,0
DA:199,5
DA:201,5
DA:206,5
DA:208,5
DA:212,48
DA:214,48
DA:218,24
DA:220,24
DA:229,96
DA:231,96
DA:233,10
DA:234,10
DA:236,10
DA:238,0
DA:240,0
DA:242,0
DA:249,72
DA:250,72
DA:251,72
DA:253,72
DA:254,72
DA:275,24
DA:277,24
DA:281,48
DA:283,48
DA:316,97
DA:318,97
DA:320,0
DA:323,97
DA:406,13
DA:408,13
DA:410,13
DA:412,13
DA:415,13
DA:442,88
DA:444,88
DA:445,88
DA:446,88
DA:451,2
DA:453,2
DA:454,2
DA:455,2
DA:456,2
DA:472,4
DA:474,4
DA:480,87
DA:482,87
DA:504,2
DA:506,2
DA:513,46
DA:515,46
DA:522,106
DA:524,106
DA:532,176
DA:533,176
DA:534,176
DA:535,176
DA:536,176
DA:537,176
DA:538,176
DA:540,176
DA:549,97
DA:551,97
DA:554,97
DA:557,97
DA:559,88
DA:560,88
DA:561,88
DA:562,88
DA:566,97
DA:568,97
DA:569,97
DA:572,79
DA:577,18
DA:583,97
DA:587,0
DA:590,97
DA:596,88
DA:599,88
DA:601,88
DA:604,88
DA:606,88
DA:608,88
DA:612,0
DA:614,88
DA:619,88
DA:622,88
DA:623,88
DA:630,88
DA:633,88
DA:659,176
DA:661,176
LF:124
LH:95
end_of_record
TN:
SF:/home/jenkins/libs/3rdparty/etl/include/etl/iterator.h
FN:133,_ZN3etl14advance_helperIPKN7storage13MappingConfigElEEvRT_T0_NS_26random_access_iterator_tagE
FN:139,_ZN3etl7advanceIPKN7storage13MappingConfigElEEvRT_T0_
FN:191,_ZN3etl15distance_helperIPhEENS_15iterator_traitsIT_NS_9enable_ifIXntsrNS_14is_fundamentalIS3_EE5valueEvE4typeEE15difference_typeES3_S3_NS_26random_access_iterator_tagE
FN:191,_ZN3etl15distance_helperIPKN7storage13MappingConfigEEENS_15iterator_traitsIT_NS_9enable_ifIXntsrNS_14is_fundamentalIS6_EE5valueEvE4typeEE15difference_typeES6_S6_NS_26random_access_iterator_tagE
FN:191,_ZN3etl15distance_helperIPKhEENS_15iterator_traitsIT_NS_9enable_ifIXntsrNS_14is_fundamentalIS4_EE5valueEvE4typeEE15difference_typeES4_S4_NS_26random_access_iterator_tagE
FN:191,_ZN3etl15distance_helperIPcEENS_15iterator_traitsIT_NS_9enable_ifIXntsrNS_14is_fundamentalIS3_EE5valueEvE4typeEE15difference_typeES3_S3_NS_26random_access_iterator_tagE
FN:191,_ZN3etl15distance_helperIPVcEENS_15iterator_traitsIT_NS_9enable_ifIXntsrNS_14is_fundamentalIS4_EE5valueEvE4typeEE15difference_typeES4_S4_NS_26random_access_iterator_tagE
FN:197,_ZN3etl8distanceIPcEENS_15iterator_traitsIT_NS_9enable_ifIXntsrNS_14is_fundamentalIS3_EE5valueEvE4typeEE15difference_typeES3_S3_
FN:197,_ZN3etl8distanceIPhEENS_15iterator_traitsIT_NS_9enable_ifIXntsrNS_14is_fundamentalIS3_EE5valueEvE4typeEE15difference_typeES3_S3_
FN:197,_ZN3etl8distanceIPKN7storage13MappingConfigEEENS_15iterator_traitsIT_NS_9enable_ifIXntsrNS_14is_fundamentalIS6_EE5valueEvE4typeEE15difference_typeES6_S6_
FN:197,_ZN3etl8distanceIPVcEENS_15iterator_traitsIT_NS_9enable_ifIXntsrNS_14is_fundamentalIS4_EE5valueEvE4typeEE15difference_typeES4_S4_
FN:197,_ZN3etl8distanceIPKhEENS_15iterator_traitsIT_NS_9enable_ifIXntsrNS_14is_fundamentalIS4_EE5valueEvE4typeEE15difference_typeES4_S4_
FNDA:106,_ZN3etl7advanceIPKN7storage13MappingConfigElEEvRT_T0_
FNDA:33,_ZN3etl15distance_helperIPKN7storage13MappingConfigEEENS_15iterator_traitsIT_NS_9enable_ifIXntsrNS_14is_fundamentalIS6_EE5valueEvE4typeEE15difference_typeES6_S6_NS_26random_access_iterator_tagE
FNDA:7346,_ZN3etl15distance_helperIPhEENS_15iterator_traitsIT_NS_9enable_ifIXntsrNS_14is_fundamentalIS3_EE5valueEvE4typeEE15difference_typeES3_S3_NS_26random_access_iterator_tagE
FNDA:0,_ZN3etl8distanceIPVcEENS_15iterator_traitsIT_NS_9enable_ifIXntsrNS_14is_fundamentalIS4_EE5valueEvE4typeEE15difference_typeES4_S4_
FNDA:33,_ZN3etl8distanceIPKN7storage13MappingConfigEEENS_15iterator_traitsIT_NS_9enable_ifIXntsrNS_14is_fundamentalIS6_EE5valueEvE4typeEE15difference_typeES6_S6_
FNDA:80,_ZN3etl8distanceIPKhEENS_15iterator_traitsIT_NS_9enable_ifIXntsrNS_14is_fundamentalIS4_EE5valueEvE4typeEE15difference_typeES4_S4_
FNDA:7346,_ZN3etl8distanceIPhEENS_15iterator_traitsIT_NS_9enable_ifIXntsrNS_14is_fundamentalIS3_EE5valueEvE4typeEE15difference_typeES3_S3_
FNDA:1996,_ZN3etl8distanceIPcEENS_15iterator_traitsIT_NS_9enable_ifIXntsrNS_14is_fundamentalIS3_EE5valueEvE4typeEE15difference_typeES3_S3_
FNDA:106,_ZN3etl14advance_helperIPKN7storage13MappingConfigElEEvRT_T0_NS_26random_access_iterator_tagE
FNDA:0,_ZN3etl15distance_helperIPVcEENS_15iterator_traitsIT_NS_9enable_ifIXntsrNS_14is_fundamentalIS4_EE5valueEvE4typeEE15difference_typeES4_S4_NS_26random_access_iterator_tagE
FNDA:1996,_ZN3etl15distance_helperIPcEENS_15iterator_traitsIT_NS_9enable_ifIXntsrNS_14is_fundamentalIS3_EE5valueEvE4typeEE15difference_typeES3_S3_NS_26random_access_iterator_tagE
FNDA:80,_ZN3etl15distance_helperIPKhEENS_15iterator_traitsIT_NS_9enable_ifIXntsrNS_14is_fundamentalIS4_EE5valueEvE4typeEE15difference_typeES4_S4_NS_26random_access_iterator_tagE
FNF:12
FNH:10
DA:133,106
DA:135,106
DA:136,106
DA:139,106
DA:143,106
DA:144,106
DA:191,9455
DA:193,9455
DA:197,9455
DA:201,9455
LF:10
LH:10
end_of_record
TN:
SF:/home/jenkins/libs/3rdparty/etl/include/etl/limits.h
FN:825,_ZN3etl14numeric_limitsIhE3maxEv
FN:964,_ZN3etl14numeric_limitsItE3maxEv
FN:1002,_ZN3etl14numeric_limitsIjE3maxEv
FNDA:1,_ZN3etl14numeric_limitsIhE3maxEv
FNDA:9,_ZN3etl14numeric_limitsIjE3maxEv
FNDA:793,_ZN3etl14numeric_limitsItE3maxEv
FNF:3
FNH:3
DA:825,1
DA:964,793
DA:1002,9
LF:3
LH:3
end_of_record
TN:
SF:/home/jenkins/libs/3rdparty/etl/include/etl/memory.h
FN:62,_ZN3etl10to_addressIN4util6memory18BuddyMemoryManager13AcquireResultEEEPT_S6_
FN:62,_ZN3etl10to_addressIN2io17MemoryQueueReaderINS1_11MemoryQueueILm20ELm8EtEEEEEEPT_S7_
FN:62,_ZN3etl10to_addressImEEPT_S2_
FN:62,_ZN3etl10to_addressIcEEPT_S2_
FN:62,_ZN3etl10to_addressIN12_GLOBAL__N_11AEEEPT_S4_
FN:62,_ZN3etl10to_addressIN2io11MemoryQueueILm20ELm8EtEEEEPT_S5_
FN:62,_ZN3etl10to_addressIN12_GLOBAL__N_11BEEEPT_S4_
FN:62,_ZN3etl10to_addressIN2io17MemoryQueueWriterINS1_11MemoryQueueILm20ELm8EtEEEEEEPT_S7_
FN:62,_ZN3etl10to_addressIKhEEPT_S3_
FN:62,_ZN3etl10to_addressIhEEPT_S2_
FN:62,_ZN3etl10to_addressIN12_GLOBAL__N_11CEEEPT_S4_
FN:62,_ZN3etl10to_addressIN5docan19DoCanTransportLayerINS1_18DoCanDataLinkLayerIjthLj0EtEEEEEEPT_S7_
FN:62,_ZN3etl10to_addressIKcEEPT_S3_
FN:62,_ZN3etl10to_addressIN9lifecycle16LifecycleManager27ComponentTransitionExecutorEEEPT_S5_
FN:62,_ZN3etl10to_addressIN5docan27DoCanPhysicalCanTransceiverINS1_21DoCanNormalAddressingIthtEEEEEEPT_S7_
FN:62,_ZN3etl10to_addressIKN5docan39DoCanNormalAddressingFilterAddressEntryINS1_18DoCanDataLinkLayerIjthLj4294967295EtEEEEEEPT_S8_
FN:116,_ZN3etl18uninitialized_fillIPhhEENS_9enable_ifIXsrNS_26is_trivially_constructibleINS_15iterator_traitsIT_NS2_IXntsrNS_14is_fundamentalIS5_EE5valueEvE4typeEE10value_typeEEE5valueES5_E4typeES5_S5_RKT0_
FN:210,_ZN3etl20uninitialized_fill_nIPhmhEET_S2_T0_RKT1_
FN:966,_ZN3etl12construct_atIN9transport14LogicalAddressEJRKS2_EEEPT_S6_DpOT0_
FN:966,_ZN3etl12construct_atIN2io11SplitWriterILm8EEEJRA8_PNS1_7IWriterEEEEPT_S9_DpOT0_
FN:966,_ZN3etl12construct_atINS_5arrayINS_6stringILm16EEELm5EEEJEEEPT_S6_DpOT0_
FN:966,_ZN3etl12construct_atIN2io10JoinReaderILm8EEEJRA8_PNS1_7IReaderEEEEPT_S9_DpOT0_
FN:1038,_ZN3etl10destroy_atIN4util6memory18BuddyMemoryManager13AcquireResultEEENS_9enable_ifIXntsrNS_25is_trivially_destructibleIT_EE5valueEvE4typeEPS7_
FN:1038,_ZN3etl10destroy_atIN2io17MemoryQueueReaderINS1_11MemoryQueueILm20ELm8EtEEEEEENS_9enable_ifIXntsrNS_25is_trivially_destructibleIT_EE5valueEvE4typeEPS8_
FN:1038,_ZN3etl10destroy_atIN2io11SplitWriterILm8EEEEENS_9enable_ifIXntsrNS_25is_trivially_destructibleIT_EE5valueEvE4typeEPS6_
FN:1038,_ZN3etl10destroy_atIN2io17MemoryQueueWriterINS1_11MemoryQueueILm20ELm8EtEEEEEENS_9enable_ifIXntsrNS_25is_trivially_destructibleIT_EE5valueEvE4typeEPS8_
FN:1038,_ZN3etl10destroy_atINS_5arrayINS_6stringILm16EEELm5EEEEENS_9enable_ifIXntsrNS_25is_trivially_destructibleIT_EE5valueEvE4typeEPS7_
FN:1038,_ZN3etl10destroy_atIN5docan19DoCanTransportLayerINS1_18DoCanDataLinkLayerIjthLj0EtEEEEEENS_9enable_ifIXntsrNS_25is_trivially_destructibleIT_EE5valueEvE4typeEPS8_
FN:1038,_ZN3etl10destroy_atIN9transport14LogicalAddressEEENS_9enable_ifIXntsrNS_25is_trivially_destructibleIT_EE5valueEvE4typeEPS5_
FN:1038,_ZN3etl10destroy_atIN2io10JoinReaderILm8EEEEENS_9enable_ifIXntsrNS_25is_trivially_destructibleIT_EE5valueEvE4typeEPS6_
FN:1038,_ZN3etl10destroy_atIN9lifecycle16LifecycleManager27ComponentTransitionExecutorEEENS_9enable_ifIXntsrNS_25is_trivially_destructibleIT_EE5valueEvE4typeEPS6_
FN:1038,_ZN3etl10destroy_atIN2io11MemoryQueueILm20ELm8EtEEEENS_9enable_ifIXntsrNS_25is_trivially_destructibleIT_EE5valueEvE4typeEPS6_
FN:1038,_ZN3etl10destroy_atIN5docan27DoCanPhysicalCanTransceiverINS1_21DoCanNormalAddressingIthtEEEEEENS_9enable_ifIXntsrNS_25is_trivially_destructibleIT_EE5valueEvE4typeEPS8_
FN:1115,_ZN3etl7destroyIPN4util6memory18BuddyMemoryManager13AcquireResultEEENS_9enable_ifIXntsrNS_25is_trivially_destructibleINS_15iterator_traitsIT_NS6_IXntsrNS_14is_fundamentalIS9_EE5valueEvE4typeEE10value_typeEEE5valueEvE4typeES9_S9_
FN:1115,_ZN3etl7destroyIPN2io17MemoryQueueWriterINS1_11MemoryQueueILm20ELm8EtEEEEEENS_9enable_ifIXntsrNS_25is_trivially_destructibleINS_15iterator_traitsIT_NS7_IXntsrNS_14is_fundamentalISA_EE5valueEvE4typeEE10value_typeEEE5valueEvE4typeESA_SA_
FN:1115,_ZN3etl7destroyIPN9lifecycle16LifecycleManager27ComponentTransitionExecutorEEENS_9enable_ifIXntsrNS_25is_trivially_destructibleINS_15iterator_traitsIT_NS5_IXntsrNS_14is_fundamentalIS8_EE5valueEvE4typeEE10value_typeEEE5valueEvE4typeES8_S8_
FN:1115,_ZN3etl7destroyIPN5docan19DoCanTransportLayerINS1_18DoCanDataLinkLayerIjthLj0EtEEEEEENS_9enable_ifIXntsrNS_25is_trivially_destructibleINS_15iterator_traitsIT_NS7_IXntsrNS_14is_fundamentalISA_EE5valueEvE4typeEE10value_typeEEE5valueEvE4typeESA_SA_
FN:1115,_ZN3etl7destroyIPN2io11MemoryQueueILm20ELm8EtEEEENS_9enable_ifIXntsrNS_25is_trivially_destructibleINS_15iterator_traitsIT_NS5_IXntsrNS_14is_fundamentalIS8_EE5valueEvE4typeEE10value_typeEEE5valueEvE4typeES8_S8_
FN:1115,_ZN3etl7destroyIPN5docan27DoCanPhysicalCanTransceiverINS1_21DoCanNormalAddressingIthtEEEEEENS_9enable_ifIXntsrNS_25is_trivially_destructibleINS_15iterator_traitsIT_NS7_IXntsrNS_14is_fundamentalISA_EE5valueEvE4typeEE10value_typeEEE5valueEvE4typeESA_SA_
FN:1115,_ZN3etl7destroyIPN2io17MemoryQueueReaderINS1_11MemoryQueueILm20ELm8EtEEEEEENS_9enable_ifIXntsrNS_25is_trivially_destructibleINS_15iterator_traitsIT_NS7_IXntsrNS_14is_fundamentalISA_EE5valueEvE4typeEE10value_typeEEE5valueEvE4typeESA_SA_
FN:1190,_ZN3etl9destroy_nIPhmEENS_9enable_ifIXsrNS_25is_trivially_destructibleINS_15iterator_traitsIT_NS2_IXntsrNS_14is_fundamentalIS5_EE5valueEvE4typeEE10value_typeEEE5valueES5_E4typeES5_T0_
FN:1826,_ZN3etl14create_copy_atIN4util6memory18BuddyMemoryManager13AcquireResultEEEvPT_RKS5_
FN:1826,_ZN3etl14create_copy_atIhEEvPT_RKS1_
FN:1990,_ZN3etl12memory_clearEPVcm
FN:2018,_ZN3etl18memory_clear_rangeIcEEvPVT_m
FN:2031,_ZN3etl18memory_clear_rangeIcEEvPVT_S3_
FN:2143,_ZN3etl20uninitialized_bufferILm24ELm1ELm8EEcvPT_IN7storage10StorageJob4Type5WriteEEEv
FN:2143,_ZN3etl20uninitialized_bufferILm1ELm1ELm1EEcvPT_IKcEEv
FN:2143,_ZN3etl20uninitialized_bufferILm24ELm1ELm8EEcvPT_IcEEv
FN:2143,_ZN3etl20uninitialized_bufferILm1ELm1ELm1EEcvPT_IcEEv
FN:2143,_ZN3etl20uninitialized_bufferILm6ELm1ELm1EEcvPT_IcEEv
FN:2143,_ZN3etl20uninitialized_bufferILm24ELm1ELm8EEcvPT_IN7storage10StorageJob4Type4ReadEEEv
FN:2151,_ZNK3etl20uninitialized_bufferILm6ELm1ELm1EEcvPKT_IN12_GLOBAL__N_11AEEEv
FN:2151,_ZNK3etl20uninitialized_bufferILm6ELm1ELm1EEcvPKT_IN12_GLOBAL__N_11BEEEv
FN:2151,_ZNK3etl20uninitialized_bufferILm1ELm1ELm1EEcvPKT_IcEEv
FN:2314,_ZN3etl8mem_copyIhEEPT_PKS1_mS2_
FN:2364,_ZN3etl8mem_moveIcEEPT_PKS1_mS2_
FN:2445,_ZN3etl7mem_setIPhhEENS_9enable_ifIXaaaaaasrNS_10is_pointerIT_EE5valuentsrNS_8is_constIS4_EE5valuesrNS_11is_integralIT0_EE5valueeqstS9_Li1EES4_E4typeES4_S4_S9_
FN:2474,_ZN3etl7mem_setIPhhEENS_9enable_ifIXaaaaaasrNS_10is_pointerIT_EE5valuentsrNS_8is_constIS4_EE5valuesrNS_11is_integralIT0_EE5valueeqstS9_Li1EES4_E4typeES4_mS9_
FNDA:79,_ZN3etl20uninitialized_bufferILm24ELm1ELm8EEcvPT_IN7storage10StorageJob4Type4ReadEEEv
FNDA:8,_ZN3etl10to_addressIN12_GLOBAL__N_11CEEEPT_S4_
FNDA:32,_ZN3etl7destroyIPN2io11MemoryQueueILm20ELm8EtEEEENS_9enable_ifIXntsrNS_25is_trivially_destructibleINS_15iterator_traitsIT_NS5_IXntsrNS_14is_fundamentalIS8_EE5valueEvE4typeEE10value_typeEEE5valueEvE4typeES8_S8_
FNDA:53,_ZN3etl10destroy_atIN9lifecycle16LifecycleManager27ComponentTransitionExecutorEEENS_9enable_ifIXntsrNS_25is_trivially_destructibleIT_EE5valueEvE4typeEPS6_
FNDA:0,_ZN3etl18memory_clear_rangeIcEEvPVT_m
FNDA:8,_ZN3etl10destroy_atIN9transport14LogicalAddressEEENS_9enable_ifIXntsrNS_25is_trivially_destructibleIT_EE5valueEvE4typeEPS5_
FNDA:6,_ZN3etl10destroy_atIN2io10JoinReaderILm8EEEEENS_9enable_ifIXntsrNS_25is_trivially_destructibleIT_EE5valueEvE4typeEPS6_
FNDA:2,_ZN3etl7destroyIPN5docan27DoCanPhysicalCanTransceiverINS1_21DoCanNormalAddressingIthtEEEEEENS_9enable_ifIXntsrNS_25is_trivially_destructibleINS_15iterator_traitsIT_NS7_IXntsrNS_14is_fundamentalISA_EE5valueEvE4typeEE10value_typeEEE5valueEvE4typeESA_SA_
FNDA:1,_ZN3etl20uninitialized_fill_nIPhmhEET_S2_T0_RKT1_
FNDA:2,_ZN3etl10to_addressIN5docan19DoCanTransportLayerINS1_18DoCanDataLinkLayerIjthLj0EtEEEEEEPT_S7_
FNDA:9752,_ZN3etl10to_addressIKhEEPT_S3_
FNDA:29,_ZN3etl7destroyIPN9lifecycle16LifecycleManager27ComponentTransitionExecutorEEENS_9enable_ifIXntsrNS_25is_trivially_destructibleINS_15iterator_traitsIT_NS5_IXntsrNS_14is_fundamentalIS8_EE5valueEvE4typeEE10value_typeEEE5valueEvE4typeES8_S8_
FNDA:1,_ZN3etl7mem_setIPhhEENS_9enable_ifIXaaaaaasrNS_10is_pointerIT_EE5valuentsrNS_8is_constIS4_EE5valuesrNS_11is_integralIT0_EE5valueeqstS9_Li1EES4_E4typeES4_S4_S9_
FNDA:29214,_ZN3etl10to_addressIhEEPT_S2_
FNDA:2,_ZN3etl7destroyIPN5docan19DoCanTransportLayerINS1_18DoCanDataLinkLayerIjthLj0EtEEEEEENS_9enable_ifIXntsrNS_25is_trivially_destructibleINS_15iterator_traitsIT_NS7_IXntsrNS_14is_fundamentalISA_EE5valueEvE4typeEE10value_typeEEE5valueEvE4typeESA_SA_
FNDA:85,_ZN3etl14create_copy_atIhEEvPT_RKS1_
FNDA:0,_ZN3etl12memory_clearEPVcm
FNDA:32,_ZN3etl7destroyIPN2io17MemoryQueueReaderINS1_11MemoryQueueILm20ELm8EtEEEEEENS_9enable_ifIXntsrNS_25is_trivially_destructibleINS_15iterator_traitsIT_NS7_IXntsrNS_14is_fundamentalISA_EE5valueEvE4typeEE10value_typeEEE5valueEvE4typeESA_SA_
FNDA:26,_ZN3etl10to_addressIKN5docan39DoCanNormalAddressingFilterAddressEntryINS1_18DoCanDataLinkLayerIjthLj4294967295EtEEEEEEPT_S8_
FNDA:2,_ZN3etl10to_addressIN5docan27DoCanPhysicalCanTransceiverINS1_21DoCanNormalAddressingIthtEEEEEEPT_S7_
FNDA:128,_ZN3etl10destroy_atIN2io11MemoryQueueILm20ELm8EtEEEENS_9enable_ifIXntsrNS_25is_trivially_destructibleIT_EE5valueEvE4typeEPS6_
FNDA:153,_ZNK3etl20uninitialized_bufferILm1ELm1ELm1EEcvPKT_IcEEv
FNDA:1328,_ZN3etl10to_addressIKcEEPT_S3_
FNDA:18,_ZN3etl14create_copy_atIN4util6memory18BuddyMemoryManager13AcquireResultEEEvPT_RKS5_
FNDA:53,_ZN3etl10to_addressIN9lifecycle16LifecycleManager27ComponentTransitionExecutorEEEPT_S5_
FNDA:874,_ZN3etl8mem_copyIhEEPT_PKS1_mS2_
FNDA:1,_ZN3etl12construct_atINS_5arrayINS_6stringILm16EEELm5EEEJEEEPT_S6_DpOT0_
FNDA:2,_ZN3etl10destroy_atIN5docan27DoCanPhysicalCanTransceiverINS1_21DoCanNormalAddressingIthtEEEEEENS_9enable_ifIXntsrNS_25is_trivially_destructibleIT_EE5valueEvE4typeEPS8_
FNDA:6,_ZN3etl12construct_atIN2io10JoinReaderILm8EEEJRA8_PNS1_7IReaderEEEEPT_S9_DpOT0_
FNDA:1,_ZN3etl18uninitialized_fillIPhhEENS_9enable_ifIXsrNS_26is_trivially_constructibleINS_15iterator_traitsIT_NS2_IXntsrNS_14is_fundamentalIS5_EE5valueEvE4typeEE10value_typeEEE5valueES5_E4typeES5_S5_RKT0_
FNDA:8,_ZN3etl12construct_atIN9transport14LogicalAddressEJRKS2_EEEPT_S6_DpOT0_
FNDA:128,_ZN3etl10to_addressIN2io17MemoryQueueReaderINS1_11MemoryQueueILm20ELm8EtEEEEEEPT_S7_
FNDA:0,_ZN3etl18memory_clear_rangeIcEEvPVT_S3_
FNDA:252,_ZN3etl20uninitialized_bufferILm24ELm1ELm8EEcvPT_IcEEv
FNDA:38,_ZN3etl10to_addressImEEPT_S2_
FNDA:1195,_ZN3etl7mem_setIPhhEENS_9enable_ifIXaaaaaasrNS_10is_pointerIT_EE5valuentsrNS_8is_constIS4_EE5valuesrNS_11is_integralIT0_EE5valueeqstS9_Li1EES4_E4typeES4_mS9_
FNDA:128,_ZN3etl10destroy_atIN2io17MemoryQueueReaderINS1_11MemoryQueueILm20ELm8EtEEEEEENS_9enable_ifIXntsrNS_25is_trivially_destructibleIT_EE5valueEvE4typeEPS8_
FNDA:10,_ZN3etl10destroy_atIN2io11SplitWriterILm8EEEEENS_9enable_ifIXntsrNS_25is_trivially_destructibleIT_EE5valueEvE4typeEPS6_
FNDA:18,_ZN3etl10destroy_atIN4util6memory18BuddyMemoryManager13AcquireResultEEENS_9enable_ifIXntsrNS_25is_trivially_destructibleIT_EE5valueEvE4typeEPS7_
FNDA:58,_ZN3etl20uninitialized_bufferILm24ELm1ELm8EEcvPT_IN7storage10StorageJob4Type5WriteEEEv
FNDA:18,_ZN3etl10to_addressIN4util6memory18BuddyMemoryManager13AcquireResultEEEPT_S6_
FNDA:3,_ZNK3etl20uninitialized_bufferILm6ELm1ELm1EEcvPKT_IN12_GLOBAL__N_11AEEEv
FNDA:29,_ZN3etl20uninitialized_bufferILm1ELm1ELm1EEcvPT_IKcEEv
FNDA:10,_ZN3etl12construct_atIN2io11SplitWriterILm8EEEJRA8_PNS1_7IWriterEEEEPT_S9_DpOT0_
FNDA:128,_ZN3etl10destroy_atIN2io17MemoryQueueWriterINS1_11MemoryQueueILm20ELm8EtEEEEEENS_9enable_ifIXntsrNS_25is_trivially_destructibleIT_EE5valueEvE4typeEPS8_
FNDA:128,_ZN3etl10to_addressIN2io17MemoryQueueWriterINS1_11MemoryQueueILm20ELm8EtEEEEEEPT_S7_
FNDA:2,_ZN3etl10destroy_atIN5docan19DoCanTransportLayerINS1_18DoCanDataLinkLayerIjthLj0EtEEEEEENS_9enable_ifIXntsrNS_25is_trivially_destructibleIT_EE5valueEvE4typeEPS8_
FNDA:22,_ZN3etl20uninitialized_bufferILm6ELm1ELm1EEcvPT_IcEEv
FNDA:2,_ZN3etl10to_addressIN12_GLOBAL__N_11BEEEPT_S4_
FNDA:1,_ZN3etl10destroy_atINS_5arrayINS_6stringILm16EEELm5EEEEENS_9enable_ifIXntsrNS_25is_trivially_destructibleIT_EE5valueEvE4typeEPS7_
FNDA:4,_ZN3etl7destroyIPN4util6memory18BuddyMemoryManager13AcquireResultEEENS_9enable_ifIXntsrNS_25is_trivially_destructibleINS_15iterator_traitsIT_NS6_IXntsrNS_14is_fundamentalIS9_EE5valueEvE4typeEE10value_typeEEE5valueEvE4typeES9_S9_
FNDA:3960,_ZN3etl10to_addressIcEEPT_S2_
FNDA:812,_ZN3etl20uninitialized_bufferILm1ELm1ELm1EEcvPT_IcEEv
FNDA:8,_ZN3etl9destroy_nIPhmEENS_9enable_ifIXsrNS_25is_trivially_destructibleINS_15iterator_traitsIT_NS2_IXntsrNS_14is_fundamentalIS5_EE5valueEvE4typeEE10value_typeEEE5valueES5_E4typeES5_T0_
FNDA:2,_ZNK3etl20uninitialized_bufferILm6ELm1ELm1EEcvPKT_IN12_GLOBAL__N_11BEEEv
FNDA:6,_ZN3etl10to_addressIN12_GLOBAL__N_11AEEEPT_S4_
FNDA:128,_ZN3etl10to_addressIN2io11MemoryQueueILm20ELm8EtEEEEPT_S5_
FNDA:10,_ZN3etl8mem_moveIcEEPT_PKS1_mS2_
FNDA:32,_ZN3etl7destroyIPN2io17MemoryQueueWriterINS1_11MemoryQueueILm20ELm8EtEEEEEENS_9enable_ifIXntsrNS_25is_trivially_destructibleINS_15iterator_traitsIT_NS7_IXntsrNS_14is_fundamentalISA_EE5valueEvE4typeEE10value_typeEEE5valueEvE4typeESA_SA_
FNF:59
FNH:56
DA:62,44793
DA:64,44793
DA:116,1
DA:118,1
DA:120,1
DA:210,1
DA:212,1
DA:966,25
DA:968,26
DA:1038,484
DA:1040,484
DA:1041,484
DA:1115,133
DA:1117,592
DA:1119,459
DA:1120,459
DA:1122,133
DA:1190,8
DA:1192,8
DA:1826,103
DA:1828,103
DA:1829,103
DA:1990,0
DA:1992,0
DA:1994,0
DA:1996,0
DA:2018,0
DA:2020,0
DA:2021,0
DA:2031,0
DA:2033,0
DA:2035,0
DA:2036,0
DA:2143,1252
DA:2146,1252
DA:2151,158
DA:2154,158
DA:2314,874
DA:2323,874
DA:2328,874
DA:2364,10
DA:2373,10
DA:2378,10
DA:2445,1
DA:2454,1
DA:2455,1
DA:2456,1
DA:2459,1
DA:2474,1195
DA:2483,1195
DA:2484,1195
DA:2488,1195
LF:52
LH:41
end_of_record
TN:
SF:/home/jenkins/libs/3rdparty/etl/include/etl/optional.h
FN:129,_ZN3etl16private_optional13optional_implIN2io10JoinReaderILm8EEELb0EEC2Ev
FN:129,_ZN3etl16private_optional13optional_implINS_5arrayINS_6stringILm16EEELm5EEELb0EEC2Ev
FN:129,_ZN3etl16private_optional13optional_implIN9transport14LogicalAddressELb0EEC2Ev
FN:129,_ZN3etl16private_optional13optional_implIN2io11SplitWriterILm8EEELb0EEC2Ev
FN:174,_ZN3etl16private_optional13optional_implIN9transport14LogicalAddressELb0EEC2ERKS3_
FN:216,_ZN3etl16private_optional13optional_implIN9transport14LogicalAddressELb0EED2Ev
FN:216,_ZN3etl16private_optional13optional_implIN2io11SplitWriterILm8EEELb0EED2Ev
FN:216,_ZN3etl16private_optional13optional_implINS_5arrayINS_6stringILm16EEELm5EEELb0EED2Ev
FN:216,_ZN3etl16private_optional13optional_implIN2io10JoinReaderILm8EEELb0EED2Ev
FN:309,_ZN3etl16private_optional13optional_implIN9transport14LogicalAddressELb0EEptEv
FN:309,_ZN3etl16private_optional13optional_implIN2io11SplitWriterILm8EEELb0EEptEv
FN:309,_ZN3etl16private_optional13optional_implIN2io10JoinReaderILm8EEELb0EEptEv
FN:322,_ZNK3etl16private_optional13optional_implINS_5arrayINS_6stringILm16EEELm5EEELb0EEptEv
FN:335,_ZNR3etl16private_optional13optional_implINS_5arrayINS_6stringILm16EEELm5EEELb0EEdeEv
FN:389,_ZNK3etl16private_optional13optional_implIN9transport14LogicalAddressELb0EE9has_valueEv
FN:389,_ZNK3etl16private_optional13optional_implINS_5arrayINS_6stringILm16EEELm5EEELb0EE9has_valueEv
FN:420,_ZNKR3etl16private_optional13optional_implINS_5arrayINS_6stringILm16EEELm5EEELb0EE5valueEv
FN:535,_ZN3etl16private_optional13optional_implIN2io11SplitWriterILm8EEELb0EE7emplaceIRA8_PNS2_7IWriterEJELi0EEERS4_OT_DpOT0_
FN:535,_ZN3etl16private_optional13optional_implIN2io10JoinReaderILm8EEELb0EE7emplaceIRA8_PNS2_7IReaderEJELi0EEERS4_OT_DpOT0_
FN:546,_ZN3etl16private_optional13optional_implINS_5arrayINS_6stringILm16EEELm5EEELb0EE7emplaceEv
FN:663,_ZN3etl16private_optional13optional_implINS_5arrayINS_6stringILm16EEELm5EEELb0EE12storage_typeC2Ev
FN:663,_ZN3etl16private_optional13optional_implIN9transport14LogicalAddressELb0EE12storage_typeC2Ev
FN:663,_ZN3etl16private_optional13optional_implIN2io10JoinReaderILm8EEELb0EE12storage_typeC2Ev
FN:663,_ZN3etl16private_optional13optional_implIN2io11SplitWriterILm8EEELb0EE12storage_typeC2Ev
FN:671,_ZN3etl16private_optional13optional_implIN9transport14LogicalAddressELb0EE12storage_type9constructERKS3_
FN:693,_ZN3etl16private_optional13optional_implIN2io10JoinReaderILm8EEELb0EE12storage_type9constructIJRA8_PNS2_7IReaderEEEEvDpOT_
FN:693,_ZN3etl16private_optional13optional_implINS_5arrayINS_6stringILm16EEELm5EEELb0EE12storage_type9constructIJEEEvDpOT_
FN:693,_ZN3etl16private_optional13optional_implIN2io11SplitWriterILm8EEELb0EE12storage_type9constructIJRA8_PNS2_7IWriterEEEEvDpOT_
FN:704,_ZN3etl16private_optional13optional_implIN2io11SplitWriterILm8EEELb0EE12storage_type7destroyEv
FN:704,_ZN3etl16private_optional13optional_implIN9transport14LogicalAddressELb0EE12storage_type7destroyEv
FN:704,_ZN3etl16private_optional13optional_implIN2io10JoinReaderILm8EEELb0EE12storage_type7destroyEv
FN:704,_ZN3etl16private_optional13optional_implINS_5arrayINS_6stringILm16EEELm5EEELb0EE12storage_type7destroyEv
FN:717,_ZN3etl16private_optional13optional_implINS_5arrayINS_6stringILm16EEELm5EEELb0EE12storage_type10union_typeC2Ev
FN:717,_ZN3etl16private_optional13optional_implIN9transport14LogicalAddressELb0EE12storage_type10union_typeC2Ev
FN:717,_ZN3etl16private_optional13optional_implIN2io11SplitWriterILm8EEELb0EE12storage_type10union_typeC2Ev
FN:717,_ZN3etl16private_optional13optional_implIN2io10JoinReaderILm8EEELb0EE12storage_type10union_typeC2Ev
FN:723,_ZN3etl16private_optional13optional_implIN2io11SplitWriterILm8EEELb0EE12storage_type10union_typeD2Ev
FN:723,_ZN3etl16private_optional13optional_implIN9transport14LogicalAddressELb0EE12storage_type10union_typeD2Ev
FN:723,_ZN3etl16private_optional13optional_implIN2io10JoinReaderILm8EEELb0EE12storage_type10union_typeD2Ev
FN:723,_ZN3etl16private_optional13optional_implINS_5arrayINS_6stringILm16EEELm5EEELb0EE12storage_type10union_typeD2Ev
FN:1345,_ZN3etl8optionalIN9transport14LogicalAddressEEC2IS2_Li0EEEv
FN:1345,_ZN3etl8optionalIN2io10JoinReaderILm8EEEEC2IS3_Li0EEEv
FN:1345,_ZN3etl8optionalIN2io11SplitWriterILm8EEEEC2IS3_Li0EEEv
FN:1345,_ZN3etl8optionalINS_5arrayINS_6stringILm16EEELm5EEEEC2IS4_Li0EEEv
FN:1456,_ZN3etl8optionalIN9transport14LogicalAddressEEC2IS2_Li0EEERKS2_
FNDA:6,_ZN3etl16private_optional13optional_implIN2io10JoinReaderILm8EEELb0EED2Ev
FNDA:10,_ZN3etl16private_optional13optional_implIN2io11SplitWriterILm8EEELb0EE12storage_typeC2Ev
FNDA:1,_ZN3etl16private_optional13optional_implINS_5arrayINS_6stringILm16EEELm5EEELb0EE7emplaceEv
FNDA:1,_ZN3etl16private_optional13optional_implINS_5arrayINS_6stringILm16EEELm5EEELb0EE12storage_type10union_typeD2Ev
FNDA:100,_ZN3etl16private_optional13optional_implIN2io10JoinReaderILm8EEELb0EEptEv
FNDA:10,_ZN3etl16private_optional13optional_implIN2io11SplitWriterILm8EEELb0EEC2Ev
FNDA:6,_ZN3etl16private_optional13optional_implIN2io10JoinReaderILm8EEELb0EE7emplaceIRA8_PNS2_7IReaderEJELi0EEERS4_OT_DpOT0_
FNDA:6,_ZN3etl16private_optional13optional_implIN2io10JoinReaderILm8EEELb0EE12storage_type10union_typeC2Ev
FNDA:6,_ZN3etl16private_optional13optional_implIN2io10JoinReaderILm8EEELb0EE12storage_type10union_typeD2Ev
FNDA:18,_ZN3etl16private_optional13optional_implIN9transport14LogicalAddressELb0EE12storage_type10union_typeD2Ev
FNDA:1,_ZN3etl8optionalINS_5arrayINS_6stringILm16EEELm5EEEEC2IS4_Li0EEEv
FNDA:10,_ZN3etl16private_optional13optional_implIN2io11SplitWriterILm8EEELb0EE12storage_type10union_typeC2Ev
FNDA:8,_ZN3etl8optionalIN9transport14LogicalAddressEEC2IS2_Li0EEERKS2_
FNDA:10,_ZN3etl16private_optional13optional_implIN2io11SplitWriterILm8EEELb0EE12storage_type10union_typeD2Ev
FNDA:6,_ZN3etl16private_optional13optional_implIN2io10JoinReaderILm8EEELb0EE12storage_typeC2Ev
FNDA:2,_ZN3etl16private_optional13optional_implINS_5arrayINS_6stringILm16EEELm5EEELb0EE12storage_type7destroyEv
FNDA:18,_ZN3etl16private_optional13optional_implIN9transport14LogicalAddressELb0EE12storage_type10union_typeC2Ev
FNDA:22,_ZNKR3etl16private_optional13optional_implINS_5arrayINS_6stringILm16EEELm5EEELb0EE5valueEv
FNDA:10,_ZN3etl8optionalIN2io11SplitWriterILm8EEEEC2IS3_Li0EEEv
FNDA:14,_ZNK3etl16private_optional13optional_implINS_5arrayINS_6stringILm16EEELm5EEELb0EEptEv
FNDA:8,_ZN3etl16private_optional13optional_implIN9transport14LogicalAddressELb0EEC2ERKS3_
FNDA:1,_ZN3etl16private_optional13optional_implINS_5arrayINS_6stringILm16EEELm5EEELb0EE12storage_type10union_typeC2Ev
FNDA:10,_ZN3etl16private_optional13optional_implIN2io11SplitWriterILm8EEELb0EE12storage_type9constructIJRA8_PNS2_7IWriterEEEEvDpOT_
FNDA:12,_ZN3etl16private_optional13optional_implIN2io10JoinReaderILm8EEELb0EE12storage_type7destroyEv
FNDA:16,_ZNK3etl16private_optional13optional_implINS_5arrayINS_6stringILm16EEELm5EEELb0EE9has_valueEv
FNDA:1,_ZNR3etl16private_optional13optional_implINS_5arrayINS_6stringILm16EEELm5EEELb0EEdeEv
FNDA:1,_ZN3etl16private_optional13optional_implINS_5arrayINS_6stringILm16EEELm5EEELb0EE12storage_type9constructIJEEEvDpOT_
FNDA:1,_ZN3etl16private_optional13optional_implINS_5arrayINS_6stringILm16EEELm5EEELb0EED2Ev
FNDA:53,_ZN3etl16private_optional13optional_implIN2io11SplitWriterILm8EEELb0EEptEv
FNDA:10,_ZN3etl16private_optional13optional_implIN2io11SplitWriterILm8EEELb0EED2Ev
FNDA:18,_ZNK3etl16private_optional13optional_implIN9transport14LogicalAddressELb0EE9has_valueEv
FNDA:4,_ZN3etl16private_optional13optional_implIN9transport14LogicalAddressELb0EEptEv
FNDA:18,_ZN3etl16private_optional13optional_implIN9transport14LogicalAddressELb0EE12storage_typeC2Ev
FNDA:6,_ZN3etl8optionalIN2io10JoinReaderILm8EEEEC2IS3_Li0EEEv
FNDA:20,_ZN3etl16private_optional13optional_implIN2io11SplitWriterILm8EEELb0EE12storage_type7destroyEv
FNDA:26,_ZN3etl16private_optional13optional_implIN9transport14LogicalAddressELb0EE12storage_type7destroyEv
FNDA:1,_ZN3etl16private_optional13optional_implINS_5arrayINS_6stringILm16EEELm5EEELb0EEC2Ev
FNDA:10,_ZN3etl8optionalIN9transport14LogicalAddressEEC2IS2_Li0EEEv
FNDA:18,_ZN3etl16private_optional13optional_implIN9transport14LogicalAddressELb0EED2Ev
FNDA:10,_ZN3etl16private_optional13optional_implIN9transport14LogicalAddressELb0EEC2Ev
FNDA:10,_ZN3etl16private_optional13optional_implIN2io11SplitWriterILm8EEELb0EE7emplaceIRA8_PNS2_7IWriterEJELi0EEERS4_OT_DpOT0_
FNDA:1,_ZN3etl16private_optional13optional_implINS_5arrayINS_6stringILm16EEELm5EEELb0EE12storage_typeC2Ev
FNDA:6,_ZN3etl16private_optional13optional_implIN2io10JoinReaderILm8EEELb0EEC2Ev
FNDA:8,_ZN3etl16private_optional13optional_implIN9transport14LogicalAddressELb0EE12storage_type9constructERKS3_
FNDA:6,_ZN3etl16private_optional13optional_implIN2io10JoinReaderILm8EEELb0EE12storage_type9constructIJRA8_PNS2_7IReaderEEEEvDpOT_
FNF:45
FNH:45
DA:129,27
DA:130,27
DA:132,27
DA:174,8
DA:175,8
DA:176,8
DA:177,8
DA:216,35
DA:218,35
DA:219,35
DA:309,157
DA:315,157
DA:322,14
DA:328,14
DA:335,1
DA:341,1
DA:389,34
DA:391,34
DA:420,22
DA:426,22
DA:535,16
DA:537,16
DA:539,16
DA:546,1
DA:548,1
DA:550,1
DA:663,35
DA:664,35
DA:665,35
DA:667,35
DA:671,8
DA:673,8
DA:675,8
DA:676,8
DA:677,8
DA:693,17
DA:695,17
DA:697,17
DA:698,17
DA:699,17
DA:704,60
DA:706,60
DA:708,25
DA:709,25
DA:711,60
DA:717,35
DA:720,35
DA:723,35
DA:725,35
DA:1345,27
DA:1346,27
DA:1348,27
DA:1456,8
DA:1457,8
DA:1459,8
LF:55
LH:55
end_of_record
TN:
SF:/home/jenkins/libs/3rdparty/etl/include/etl/pool.h
FN:68,_ZN3etl4poolIN3uds22IncomingDiagConnectionELm4EEC2Ev
FN:68,_ZN3etl4poolIN3uds22IncomingDiagConnectionELm1EEC2Ev
FN:68,_ZN3etl4poolIN3uds16IAsyncDiagHelper13StoredRequestELm1EEC2Ev
FN:68,_ZN3etl4poolIN3uds16IAsyncDiagHelper13StoredRequestELm2EEC2Ev
FNDA:15,_ZN3etl4poolIN3uds16IAsyncDiagHelper13StoredRequestELm2EEC2Ev
FNDA:1,_ZN3etl4poolIN3uds16IAsyncDiagHelper13StoredRequestELm1EEC2Ev
FNDA:95,_ZN3etl4poolIN3uds22IncomingDiagConnectionELm1EEC2Ev
FNDA:7,_ZN3etl4poolIN3uds22IncomingDiagConnectionELm4EEC2Ev
FNF:4
FNH:4
DA:68,118
DA:69,118
DA:70,118
LF:3
LH:3
end_of_record
TN:
SF:/home/jenkins/libs/3rdparty/etl/include/etl/private/bitset_new.h
FN:115,_ZN3etl16bitset_exceptionC2EPKcS2_i
FN:143,_ZN3etl15bitset_overflowC2EPKci
FN:238,_ZN3etl11bitset_implIhLc1EE12set_positionEPhmb
FN:300,_ZN3etl11bitset_implIhLc1EE9reset_allEPhm
FN:521,_ZN3etl11bitset_implIhLc1EE4testEPKhm
FN:719,_ZN3etl11bitset_implIhLc1EE19operator_assignmentEPhPKhm
FN:822,_ZN3etl11bitset_implIhLc1EE17operator_equalityEPKhS3_m
FN:2040,_ZN3etl6bitsetILm2EhEC1Ev
FN:2040,_ZN3etl6bitsetILm2EhEC2Ev
FN:2049,_ZN3etl6bitsetILm2EhEC1ERKS1_
FN:2049,_ZN3etl6bitsetILm2EhEC2ERKS1_
FN:2108,_ZN3etl6bitsetILm2EhEaSERKS1_
FN:2129,_ZN3etl6bitsetILm2EhE3setEmb
FN:2351,_ZNK3etl6bitsetILm2EhE4testEm
FN:2710,_ZN3etleqERKNS_6bitsetILm2EhEES3_
FNDA:191,_ZN3etl6bitsetILm2EhEC1ERKS1_
FNDA:48,_ZN3etl11bitset_implIhLc1EE12set_positionEPhmb
FNDA:0,_ZN3etl6bitsetILm2EhEC2Ev
FNDA:0,_ZN3etl6bitsetILm2EhEC2ERKS1_
FNDA:76,_ZN3etl6bitsetILm2EhEaSERKS1_
FNDA:267,_ZN3etl11bitset_implIhLc1EE19operator_assignmentEPhPKhm
FNDA:0,_ZN3etl16bitset_exceptionC2EPKcS2_i
FNDA:48,_ZN3etl6bitsetILm2EhE3setEmb
FNDA:532,_ZN3etl11bitset_implIhLc1EE9reset_allEPhm
FNDA:0,_ZN3etl15bitset_overflowC2EPKci
FNDA:532,_ZN3etl6bitsetILm2EhEC1Ev
FNDA:148,_ZN3etl11bitset_implIhLc1EE17operator_equalityEPKhS3_m
FNDA:62,_ZN3etl11bitset_implIhLc1EE4testEPKhm
FNDA:148,_ZN3etleqERKNS_6bitsetILm2EhEES3_
FNDA:62,_ZNK3etl6bitsetILm2EhE4testEm
FNF:15
FNH:11
DA:115,0
DA:116,0
DA:118,0
DA:143,0
DA:144,0
DA:146,0
DA:238,48
DA:242,48
DA:244,48
DA:246,33
DA:250,15
DA:252,48
DA:300,532
DA:303,532
DA:304,532
DA:521,62
DA:524,62
DA:525,62
DA:719,267
DA:723,267
DA:724,267
DA:822,148
DA:826,148
DA:2040,532
DA:2041,1064
DA:2043,532
DA:2044,532
DA:2049,191
DA:2050,382
DA:2052,191
DA:2053,191
DA:2108,76
DA:2110,76
DA:2112,76
DA:2129,48
DA:2131,48
DA:2133,48
DA:2135,48
DA:2351,62
DA:2353,62
DA:2355,62
DA:2710,148
DA:2712,148
LF:43
LH:37
end_of_record
TN:
SF:/home/jenkins/libs/3rdparty/etl/include/etl/private/chrono/duration.h
FN:121,_ZN3etl6chrono8durationIsNS_5ratioILl1ELl1000EEEEC2ERKS4_
FN:121,_ZN3etl6chrono8durationIlNS_5ratioILl1ELl1000000EEEEC2ERKS4_
FN:128,_ZN3etl6chrono8durationIsNS_5ratioILl1ELl1000EEEEC2IsEERKT_
FN:128,_ZN3etl6chrono8durationIlNS_5ratioILl1ELl1000000EEEEC2IlEERKT_
FN:161,_ZNK3etl6chrono8durationIlNS_5ratioILl1ELl1000000EEEE5countEv
FN:161,_ZNK3etl6chrono8durationIsNS_5ratioILl1ELl1000EEEE5countEv
FN:339,_ZN3etl6chrono13duration_castINS0_8durationIsNS_5ratioILl1ELl1000EEEEElNS3_ILl1ELl1000000EEEEET_RKNS2_IT0_T1_EE
FNDA:1,_ZN3etl6chrono8durationIlNS_5ratioILl1ELl1000000EEEEC2IlEERKT_
FNDA:1,_ZN3etl6chrono13duration_castINS0_8durationIsNS_5ratioILl1ELl1000EEEEElNS3_ILl1ELl1000000EEEEET_RKNS2_IT0_T1_EE
FNDA:1,_ZNK3etl6chrono8durationIsNS_5ratioILl1ELl1000EEEE5countEv
FNDA:2,_ZN3etl6chrono8durationIlNS_5ratioILl1ELl1000000EEEEC2ERKS4_
FNDA:1,_ZN3etl6chrono8durationIsNS_5ratioILl1ELl1000EEEEC2IsEERKT_
FNDA:2,_ZN3etl6chrono8durationIsNS_5ratioILl1ELl1000EEEEC2ERKS4_
FNDA:1,_ZNK3etl6chrono8durationIlNS_5ratioILl1ELl1000000EEEE5countEv
FNF:7
FNH:7
DA:121,4
DA:122,4
DA:124,4
DA:128,2
DA:129,2
DA:131,2
DA:161,2
DA:163,2
DA:339,1
DA:350,1
DA:351,1
DA:352,1
DA:360,1
LF:13
LH:13
end_of_record
TN:
SF:/home/jenkins/libs/3rdparty/etl/include/etl/private/chrono/time_point.h
FN:64,_ZN3etl6chrono10time_pointIN12_GLOBAL__N_15ClockENS0_8durationIsNS_5ratioILl1ELl1000EEEEEEC2ERKS7_
FN:64,_ZN3etl6chrono10time_pointIN12_GLOBAL__N_15ClockENS0_8durationIlNS_5ratioILl1ELl1000000EEEEEEC2ERKS7_
FN:100,_ZNK3etl6chrono10time_pointIN12_GLOBAL__N_15ClockENS0_8durationIlNS_5ratioILl1ELl1000000EEEEEE16time_since_epochEv
FN:100,_ZNK3etl6chrono10time_pointIN12_GLOBAL__N_15ClockENS0_8durationIsNS_5ratioILl1ELl1000EEEEEE16time_since_epochEv
FN:204,_ZN3etl6chrono15time_point_castINS0_8durationIsNS_5ratioILl1ELl1000EEEEEN12_GLOBAL__N_15ClockENS2_IlNS3_ILl1ELl1000000EEEEEEENS0_10time_pointIT0_T_EERKNSA_ISB_T1_EE
FNDA:1,_ZNK3etl6chrono10time_pointIN12_GLOBAL__N_15ClockENS0_8durationIsNS_5ratioILl1ELl1000EEEEEE16time_since_epochEv
FNDA:1,_ZN3etl6chrono10time_pointIN12_GLOBAL__N_15ClockENS0_8durationIlNS_5ratioILl1ELl1000000EEEEEEC2ERKS7_
FNDA:1,_ZN3etl6chrono10time_pointIN12_GLOBAL__N_15ClockENS0_8durationIsNS_5ratioILl1ELl1000EEEEEEC2ERKS7_
FNDA:1,_ZNK3etl6chrono10time_pointIN12_GLOBAL__N_15ClockENS0_8durationIlNS_5ratioILl1ELl1000000EEEEEE16time_since_epochEv
FNDA:1,_ZN3etl6chrono15time_point_castINS0_8durationIsNS_5ratioILl1ELl1000EEEEEN12_GLOBAL__N_15ClockENS2_IlNS3_ILl1ELl1000000EEEEEEENS0_10time_pointIT0_T_EERKNSA_ISB_T1_EE
FNF:5
FNH:5
DA:64,2
DA:65,2
DA:67,2
DA:100,2
DA:102,2
DA:204,1
DA:206,1
DA:208,1
LF:8
LH:8
end_of_record
TN:
SF:/home/jenkins/libs/3rdparty/etl/include/etl/private/crc_implementation.h
FN:168,_ZN3etl11private_crcL16crc_update_chunkItLm16ELm8ELh255ELb0EEENS_9enable_ifIXaagtT0_T1_ntT3_ET_E4typeES3_hPKS3_
FN:604,_ZNK3etl11private_crc9crc_tableItLm16ELm8ELh255ELt4129ELb0ELm256EE3addEth
FN:645,_ZNK3etl11private_crc10crc_policyINS0_14crc_parametersItLt4129ELt7439ELt0ELb0EEELm256EE5finalEt
FNDA:25,_ZNK3etl11private_crc10crc_policyINS0_14crc_parametersItLt4129ELt7439ELt0ELb0EEELm256EE5finalEt
FNDA:70,_ZN3etl11private_crcL16crc_update_chunkItLm16ELm8ELh255ELb0EEENS_9enable_ifIXaagtT0_T1_ntT3_ET_E4typeES3_hPKS3_
FNDA:70,_ZNK3etl11private_crc9crc_tableItLm16ELm8ELh255ELt4129ELb0ELm256EE3addEth
FNF:3
FNH:3
DA:168,70
DA:170,70
DA:172,70
DA:174,70
DA:175,70
DA:177,70
DA:604,70
DA:608,70
DA:610,70
DA:645,25
DA:647,25
LF:11
LH:11
end_of_record
TN:
SF:/home/jenkins/libs/3rdparty/etl/include/etl/private/delegate_cpp11.h
FN:69,_ZN3etl18delegate_exceptionC2EPKcS2_i
FN:82,_ZN3etl22delegate_uninitialisedC2EPKci
FN:129,_ZN3etl8delegateIFvRN7storage10StorageJobEEEC2Ev
FN:129,_ZN3etl8delegateIFbN3uds14DiagReturnCode4TypeERS3_EEC2Ev
FN:129,_ZN3etl8delegateIFvRN5async11TaskContextINS1_15FreeRtosAdapterINS1_12AsyncBindingEEEEEEEC2Ev
FN:129,_ZN3etl8delegateIFPKcmEEC1Ev
FN:129,_ZN3etl8delegateIFvRN5async11TaskContextIN12_GLOBAL__N_115TestBindingMockEEEEEC2Ev
FN:129,_ZN3etl8delegateIFvRN5async11TaskContextINS1_15FreeRtosAdapterIN12_GLOBAL__N_111TestBindingEEEEEEEC2Ev
FN:129,_ZN3etl8delegateIFPKcmEEC2Ev
FN:129,_ZN3etl8delegateIFvvEEC1Ev
FN:129,_ZN3etl8delegateIFhRKN9transport16TransportMessageEEEC2Ev
FN:129,_ZN3etl8delegateIFvvEEC2Ev
FN:129,_ZN3etl8delegateIFvRN9transport22AbstractTransportLayerEEEC2Ev
FN:142,_ZN3etl8delegateIFvRN7storage10StorageJobEEEC2IZN12_GLOBAL__N_131StorageTest_InvalidBlockId_Test8TestBodyEvEUlS3_E_vEERT_
FN:142,_ZN3etl8delegateIFvRN9transport22AbstractTransportLayerEEEC2IZN30DemoTest_DoCanIntegration_Test8TestBodyEvEUlS3_E0_vEERT_
FN:142,_ZN3etl8delegateIFvRN7storage10StorageJobEEEC2IZN12_GLOBAL__N_145StorageTest_SameJobTriggeredFromCallback_Test8TestBodyEvEUlS3_E_vEERT_
FN:167,_ZN3etl8delegateIFvRN5async11TaskContextINS1_15FreeRtosAdapterIN12_GLOBAL__N_111TestBindingEEEEEEE6createIXadL_ZNS7_19defaultIdleFunctionES8_EEEESA_v
FN:167,_ZN3etl8delegateIFvRN5async11TaskContextINS1_15FreeRtosAdapterIN12_GLOBAL__N_111TestBindingEEEEEEE6createIXadL_ZNS7_19defaultTaskFunctionES8_EEEESA_v
FN:167,_ZN3etl8delegateIFvRN5async11TaskContextINS1_15FreeRtosAdapterINS1_12AsyncBindingEEEEEEE6createIXadL_ZNS6_19defaultTaskFunctionES7_EEEES9_v
FN:167,_ZN3etl8delegateIFvRN5async11TaskContextIN12_GLOBAL__N_115TestBindingMockEEEEE6createIXadL_ZNS5_19defaultTaskFunctionES6_EEEES8_v
FN:167,_ZN3etl8delegateIFvRN9transport22AbstractTransportLayerEEE6createIXadL_ZNS2_21shutdownCompleteDummyES3_EEEES5_v
FN:167,_ZN3etl8delegateIFjvEE6createIXadL_Z11systemMicrovEEEES2_v
FN:167,_ZN3etl8delegateIFvRN4util7command14CommandContextEEE6createIXadL_ZN12_GLOBAL__N_117SimpleCommandTest10staticFuncES4_EEEES6_v
FN:167,_ZN3etl8delegateIFvRN4util7command14CommandContextEEE6createIXadL_ZN12_GLOBAL__N_117ParentCommandTest10staticFuncES4_EEEES6_v
FN:167,_ZN3etl8delegateIFjvEE6createIXadL_ZN12_GLOBAL__N_18systemUsEvEEEES2_v
FN:167,_ZN3etl8delegateIFvRN5async11TaskContextINS1_15FreeRtosAdapterINS1_12AsyncBindingEEEEEEE6createIXadL_ZNS6_19defaultIdleFunctionES7_EEEES9_v
FN:197,_ZN3etl8delegateIFvvEE6createIN12_GLOBAL__N_132DoCanTransportLayerContainerTestEXadL_ZNS5_12shutdownDoneEvEEEES2_RT_
FN:197,_ZN3etl8delegateIFvRN4util7command14CommandContextEEE6createIN12_GLOBAL__N_117SimpleCommandTestEXadL_ZNS9_10memberFuncES4_EEEES6_RT_
FN:197,_ZN3etl8delegateIFvvEE6createIN12_GLOBAL__N_119TaskInitializerTestEXadL_ZNS5_12taskFunctionEvEEEES2_RT_
FN:197,_ZN3etl8delegateIFvRN7storage10StorageJobEEE6createIN12_GLOBAL__N_111StorageTestEXadL_ZNS8_11jobDoneFuncES3_EEEES5_RT_
FN:197,_ZN3etl8delegateIFvvEE6createIN12_GLOBAL__N_119FreeRtosAdapterTestEXadL_ZNS5_8startAppEvEEEES2_RT_
FN:197,_ZN3etl8delegateIFjvEE6createIN12_GLOBAL__N_120LifecycleManagerTestEXadL_ZNS5_12getTimestampEvEEEES2_RT_
FN:197,_ZN3etl8delegateIFbN3uds14DiagReturnCode4TypeERS3_EE6createIN12_GLOBAL__N_132MultipleReadDataByIdentifierTestEXadL_ZNS9_13checkResponseES3_S4_EEEES6_RT_
FN:197,_ZN3etl8delegateIFvvEE6createIN4bios19CanFlex2TransceiverEXadL_ZNS5_20canFrameSentCallbackEvEEEES2_RT_
FN:197,_ZN3etl8delegateIFvPN3uds22IncomingDiagConnectionEPKhtEE6createINS1_12AsyncDiagJobIN12_GLOBAL__N_111DiagJobMockEEEXadL_ZNSC_12asyncProcessES3_S5_tEEEES7_RT_
FN:197,_ZN3etl8delegateIFvRN9transport22AbstractTransportLayerEEE6createIN5docan28DoCanTransportLayerContainerINS7_18DoCanDataLinkLayerIjthLj0EtEEEEXadL_ZNSB_12shutdownDoneES3_EEEES5_RT_
FN:197,_ZN3etl8delegateIFvtPN3uds15AbstractDiagJobEEE6createINS1_22IncomingDiagConnectionEXadL_ZNS7_25asyncSendPositiveResponseEtS3_EEEES5_RT_
FN:197,_ZN3etl8delegateIFvvEE6createIN5async16RunnableExecutorINS4_9IRunnableENS4_11EventPolicyINS4_11TaskContextINS4_15FreeRtosAdapterIN12_GLOBAL__N_111TestBindingEEEEELm0EEENS4_4LockEEEXadL_ZNSG_11handleEventEvEEEES2_RT_
FN:197,_ZN3etl8delegateIFbN3uds14DiagReturnCode4TypeERS3_EE6createINS1_28MultipleReadDataByIdentifierEXadL_ZNS8_20defaultCheckResponseES3_S4_EEEES6_RT_
FN:197,_ZN3etl8delegateIFjvEE6createIN12_GLOBAL__N_132DoCanTransportLayerContainerTestEXadL_ZNS5_8systemUsEvEEEES2_RT_
FN:197,_ZN3etl8delegateIFvvEE6createIN5async16RunnableExecutorINS4_9IRunnableENS4_11EventPolicyIN12_GLOBAL__N_120RunnableExecutorTestELm2EEENS8_8TestLockEEEXadL_ZNSC_11handleEventEvEEEES2_RT_
FN:197,_ZN3etl8delegateIFvvEE6createIN12_GLOBAL__N_119EventDispatcherTestEXadL_ZNS5_12handleEvent3EvEEEES2_RT_
FN:197,_ZN3etl8delegateIFvvEE6createIN12_GLOBAL__N_119EventDispatcherTestEXadL_ZNS5_12handleEvent2EvEEEES2_RT_
FN:197,_ZN3etl8delegateIFvRN7storage10StorageJobEEE6createINS1_14MappingStorageEXadL_ZNS7_8callbackES3_EEEES5_RT_
FN:197,_ZN3etl8delegateIFvvEE6createIN5async16RunnableExecutorINS4_9IRunnableENS4_11EventPolicyINS4_11TaskContextIN12_GLOBAL__N_115TestBindingMockEEELm0EEENS4_4LockEEEXadL_ZNSE_11handleEventEvEEEES2_RT_
FN:197,_ZN3etl8delegateIFvvEE6createIN4bios19CanFlex2TransceiverEXadL_ZNS5_10cyclicTaskEvEEEES2_RT_
FN:197,_ZN3etl8delegateIFvvEE6createIN3uds15DiagDispatcher2EXadL_ZNS5_12processQueueEvEEEES2_RT_
FN:197,_ZN3etl8delegateIFvvEE6createIN12_GLOBAL__N_115EventPolicyTestEXadL_ZNS5_11handleEventEvEEEES2_RT_
FN:197,_ZN3etl8delegateIFvvEE6createIN5async11TaskContextIN12_GLOBAL__N_115TestBindingMockEEEXadL_ZNS8_13handleTimeoutEvEEEES2_RT_
FN:197,_ZN3etl8delegateIFvvEE6createIN5async16RunnableExecutorINS4_9IRunnableENS4_11EventPolicyINS4_11TaskContextINS4_15FreeRtosAdapterINS4_12AsyncBindingEEEEELm0EEENS4_4LockEEEXadL_ZNSF_11handleEventEvEEEES2_RT_
FN:197,_ZN3etl8delegateIFjvEE6createIN12_GLOBAL__N_123DoCanTransportLayerTestEXadL_ZNS5_8systemUsEvEEEES2_RT_
FN:197,_ZN3etl8delegateIFvRN5async11TaskContextINS1_15FreeRtosAdapterIN12_GLOBAL__N_111TestBindingEEEEEEE6createINS4_19FreeRtosAdapterTestEXadL_ZNSC_12taskFunctionES8_EEEESA_RT_
FN:197,_ZN3etl8delegateIFvvEE6createIN5async11TaskContextINS4_15FreeRtosAdapterINS4_12AsyncBindingEEEEEXadL_ZNS9_13handleTimeoutEvEEEES2_RT_
FN:197,_ZN3etl8delegateIFvRN5async11TaskContextINS1_15FreeRtosAdapterINS1_12AsyncBindingEEEEEEE6createIN12_GLOBAL__N_19AsyncTestEXadL_ZNSC_12taskFunctionES7_EEEES9_RT_
FN:197,_ZN3etl8delegateIFjvEE6createIN12_GLOBAL__N_117DoCanReceiverTestEXadL_ZNS5_8systemUsEvEEEES2_RT_
FN:197,_ZN3etl8delegateIFvRN4util7command14CommandContextEEE6createIN12_GLOBAL__N_117ParentCommandTestEXadL_ZNS9_10memberFuncES4_EEEES6_RT_
FN:197,_ZN3etl8delegateIFjvEE6createIN12_GLOBAL__N_120DoCanTransmitterTestEXadL_ZNS5_8systemUsEvEEEES2_RT_
FN:197,_ZN3etl8delegateIFhRKN9transport16TransportMessageEEE6createIN12_GLOBAL__N_132MultipleReadDataByIdentifierTestEXadL_ZNS9_11getDidLimitES4_EEEES6_RT_
FN:197,_ZN3etl8delegateIFvhPN3uds15AbstractDiagJobEEE6createINS1_22IncomingDiagConnectionEXadL_ZNS7_25asyncSendNegativeResponseEhS3_EEEES5_RT_
FN:197,_ZN3etl8delegateIFPKcmEE6createIN12_GLOBAL__N_118RuntimeMonitorTestEXadL_ZNS7_11getTaskNameEmEEEES4_RT_
FN:197,_ZN3etl8delegateIFvtjEE6createIN12_GLOBAL__N_113AsyncCallTestEXadL_ZNS5_11closureCallEtjEEEES2_RT_
FN:197,_ZN3etl8delegateIFvvEE6createIN12_GLOBAL__N_119EventDispatcherTestEXadL_ZNS5_12handleEvent1EvEEEES2_RT_
FN:197,_ZN3etl8delegateIFvRN5async11TaskContextIN12_GLOBAL__N_115TestBindingMockEEEEE6createIS4_XadL_ZNS4_12taskFunctionES6_EEEES8_RT_
FN:197,_ZN3etl8delegateIFvvEE6createIN4bios19CanFlex2TransceiverEXadL_ZNS5_25canFrameSentAsyncCallbackEvEEEES2_RT_
FN:197,_ZN3etl8delegateIFvvEE6createIN12_GLOBAL__N_19AsyncTestEXadL_ZNS5_8startAppEvEEEES2_RT_
FN:197,_ZN3etl8delegateIFvvEE6createIN3uds22IncomingDiagConnectionEXadL_ZNS5_24triggerNextNestedRequestEvEEEES2_RT_
FN:197,_ZN3etl8delegateIFvvEE6createIN4estd13function_mockIS1_EEXadL_ZNS6_6calleeEvEEEES2_RT_
FN:197,_ZN3etl8delegateIFvvEE6createIN3uds18AsyncDiagJobHelperEXadL_ZNS5_19triggerNextRequestsEvEEEES2_RT_
FN:197,_ZN3etl8delegateIFvRN9transport22AbstractTransportLayerEEE6createIN12_GLOBAL__N_114UdsIntegrationEXadL_ZNS8_16shutdownCompleteES3_EEEES5_RT_
FN:197,_ZN3etl8delegateIFvvEE6createIN3uds15DiagDispatcher2EXadL_ZNS5_33connectionManagerShutdownCompleteEvEEEES2_RT_
FN:197,_ZN3etl8delegateIFvRN4util7command14CommandContextEEE6createIN6logger20DefaultLoggerCommandEXadL_ZNS9_12levelCommandES4_EEEES6_RT_
FN:197,_ZN3etl8delegateIFvPN9transport16TransportMessageENS1_34ITransportMessageProcessedListener16ProcessingResultEEE6createIN3uds22IncomingDiagConnectionEXadL_ZNSA_30asyncTransportMessageProcessedES3_S5_EEEES7_RT_
FN:197,_ZN3etl8delegateIFvvEE6createIN5async11TaskContextINS4_15FreeRtosAdapterIN12_GLOBAL__N_111TestBindingEEEEEXadL_ZNSA_13handleTimeoutEvEEEES2_RT_
FN:197,_ZN3etl8delegateIFvvEE6createIN12_GLOBAL__N_113AsyncCallTestEXadL_ZNS5_12functionCallEvEEEES2_RT_
FN:197,_ZN3etl8delegateIFvRN9transport22AbstractTransportLayerEEE6createIN12_GLOBAL__N_123DoCanTransportLayerTestEXadL_ZNS8_12shutdownDoneES3_EEEES5_RT_
FN:215,_ZN3etl8delegateIFvRN7runtime16StatisticsWriterERKNS1_17RuntimeStatisticsEEE6createIN12_GLOBAL__N_130TestRuntimeStatisticsFormatterEXadL_ZNKSB_6formatES3_S6_EEEES8_RKT_
FN:215,_ZN3etl8delegateIFjvEE6createIN12_GLOBAL__N_131LifecycleManagerInitializerTestEXadL_ZNKS5_12getTimestampEvEEEES2_RKT_
FN:215,_ZN3etl8delegateIFPKcmEE6createIN7runtime25SharedStatisticsContainerIN12_GLOBAL__N_114TestStatisticsELm5ES9_EEXadL_ZNKSA_7getNameEmEEEES4_RKT_
FN:215,_ZN3etl8delegateIFPKcmEE6createIN12_GLOBAL__N_19TestNamesEXadL_ZNKS7_7getNameEmEEEES4_RKT_
FN:215,_ZN3etl8delegateIFPKcmEE6createIN7runtime7declare14RuntimeMonitorIN12_GLOBAL__N_121TestContextStatisticsENS9_22TestFunctionStatisticsELm2ELm3EEEXadL_ZNKSC_15getIsrGroupNameEmEEEES4_RKT_
FN:215,_ZN3etl8delegateIFvRN4util7command14CommandContextEEE6createINS2_11HelpCommandEXadL_ZNKS8_4helpES4_EEEES6_RKT_
FN:375,_ZNK3etl8delegateIFPKcmEEclEm
FN:375,_ZNK3etl8delegateIFvPN9transport16TransportMessageENS1_34ITransportMessageProcessedListener16ProcessingResultEEEclES3_S5_
FN:375,_ZNK3etl8delegateIFvvEEclEv
FN:375,_ZNK3etl8delegateIFvRN7runtime16StatisticsWriterERKNS1_17RuntimeStatisticsEEEclES3_S6_
FN:375,_ZNK3etl8delegateIFvPN3uds22IncomingDiagConnectionEPKhtEEclES3_S5_t
FN:375,_ZNK3etl8delegateIFvRN5async11TaskContextINS1_15FreeRtosAdapterINS1_12AsyncBindingEEEEEEEclES7_
FN:375,_ZNK3etl8delegateIFbN3uds14DiagReturnCode4TypeERS3_EEclES3_S4_
FN:375,_ZNK3etl8delegateIFvtjEEclEtj
FN:375,_ZNK3etl8delegateIFvhPN3uds15AbstractDiagJobEEEclEhS3_
FN:375,_ZNK3etl8delegateIFvRN4util7command14CommandContextEEEclES4_
FN:375,_ZNK3etl8delegateIFvRN7storage10StorageJobEEEclES3_
FN:375,_ZNK3etl8delegateIFvtPN3uds15AbstractDiagJobEEEclEtS3_
FN:375,_ZNK3etl8delegateIFjvEEclEv
FN:375,_ZNK3etl8delegateIFvRN5async11TaskContextINS1_15FreeRtosAdapterIN12_GLOBAL__N_111TestBindingEEEEEEEclES8_
FN:375,_ZNK3etl8delegateIFvRN9transport22AbstractTransportLayerEEEclES3_
FN:375,_ZNK3etl8delegateIFvRN5async11TaskContextIN12_GLOBAL__N_115TestBindingMockEEEEEclES6_
FN:375,_ZNK3etl8delegateIFhRKN9transport16TransportMessageEEEclES4_
FN:484,_ZNK3etl8delegateIFvvEEeqERKS2_
FN:501,_ZNK3etl8delegateIFvPN3uds22IncomingDiagConnectionEPKhtEE8is_validEv
FN:501,_ZNK3etl8delegateIFjvEE8is_validEv
FN:501,_ZNK3etl8delegateIFvRN5async11TaskContextINS1_15FreeRtosAdapterIN12_GLOBAL__N_111TestBindingEEEEEEE8is_validEv
FN:501,_ZNK3etl8delegateIFvRN4util7command14CommandContextEEE8is_validEv
FN:501,_ZNK3etl8delegateIFvPN9transport16TransportMessageENS1_34ITransportMessageProcessedListener16ProcessingResultEEE8is_validEv
FN:501,_ZNK3etl8delegateIFvRN7runtime16StatisticsWriterERKNS1_17RuntimeStatisticsEEE8is_validEv
FN:501,_ZNK3etl8delegateIFvRN5async11TaskContextIN12_GLOBAL__N_115TestBindingMockEEEEE8is_validEv
FN:501,_ZNK3etl8delegateIFPKcmEE8is_validEv
FN:501,_ZNK3etl8delegateIFbN3uds14DiagReturnCode4TypeERS3_EE8is_validEv
FN:501,_ZNK3etl8delegateIFvvEE8is_validEv
FN:501,_ZNK3etl8delegateIFvRN5async11TaskContextINS1_15FreeRtosAdapterINS1_12AsyncBindingEEEEEEE8is_validEv
FN:501,_ZNK3etl8delegateIFvRN9transport22AbstractTransportLayerEEE8is_validEv
FN:501,_ZNK3etl8delegateIFvRN7storage10StorageJobEEE8is_validEv
FN:501,_ZNK3etl8delegateIFvtPN3uds15AbstractDiagJobEEE8is_validEv
FN:501,_ZNK3etl8delegateIFvN3tcp14AbstractSocket9ErrorCodeEEE8is_validEv
FN:501,_ZNK3etl8delegateIFbjEE8is_validEv
FN:501,_ZNK3etl8delegateIFvhPN3uds15AbstractDiagJobEEE8is_validEv
FN:501,_ZNK3etl8delegateIFhRKN9transport16TransportMessageEEE8is_validEv
FN:510,_ZNK3etl8delegateIFvRN7storage10StorageJobEEEcvbEv
FN:510,_ZNK3etl8delegateIFbjEEcvbEv
FN:510,_ZNK3etl8delegateIFvN3tcp14AbstractSocket9ErrorCodeEEEcvbEv
FN:510,_ZNK3etl8delegateIFvRN9transport22AbstractTransportLayerEEEcvbEv
FN:510,_ZNK3etl8delegateIFvvEEcvbEv
FN:524,_ZN3etl8delegateIFvRN7storage10StorageJobEEE18invocation_elementC2Ev
FN:524,_ZN3etl8delegateIFvRN9transport22AbstractTransportLayerEEE18invocation_elementC2Ev
FN:524,_ZN3etl8delegateIFvRN5async11TaskContextINS1_15FreeRtosAdapterINS1_12AsyncBindingEEEEEEE18invocation_elementC2Ev
FN:524,_ZN3etl8delegateIFvRN5async11TaskContextINS1_15FreeRtosAdapterIN12_GLOBAL__N_111TestBindingEEEEEEE18invocation_elementC2Ev
FN:524,_ZN3etl8delegateIFvRN5async11TaskContextIN12_GLOBAL__N_115TestBindingMockEEEEE18invocation_elementC2Ev
FN:524,_ZN3etl8delegateIFvvEE18invocation_elementC2Ev
FN:524,_ZN3etl8delegateIFhRKN9transport16TransportMessageEEE18invocation_elementC2Ev
FN:524,_ZN3etl8delegateIFPKcmEE18invocation_elementC2Ev
FN:524,_ZN3etl8delegateIFbN3uds14DiagReturnCode4TypeERS3_EE18invocation_elementC2Ev
FN:527,_ZN3etl8delegateIFvtjEE18invocation_elementC2EPvPFvS4_tjE
FN:527,_ZN3etl8delegateIFbN3uds14DiagReturnCode4TypeERS3_EE18invocation_elementC2EPvPFbS8_S3_S4_E
FN:527,_ZN3etl8delegateIFvtPN3uds15AbstractDiagJobEEE18invocation_elementC2EPvPFvS7_tS3_E
FN:527,_ZN3etl8delegateIFvRN4util7command14CommandContextEEE18invocation_elementC2EPvPFvS8_S4_E
FN:527,_ZN3etl8delegateIFvRN9transport22AbstractTransportLayerEEE18invocation_elementC2EPvPFvS7_S3_E
FN:527,_ZN3etl8delegateIFPKcmEE18invocation_elementC2EPvPFS2_S6_mE
FN:527,_ZN3etl8delegateIFvRN7storage10StorageJobEEE18invocation_elementC2EPvPFvS7_S3_E
FN:527,_ZN3etl8delegateIFhRKN9transport16TransportMessageEEE18invocation_elementC2EPvPFhS8_S4_E
FN:527,_ZN3etl8delegateIFvRN5async11TaskContextINS1_15FreeRtosAdapterINS1_12AsyncBindingEEEEEEE18invocation_elementC2EPvPFvSB_S7_E
FN:527,_ZN3etl8delegateIFvRN5async11TaskContextINS1_15FreeRtosAdapterIN12_GLOBAL__N_111TestBindingEEEEEEE18invocation_elementC2EPvPFvSC_S8_E
FN:527,_ZN3etl8delegateIFvRN5async11TaskContextIN12_GLOBAL__N_115TestBindingMockEEEEE18invocation_elementC2EPvPFvSA_S6_E
FN:527,_ZN3etl8delegateIFvRN7runtime16StatisticsWriterERKNS1_17RuntimeStatisticsEEE18invocation_elementC2EPvPFvSA_S3_S6_E
FN:527,_ZN3etl8delegateIFvPN3uds22IncomingDiagConnectionEPKhtEE18invocation_elementC2EPvPFvS9_S3_S5_tE
FN:527,_ZN3etl8delegateIFvPN9transport16TransportMessageENS1_34ITransportMessageProcessedListener16ProcessingResultEEE18invocation_elementC2EPvPFvS9_S3_S5_E
FN:527,_ZN3etl8delegateIFvhPN3uds15AbstractDiagJobEEE18invocation_elementC2EPvPFvS7_hS3_E
FN:527,_ZN3etl8delegateIFjvEE18invocation_elementC2EPvPFjS4_E
FN:527,_ZN3etl8delegateIFvvEE18invocation_elementC1EPvPFvS4_E
FN:527,_ZN3etl8delegateIFvvEE18invocation_elementC2EPvPFvS4_E
FN:534,_ZNK3etl8delegateIFvvEE18invocation_elementeqERKS3_
FN:560,_ZN3etl8delegateIFvRN4util7command14CommandContextEEEC2EPvPFvS7_S4_E
FN:560,_ZN3etl8delegateIFjvEEC2EPvPFjS3_E
FN:560,_ZN3etl8delegateIFPKcmEEC2EPvPFS2_S5_mE
FN:560,_ZN3etl8delegateIFvRN5async11TaskContextINS1_15FreeRtosAdapterIN12_GLOBAL__N_111TestBindingEEEEEEEC2EPvPFvSB_S8_E
FN:560,_ZN3etl8delegateIFvhPN3uds15AbstractDiagJobEEEC2EPvPFvS6_hS3_E
FN:560,_ZN3etl8delegateIFvRN5async11TaskContextINS1_15FreeRtosAdapterINS1_12AsyncBindingEEEEEEEC2EPvPFvSA_S7_E
FN:560,_ZN3etl8delegateIFvRN7storage10StorageJobEEEC2EPvPFvS6_S3_E
FN:560,_ZN3etl8delegateIFvRN9transport22AbstractTransportLayerEEEC2EPvPFvS6_S3_E
FN:560,_ZN3etl8delegateIFvRN5async11TaskContextIN12_GLOBAL__N_115TestBindingMockEEEEEC2EPvPFvS9_S6_E
FN:560,_ZN3etl8delegateIFvPN3uds22IncomingDiagConnectionEPKhtEEC2EPvPFvS8_S3_S5_tE
FN:560,_ZN3etl8delegateIFvRN7runtime16StatisticsWriterERKNS1_17RuntimeStatisticsEEEC2EPvPFvS9_S3_S6_E
FN:560,_ZN3etl8delegateIFhRKN9transport16TransportMessageEEEC2EPvPFhS7_S4_E
FN:560,_ZN3etl8delegateIFvtPN3uds15AbstractDiagJobEEEC2EPvPFvS6_tS3_E
FN:560,_ZN3etl8delegateIFbN3uds14DiagReturnCode4TypeERS3_EEC2EPvPFbS7_S3_S4_E
FN:560,_ZN3etl8delegateIFvtjEEC2EPvPFvS3_tjE
FN:560,_ZN3etl8delegateIFvPN9transport16TransportMessageENS1_34ITransportMessageProcessedListener16ProcessingResultEEEC2EPvPFvS8_S3_S5_E
FN:560,_ZN3etl8delegateIFvvEEC2EPvPFvS3_E
FN:560,_ZN3etl8delegateIFvvEEC1EPvPFvS3_E
FN:576,_ZN3etl8delegateIFvRN9transport22AbstractTransportLayerEEE6assignEPvPFvS6_S3_E
FN:576,_ZN3etl8delegateIFvRN7storage10StorageJobEEE6assignEPvPFvS6_S3_E
FN:586,_ZN3etl8delegateIFvRN9transport22AbstractTransportLayerEEE11method_stubIN12_GLOBAL__N_123DoCanTransportLayerTestEXadL_ZNS8_12shutdownDoneES3_EEEEvPvS3_
FN:586,_ZN3etl8delegateIFvvEE11method_stubIN12_GLOBAL__N_119EventDispatcherTestEXadL_ZNS5_12handleEvent1EvEEEEvPv
FN:586,_ZN3etl8delegateIFvvEE11method_stubIN5async11TaskContextINS4_15FreeRtosAdapterIN12_GLOBAL__N_111TestBindingEEEEEXadL_ZNSA_13handleTimeoutEvEEEEvPv
FN:586,_ZN3etl8delegateIFjvEE11method_stubIN12_GLOBAL__N_120LifecycleManagerTestEXadL_ZNS5_12getTimestampEvEEEEjPv
FN:586,_ZN3etl8delegateIFvvEE11method_stubIN4bios19CanFlex2TransceiverEXadL_ZNS5_25canFrameSentAsyncCallbackEvEEEEvPv
FN:586,_ZN3etl8delegateIFvvEE11method_stubIN5async16RunnableExecutorINS4_9IRunnableENS4_11EventPolicyINS4_11TaskContextINS4_15FreeRtosAdapterINS4_12AsyncBindingEEEEELm0EEENS4_4LockEEEXadL_ZNSF_11handleEventEvEEEEvPv
FN:586,_ZN3etl8delegateIFvRN9transport22AbstractTransportLayerEEE11method_stubIN5docan28DoCanTransportLayerContainerINS7_18DoCanDataLinkLayerIjthLj0EtEEEEXadL_ZNSB_12shutdownDoneES3_EEEEvPvS3_
FN:586,_ZN3etl8delegateIFvRN9transport22AbstractTransportLayerEEE11method_stubIN12_GLOBAL__N_114UdsIntegrationEXadL_ZNS8_16shutdownCompleteES3_EEEEvPvS3_
FN:586,_ZN3etl8delegateIFbN3uds14DiagReturnCode4TypeERS3_EE11method_stubIN12_GLOBAL__N_132MultipleReadDataByIdentifierTestEXadL_ZNS9_13checkResponseES3_S4_EEEEbPvS3_S4_
FN:586,_ZN3etl8delegateIFvvEE11method_stubIN12_GLOBAL__N_132DoCanTransportLayerContainerTestEXadL_ZNS5_12shutdownDoneEvEEEEvPv
FN:586,_ZN3etl8delegateIFvvEE11method_stubIN5async16RunnableExecutorINS4_9IRunnableENS4_11EventPolicyINS4_11TaskContextIN12_GLOBAL__N_115TestBindingMockEEELm0EEENS4_4LockEEEXadL_ZNSE_11handleEventEvEEEEvPv
FN:586,_ZN3etl8delegateIFvvEE11method_stubIN5async11TaskContextIN12_GLOBAL__N_115TestBindingMockEEEXadL_ZNS8_13handleTimeoutEvEEEEvPv
FN:586,_ZN3etl8delegateIFvvEE11method_stubIN3uds15DiagDispatcher2EXadL_ZNS5_33connectionManagerShutdownCompleteEvEEEEvPv
FN:586,_ZN3etl8delegateIFvvEE11method_stubIN3uds15DiagDispatcher2EXadL_ZNS5_12processQueueEvEEEEvPv
FN:586,_ZN3etl8delegateIFvvEE11method_stubIN4bios19CanFlex2TransceiverEXadL_ZNS5_10cyclicTaskEvEEEEvPv
FN:586,_ZN3etl8delegateIFvvEE11method_stubIN12_GLOBAL__N_115EventPolicyTestEXadL_ZNS5_11handleEventEvEEEEvPv
FN:586,_ZN3etl8delegateIFvvEE11method_stubIN5async16RunnableExecutorINS4_9IRunnableENS4_11EventPolicyIN12_GLOBAL__N_120RunnableExecutorTestELm2EEENS8_8TestLockEEEXadL_ZNSC_11handleEventEvEEEEvPv
FN:586,_ZN3etl8delegateIFvRN5async11TaskContextINS1_15FreeRtosAdapterINS1_12AsyncBindingEEEEEEE11method_stubIN12_GLOBAL__N_19AsyncTestEXadL_ZNSC_12taskFunctionES7_EEEEvPvS7_
FN:586,_ZN3etl8delegateIFvvEE11method_stubIN3uds22IncomingDiagConnectionEXadL_ZNS5_24triggerNextNestedRequestEvEEEEvPv
FN:586,_ZN3etl8delegateIFbN3uds14DiagReturnCode4TypeERS3_EE11method_stubINS1_28MultipleReadDataByIdentifierEXadL_ZNS8_20defaultCheckResponseES3_S4_EEEEbPvS3_S4_
FN:586,_ZN3etl8delegateIFvtPN3uds15AbstractDiagJobEEE11method_stubINS1_22IncomingDiagConnectionEXadL_ZNS7_25asyncSendPositiveResponseEtS3_EEEEvPvtS3_
FN:586,_ZN3etl8delegateIFjvEE11method_stubIN12_GLOBAL__N_120DoCanTransmitterTestEXadL_ZNS5_8systemUsEvEEEEjPv
FN:586,_ZN3etl8delegateIFvvEE11method_stubIN4estd13function_mockIS1_EEXadL_ZNS6_6calleeEvEEEEvPv
FN:586,_ZN3etl8delegateIFvvEE11method_stubIN12_GLOBAL__N_119EventDispatcherTestEXadL_ZNS5_12handleEvent2EvEEEEvPv
FN:586,_ZN3etl8delegateIFvvEE11method_stubIN3uds18AsyncDiagJobHelperEXadL_ZNS5_19triggerNextRequestsEvEEEEvPv
FN:586,_ZN3etl8delegateIFvvEE11method_stubIN4bios19CanFlex2TransceiverEXadL_ZNS5_20canFrameSentCallbackEvEEEEvPv
FN:586,_ZN3etl8delegateIFvtjEE11method_stubIN12_GLOBAL__N_113AsyncCallTestEXadL_ZNS5_11closureCallEtjEEEEvPvtj
FN:586,_ZN3etl8delegateIFvvEE11method_stubIN12_GLOBAL__N_113AsyncCallTestEXadL_ZNS5_12functionCallEvEEEEvPv
FN:586,_ZN3etl8delegateIFPKcmEE11method_stubIN12_GLOBAL__N_118RuntimeMonitorTestEXadL_ZNS7_11getTaskNameEmEEEES2_Pvm
FN:586,_ZN3etl8delegateIFvRN7storage10StorageJobEEE11method_stubIN12_GLOBAL__N_111StorageTestEXadL_ZNS8_11jobDoneFuncES3_EEEEvPvS3_
FN:586,_ZN3etl8delegateIFvvEE11method_stubIN12_GLOBAL__N_119EventDispatcherTestEXadL_ZNS5_12handleEvent3EvEEEEvPv
FN:586,_ZN3etl8delegateIFvRN4util7command14CommandContextEEE11method_stubIN12_GLOBAL__N_117ParentCommandTestEXadL_ZNS9_10memberFuncES4_EEEEvPvS4_
FN:586,_ZN3etl8delegateIFjvEE11method_stubIN12_GLOBAL__N_117DoCanReceiverTestEXadL_ZNS5_8systemUsEvEEEEjPv
FN:586,_ZN3etl8delegateIFvhPN3uds15AbstractDiagJobEEE11method_stubINS1_22IncomingDiagConnectionEXadL_ZNS7_25asyncSendNegativeResponseEhS3_EEEEvPvhS3_
FN:586,_ZN3etl8delegateIFvPN3uds22IncomingDiagConnectionEPKhtEE11method_stubINS1_12AsyncDiagJobIN12_GLOBAL__N_111DiagJobMockEEEXadL_ZNSC_12asyncProcessES3_S5_tEEEEvPvS3_S5_t
FN:586,_ZN3etl8delegateIFvvEE11method_stubIN12_GLOBAL__N_119FreeRtosAdapterTestEXadL_ZNS5_8startAppEvEEEEvPv
FN:586,_ZN3etl8delegateIFvRN4util7command14CommandContextEEE11method_stubIN6logger20DefaultLoggerCommandEXadL_ZNS9_12levelCommandES4_EEEEvPvS4_
FN:586,_ZN3etl8delegateIFvRN5async11TaskContextINS1_15FreeRtosAdapterIN12_GLOBAL__N_111TestBindingEEEEEEE11method_stubINS4_19FreeRtosAdapterTestEXadL_ZNSC_12taskFunctionES8_EEEEvPvS8_
FN:586,_ZN3etl8delegateIFvvEE11method_stubIN5async11TaskContextINS4_15FreeRtosAdapterINS4_12AsyncBindingEEEEEXadL_ZNS9_13handleTimeoutEvEEEEvPv
FN:586,_ZN3etl8delegateIFvRN5async11TaskContextIN12_GLOBAL__N_115TestBindingMockEEEEE11method_stubIS4_XadL_ZNS4_12taskFunctionES6_EEEEvPvS6_
FN:586,_ZN3etl8delegateIFhRKN9transport16TransportMessageEEE11method_stubIN12_GLOBAL__N_132MultipleReadDataByIdentifierTestEXadL_ZNS9_11getDidLimitES4_EEEEhPvS4_
FN:586,_ZN3etl8delegateIFvvEE11method_stubIN12_GLOBAL__N_19AsyncTestEXadL_ZNS5_8startAppEvEEEEvPv
FN:586,_ZN3etl8delegateIFvvEE11method_stubIN12_GLOBAL__N_119TaskInitializerTestEXadL_ZNS5_12taskFunctionEvEEEEvPv
FN:586,_ZN3etl8delegateIFvPN9transport16TransportMessageENS1_34ITransportMessageProcessedListener16ProcessingResultEEE11method_stubIN3uds22IncomingDiagConnectionEXadL_ZNSA_30asyncTransportMessageProcessedES3_S5_EEEEvPvS3_S5_
FN:586,_ZN3etl8delegateIFjvEE11method_stubIN12_GLOBAL__N_132DoCanTransportLayerContainerTestEXadL_ZNS5_8systemUsEvEEEEjPv
FN:586,_ZN3etl8delegateIFjvEE11method_stubIN12_GLOBAL__N_123DoCanTransportLayerTestEXadL_ZNS5_8systemUsEvEEEEjPv
FN:586,_ZN3etl8delegateIFvRN7storage10StorageJobEEE11method_stubINS1_14MappingStorageEXadL_ZNS7_8callbackES3_EEEEvPvS3_
FN:586,_ZN3etl8delegateIFvvEE11method_stubIN5async16RunnableExecutorINS4_9IRunnableENS4_11EventPolicyINS4_11TaskContextINS4_15FreeRtosAdapterIN12_GLOBAL__N_111TestBindingEEEEELm0EEENS4_4LockEEEXadL_ZNSG_11handleEventEvEEEEvPv
FN:586,_ZN3etl8delegateIFvRN4util7command14CommandContextEEE11method_stubIN12_GLOBAL__N_117SimpleCommandTestEXadL_ZNS9_10memberFuncES4_EEEEvPvS4_
FN:596,_ZN3etl8delegateIFPKcmEE17const_method_stubIN7runtime7declare14RuntimeMonitorIN12_GLOBAL__N_121TestContextStatisticsENS9_22TestFunctionStatisticsELm2ELm3EEEXadL_ZNKSC_15getIsrGroupNameEmEEEES2_Pvm
FN:596,_ZN3etl8delegateIFPKcmEE17const_method_stubIN12_GLOBAL__N_19TestNamesEXadL_ZNKS7_7getNameEmEEEES2_Pvm
FN:596,_ZN3etl8delegateIFjvEE17const_method_stubIN12_GLOBAL__N_131LifecycleManagerInitializerTestEXadL_ZNKS5_12getTimestampEvEEEEjPv
FN:596,_ZN3etl8delegateIFvRN4util7command14CommandContextEEE17const_method_stubINS2_11HelpCommandEXadL_ZNKS8_4helpES4_EEEEvPvS4_
FN:596,_ZN3etl8delegateIFvRN7runtime16StatisticsWriterERKNS1_17RuntimeStatisticsEEE17const_method_stubIN12_GLOBAL__N_130TestRuntimeStatisticsFormatterEXadL_ZNKSB_6formatES3_S6_EEEEvPvS3_S6_
FN:596,_ZN3etl8delegateIFPKcmEE17const_method_stubIN7runtime25SharedStatisticsContainerIN12_GLOBAL__N_114TestStatisticsELm5ES9_EEXadL_ZNKSA_7getNameEmEEEES2_Pvm
FN:635,_ZN3etl8delegateIFvRN4util7command14CommandContextEEE13function_stubIXadL_ZN12_GLOBAL__N_117ParentCommandTest10staticFuncES4_EEEEvPvS4_
FN:635,_ZN3etl8delegateIFvRN5async11TaskContextIN12_GLOBAL__N_115TestBindingMockEEEEE13function_stubIXadL_ZNS5_19defaultTaskFunctionES6_EEEEvPvS6_
FN:635,_ZN3etl8delegateIFvRN5async11TaskContextINS1_15FreeRtosAdapterINS1_12AsyncBindingEEEEEEE13function_stubIXadL_ZNS6_19defaultTaskFunctionES7_EEEEvPvS7_
FN:635,_ZN3etl8delegateIFvRN9transport22AbstractTransportLayerEEE13function_stubIXadL_ZNS2_21shutdownCompleteDummyES3_EEEEvPvS3_
FN:635,_ZN3etl8delegateIFvRN4util7command14CommandContextEEE13function_stubIXadL_ZN12_GLOBAL__N_117SimpleCommandTest10staticFuncES4_EEEEvPvS4_
FN:635,_ZN3etl8delegateIFjvEE13function_stubIXadL_ZN12_GLOBAL__N_18systemUsEvEEEEjPv
FN:635,_ZN3etl8delegateIFvRN5async11TaskContextINS1_15FreeRtosAdapterIN12_GLOBAL__N_111TestBindingEEEEEEE13function_stubIXadL_ZNS7_19defaultTaskFunctionES8_EEEEvPvS8_
FN:635,_ZN3etl8delegateIFvRN5async11TaskContextINS1_15FreeRtosAdapterINS1_12AsyncBindingEEEEEEE13function_stubIXadL_ZNS6_19defaultIdleFunctionES7_EEEEvPvS7_
FN:635,_ZN3etl8delegateIFvRN5async11TaskContextINS1_15FreeRtosAdapterIN12_GLOBAL__N_111TestBindingEEEEEEE13function_stubIXadL_ZNS7_19defaultIdleFunctionES8_EEEEvPvS8_
FN:635,_ZN3etl8delegateIFvRN4util7command14CommandContextEEE13function_stubIXadL_ZN12_GLOBAL__N_113dummyFunctionES4_EEEEvPvS4_
FN:635,_ZN3etl8delegateIFjvEE13function_stubIXadL_Z11systemMicrovEEEEjPv
FN:644,_ZN3etl8delegateIFvRN9transport22AbstractTransportLayerEEE11lambda_stubIZN30DemoTest_DoCanIntegration_Test8TestBodyEvEUlS3_E0_EEvPvS3_
FN:644,_ZN3etl8delegateIFvRN7storage10StorageJobEEE11lambda_stubIZN12_GLOBAL__N_145StorageTest_SameJobTriggeredFromCallback_Test8TestBodyEvEUlS3_E_EEvPvS3_
FN:644,_ZN3etl8delegateIFvRN7storage10StorageJobEEE11lambda_stubIZN12_GLOBAL__N_131StorageTest_InvalidBlockId_Test8TestBodyEvEUlS3_E_EEvPvS3_
FNDA:0,_ZN3etl8delegateIFPKcmEEC1Ev
FNDA:23,_ZN3etl8delegateIFvRN7storage10StorageJobEEE6createINS1_14MappingStorageEXadL_ZNS7_8callbackES3_EEEES5_RT_
FNDA:2,_ZN3etl8delegateIFvRN4util7command14CommandContextEEE13function_stubIXadL_ZN12_GLOBAL__N_117SimpleCommandTest10staticFuncES4_EEEEvPvS4_
FNDA:14,_ZN3etl8delegateIFvRN5async11TaskContextIN12_GLOBAL__N_115TestBindingMockEEEEEC2Ev
FNDA:89,_ZN3etl8delegateIFvRN5async11TaskContextINS1_15FreeRtosAdapterINS1_12AsyncBindingEEEEEEE18invocation_elementC2Ev
FNDA:1,_ZN3etl8delegateIFvRN9transport22AbstractTransportLayerEEE13function_stubIXadL_ZNS2_21shutdownCompleteDummyES3_EEEEvPvS3_
FNDA:108,_ZN3etl8delegateIFvRN9transport22AbstractTransportLayerEEE18invocation_elementC2Ev
FNDA:3,_ZNK3etl8delegateIFvPN9transport16TransportMessageENS1_34ITransportMessageProcessedListener16ProcessingResultEEE8is_validEv
FNDA:61,_ZNK3etl8delegateIFvvEEclEv
FNDA:89,_ZN3etl8delegateIFvRN5async11TaskContextINS1_15FreeRtosAdapterINS1_12AsyncBindingEEEEEEEC2Ev
FNDA:5,_ZNK3etl8delegateIFvRN7runtime16StatisticsWriterERKNS1_17RuntimeStatisticsEEE8is_validEv
FNDA:1,_ZN3etl8delegateIFvvEE6createIN12_GLOBAL__N_119EventDispatcherTestEXadL_ZNS5_12handleEvent2EvEEEES2_RT_
FNDA:36,_ZN3etl8delegateIFvvEE6createIN4bios19CanFlex2TransceiverEXadL_ZNS5_10cyclicTaskEvEEEES2_RT_
FNDA:1,_ZN3etl8delegateIFvRN5async11TaskContextINS1_15FreeRtosAdapterINS1_12AsyncBindingEEEEEEE11method_stubIN12_GLOBAL__N_19AsyncTestEXadL_ZNSC_12taskFunctionES7_EEEEvPvS7_
FNDA:7,_ZN3etl8delegateIFvvEE6createIN5async16RunnableExecutorINS4_9IRunnableENS4_11EventPolicyINS4_11TaskContextIN12_GLOBAL__N_115TestBindingMockEEELm0EEENS4_4LockEEEXadL_ZNSE_11handleEventEvEEEES2_RT_
FNDA:2,_ZN3etl8delegateIFvvEE11method_stubIN5async16RunnableExecutorINS4_9IRunnableENS4_11EventPolicyIN12_GLOBAL__N_120RunnableExecutorTestELm2EEENS8_8TestLockEEEXadL_ZNSC_11handleEventEvEEEEvPv
FNDA:13,_ZN3etl8delegateIFbN3uds14DiagReturnCode4TypeERS3_EE11method_stubINS1_28MultipleReadDataByIdentifierEXadL_ZNS8_20defaultCheckResponseES3_S4_EEEEbPvS3_S4_
FNDA:10,_ZN3etl8delegateIFvvEE11method_stubIN3uds22IncomingDiagConnectionEXadL_ZNS5_24triggerNextNestedRequestEvEEEEvPv
FNDA:14,_ZN3etl8delegateIFvRN5async11TaskContextIN12_GLOBAL__N_115TestBindingMockEEEEE18invocation_elementC2Ev
FNDA:17,_ZNK3etl8delegateIFvRN5async11TaskContextIN12_GLOBAL__N_115TestBindingMockEEEEE8is_validEv
FNDA:1,_ZN3etl8delegateIFvRN7runtime16StatisticsWriterERKNS1_17RuntimeStatisticsEEE6createIN12_GLOBAL__N_130TestRuntimeStatisticsFormatterEXadL_ZNKSB_6formatES3_S6_EEEES8_RKT_
FNDA:0,_ZN3etl8delegateIFvvEE11method_stubIN12_GLOBAL__N_115EventPolicyTestEXadL_ZNS5_11handleEventEvEEEEvPv
FNDA:90,_ZN3etl8delegateIFvRN5async11TaskContextINS1_15FreeRtosAdapterIN12_GLOBAL__N_111TestBindingEEEEEEE18invocation_elementC2Ev
FNDA:0,_ZN3etl8delegateIFvvEE11method_stubIN4bios19CanFlex2TransceiverEXadL_ZNS5_10cyclicTaskEvEEEEvPv
FNDA:4,_ZN3etl8delegateIFvvEE11method_stubIN3uds15DiagDispatcher2EXadL_ZNS5_12processQueueEvEEEEvPv
FNDA:44,_ZNK3etl8delegateIFbN3uds14DiagReturnCode4TypeERS3_EE8is_validEv
FNDA:13,_ZN3etl8delegateIFPKcmEEC2EPvPFS2_S5_mE
FNDA:11,_ZNK3etl8delegateIFvvEE18invocation_elementeqERKS3_
FNDA:5,_ZNK3etl8delegateIFvRN7runtime16StatisticsWriterERKNS1_17RuntimeStatisticsEEEclES3_S6_
FNDA:0,_ZN3etl22delegate_uninitialisedC2EPKci
FNDA:5,_ZN3etl8delegateIFvRN5async11TaskContextINS1_15FreeRtosAdapterIN12_GLOBAL__N_111TestBindingEEEEEEEC2EPvPFvSB_S8_E
FNDA:2,_ZN3etl8delegateIFvRN5async11TaskContextINS1_15FreeRtosAdapterIN12_GLOBAL__N_111TestBindingEEEEEEE6createIXadL_ZNS7_19defaultTaskFunctionES8_EEEESA_v
FNDA:3,_ZN3etl8delegateIFhRKN9transport16TransportMessageEEE18invocation_elementC2EPvPFhS8_S4_E
FNDA:46,_ZN3etl8delegateIFvRN7storage10StorageJobEEE18invocation_elementC2EPvPFvS7_S3_E
FNDA:2,_ZN3etl8delegateIFvvEE6createIN12_GLOBAL__N_115EventPolicyTestEXadL_ZNS5_11handleEventEvEEEES2_RT_
FNDA:20,_ZN3etl8delegateIFvtPN3uds15AbstractDiagJobEEE11method_stubINS1_22IncomingDiagConnectionEXadL_ZNS7_25asyncSendPositiveResponseEtS3_EEEEvPvtS3_
FNDA:102,_ZN3etl8delegateIFvvEE6createIN3uds15DiagDispatcher2EXadL_ZNS5_12processQueueEvEEEES2_RT_
FNDA:75,_ZNK3etl8delegateIFPKcmEE8is_validEv
FNDA:2,_ZN3etl8delegateIFvvEE11method_stubIN4estd13function_mockIS1_EEXadL_ZNS6_6calleeEvEEEEvPv
FNDA:169,_ZN3etl8delegateIFjvEE11method_stubIN12_GLOBAL__N_120DoCanTransmitterTestEXadL_ZNS5_8systemUsEvEEEEjPv
FNDA:194,_ZN3etl8delegateIFvvEE18invocation_elementC2Ev
FNDA:3,_ZN3etl8delegateIFvRN5async11TaskContextINS1_15FreeRtosAdapterIN12_GLOBAL__N_111TestBindingEEEEEEE6createINS4_19FreeRtosAdapterTestEXadL_ZNSC_12taskFunctionES8_EEEESA_RT_
FNDA:2,_ZN3etl8delegateIFjvEE6createIN12_GLOBAL__N_123DoCanTransportLayerTestEXadL_ZNS5_8systemUsEvEEEES2_RT_
FNDA:0,_ZN3etl8delegateIFvRN5async11TaskContextINS1_15FreeRtosAdapterIN12_GLOBAL__N_111TestBindingEEEEEEE13function_stubIXadL_ZNS7_19defaultTaskFunctionES8_EEEEvPvS8_
FNDA:0,_ZN3etl8delegateIFjvEE13function_stubIXadL_ZN12_GLOBAL__N_18systemUsEvEEEEjPv
FNDA:0,_ZNK3etl8delegateIFbjEEcvbEv
FNDA:87,_ZN3etl8delegateIFvvEE6createIN5async16RunnableExecutorINS4_9IRunnableENS4_11EventPolicyINS4_11TaskContextINS4_15FreeRtosAdapterINS4_12AsyncBindingEEEEELm0EEENS4_4LockEEEXadL_ZNSF_11handleEventEvEEEES2_RT_
FNDA:75,_ZNK3etl8delegateIFvvEE8is_validEv
FNDA:0,_ZN3etl8delegateIFvvEE11method_stubIN4bios19CanFlex2TransceiverEXadL_ZNS5_20canFrameSentCallbackEvEEEEvPv
FNDA:87,_ZN3etl8delegateIFvvEE6createIN5async11TaskContextINS4_15FreeRtosAdapterINS4_12AsyncBindingEEEEEXadL_ZNS9_13handleTimeoutEvEEEES2_RT_
FNDA:2,_ZNK3etl8delegateIFvPN3uds22IncomingDiagConnectionEPKhtEEclES3_S5_t
FNDA:1,_ZN3etl8delegateIFjvEE6createIN12_GLOBAL__N_131LifecycleManagerInitializerTestEXadL_ZNKS5_12getTimestampEvEEEES2_RKT_
FNDA:2,_ZN3etl8delegateIFvRN5async11TaskContextINS1_15FreeRtosAdapterINS1_12AsyncBindingEEEEEEE18invocation_elementC2EPvPFvSB_S7_E
FNDA:1,_ZN3etl8delegateIFvtjEE11method_stubIN12_GLOBAL__N_113AsyncCallTestEXadL_ZNS5_11closureCallEtjEEEEvPvtj
FNDA:1,_ZN3etl8delegateIFvRN5async11TaskContextINS1_15FreeRtosAdapterINS1_12AsyncBindingEEEEEEE6createIXadL_ZNS6_19defaultTaskFunctionES7_EEEES9_v
FNDA:256,_ZN3etl8delegateIFvhPN3uds15AbstractDiagJobEEEC2EPvPFvS6_hS3_E
FNDA:11,_ZN3etl8delegateIFvvEE11method_stubIN3uds18AsyncDiagJobHelperEXadL_ZNS5_19triggerNextRequestsEvEEEEvPv
FNDA:7,_ZN3etl8delegateIFvvEE6createIN5async11TaskContextIN12_GLOBAL__N_115TestBindingMockEEEXadL_ZNS8_13handleTimeoutEvEEEES2_RT_
FNDA:2,_ZN3etl8delegateIFvvEE11method_stubIN12_GLOBAL__N_119EventDispatcherTestEXadL_ZNS5_12handleEvent2EvEEEEvPv
FNDA:2,_ZN3etl8delegateIFvRN5async11TaskContextINS1_15FreeRtosAdapterINS1_12AsyncBindingEEEEEEEC2EPvPFvSA_S7_E
FNDA:19,_ZN3etl8delegateIFjvEE11method_stubIN12_GLOBAL__N_120LifecycleManagerTestEXadL_ZNS5_12getTimestampEvEEEEjPv
FNDA:28,_ZN3etl8delegateIFvRN4util7command14CommandContextEEEC2EPvPFvS7_S4_E
FNDA:0,_ZN3etl8delegateIFvvEE11method_stubIN5async11TaskContextINS4_15FreeRtosAdapterIN12_GLOBAL__N_111TestBindingEEEEEXadL_ZNSA_13handleTimeoutEvEEEEvPv
FNDA:3,_ZN3etl8delegateIFvvEE11method_stubIN12_GLOBAL__N_119EventDispatcherTestEXadL_ZNS5_12handleEvent1EvEEEEvPv
FNDA:6,_ZN3etl8delegateIFjvEE6createIN12_GLOBAL__N_120LifecycleManagerTestEXadL_ZNS5_12getTimestampEvEEEES2_RT_
FNDA:5,_ZN3etl8delegateIFvvEE6createIN12_GLOBAL__N_119FreeRtosAdapterTestEXadL_ZNS5_8startAppEvEEEES2_RT_
FNDA:64,_ZNK3etl8delegateIFvRN7storage10StorageJobEEEcvbEv
FNDA:72,_ZN3etl8delegateIFvRN7storage10StorageJobEEEC2Ev
FNDA:1,_ZN3etl8delegateIFvtjEE18invocation_elementC2EPvPFvS4_tjE
FNDA:2,_ZN3etl8delegateIFvRN9transport22AbstractTransportLayerEEE11method_stubIN12_GLOBAL__N_123DoCanTransportLayerTestEXadL_ZNS8_12shutdownDoneES3_EEEEvPvS3_
FNDA:23,_ZN3etl8delegateIFvRN7storage10StorageJobEEE6createIN12_GLOBAL__N_111StorageTestEXadL_ZNS8_11jobDoneFuncES3_EEEES5_RT_
FNDA:3,_ZN3etl8delegateIFvvEE6createIN12_GLOBAL__N_119TaskInitializerTestEXadL_ZNS5_12taskFunctionEvEEEES2_RT_
FNDA:4,_ZN3etl8delegateIFvRN7storage10StorageJobEEEC2IZN12_GLOBAL__N_131StorageTest_InvalidBlockId_Test8TestBodyEvEUlS3_E_vEERT_
FNDA:1,_ZN3etl8delegateIFvvEE6createIN12_GLOBAL__N_132DoCanTransportLayerContainerTestEXadL_ZNS5_12shutdownDoneEvEEEES2_RT_
FNDA:1,_ZN3etl8delegateIFvRN4util7command14CommandContextEEE6createIN12_GLOBAL__N_117SimpleCommandTestEXadL_ZNS9_10memberFuncES4_EEEES6_RT_
FNDA:2,_ZN3etl8delegateIFvRN9transport22AbstractTransportLayerEEE6createIN5docan28DoCanTransportLayerContainerINS7_18DoCanDataLinkLayerIjthLj0EtEEEEXadL_ZNSB_12shutdownDoneES3_EEEES5_RT_
FNDA:29,_ZN3etl8delegateIFbN3uds14DiagReturnCode4TypeERS3_EE18invocation_elementC2EPvPFbS8_S3_S4_E
FNDA:9,_ZN3etl8delegateIFvPN3uds22IncomingDiagConnectionEPKhtEE6createINS1_12AsyncDiagJobIN12_GLOBAL__N_111DiagJobMockEEEXadL_ZNSC_12asyncProcessES3_S5_tEEEES7_RT_
FNDA:270,_ZN3etl8delegateIFvtPN3uds15AbstractDiagJobEEE18invocation_elementC2EPvPFvS7_tS3_E
FNDA:0,_ZN3etl8delegateIFvvEE11method_stubIN5async16RunnableExecutorINS4_9IRunnableENS4_11EventPolicyINS4_11TaskContextINS4_15FreeRtosAdapterINS4_12AsyncBindingEEEEELm0EEENS4_4LockEEEXadL_ZNSF_11handleEventEvEEEEvPv
FNDA:36,_ZN3etl8delegateIFvvEE6createIN4bios19CanFlex2TransceiverEXadL_ZNS5_20canFrameSentCallbackEvEEEES2_RT_
FNDA:77,_ZN3etl8delegateIFvRN7storage10StorageJobEEE18invocation_elementC2Ev
FNDA:8,_ZN3etl8delegateIFvRN5async11TaskContextIN12_GLOBAL__N_115TestBindingMockEEEEE13function_stubIXadL_ZNS5_19defaultTaskFunctionES6_EEEEvPvS6_
FNDA:1,_ZN3etl8delegateIFvRN4util7command14CommandContextEEE13function_stubIXadL_ZN12_GLOBAL__N_117ParentCommandTest10staticFuncES4_EEEEvPvS4_
FNDA:1,_ZN3etl8delegateIFbN3uds14DiagReturnCode4TypeERS3_EE6createIN12_GLOBAL__N_132MultipleReadDataByIdentifierTestEXadL_ZNS9_13checkResponseES3_S4_EEEES6_RT_
FNDA:7,_ZN3etl8delegateIFvvEE11method_stubIN4bios19CanFlex2TransceiverEXadL_ZNS5_25canFrameSentAsyncCallbackEvEEEEvPv
FNDA:2,_ZNK3etl8delegateIFvPN3uds22IncomingDiagConnectionEPKhtEE8is_validEv
FNDA:3,_ZN3etl8delegateIFvvEE11method_stubIN5async16RunnableExecutorINS4_9IRunnableENS4_11EventPolicyINS4_11TaskContextIN12_GLOBAL__N_115TestBindingMockEEELm0EEENS4_4LockEEEXadL_ZNSE_11handleEventEvEEEEvPv
FNDA:1,_ZN3etl8delegateIFvvEE11method_stubIN12_GLOBAL__N_132DoCanTransportLayerContainerTestEXadL_ZNS5_12shutdownDoneEvEEEEvPv
FNDA:7,_ZN3etl8delegateIFvRN9transport22AbstractTransportLayerEEE18invocation_elementC2EPvPFvS7_S3_E
FNDA:4,_ZNK3etl8delegateIFvRN5async11TaskContextINS1_15FreeRtosAdapterIN12_GLOBAL__N_111TestBindingEEEEEEE8is_validEv
FNDA:2,_ZN3etl8delegateIFbN3uds14DiagReturnCode4TypeERS3_EE11method_stubIN12_GLOBAL__N_132MultipleReadDataByIdentifierTestEXadL_ZNS9_13checkResponseES3_S4_EEEEbPvS3_S4_
FNDA:270,_ZN3etl8delegateIFvtPN3uds15AbstractDiagJobEEE6createINS1_22IncomingDiagConnectionEXadL_ZNS7_25asyncSendPositiveResponseEtS3_EEEES5_RT_
FNDA:28,_ZN3etl8delegateIFbN3uds14DiagReturnCode4TypeERS3_EE6createINS1_28MultipleReadDataByIdentifierEXadL_ZNS8_20defaultCheckResponseES3_S4_EEEES6_RT_
FNDA:87,_ZN3etl8delegateIFvvEE6createIN5async16RunnableExecutorINS4_9IRunnableENS4_11EventPolicyINS4_11TaskContextINS4_15FreeRtosAdapterIN12_GLOBAL__N_111TestBindingEEEEELm0EEENS4_4LockEEEXadL_ZNSG_11handleEventEvEEEES2_RT_
FNDA:2,_ZN3etl8delegateIFvRN9transport22AbstractTransportLayerEEE11method_stubIN5docan28DoCanTransportLayerContainerINS7_18DoCanDataLinkLayerIjthLj0EtEEEEXadL_ZNSB_12shutdownDoneES3_EEEEvPvS3_
FNDA:1,_ZN3etl8delegateIFvRN9transport22AbstractTransportLayerEEE11method_stubIN12_GLOBAL__N_114UdsIntegrationEXadL_ZNS8_16shutdownCompleteES3_EEEEvPvS3_
FNDA:28,_ZN3etl8delegateIFvRN4util7command14CommandContextEEE18invocation_elementC2EPvPFvS8_S4_E
FNDA:0,_ZN3etl8delegateIFvRN5async11TaskContextINS1_15FreeRtosAdapterIN12_GLOBAL__N_111TestBindingEEEEEEE6createIXadL_ZNS7_19defaultIdleFunctionES8_EEEESA_v
FNDA:62,_ZN3etl8delegateIFjvEEC2EPvPFjS3_E
FNDA:75,_ZNK3etl8delegateIFPKcmEEclEm
FNDA:2139,_ZNK3etl8delegateIFjvEE8is_validEv
FNDA:0,_ZN3etl8delegateIFvRN5async11TaskContextINS1_15FreeRtosAdapterINS1_12AsyncBindingEEEEEEE13function_stubIXadL_ZNS6_19defaultTaskFunctionES7_EEEEvPvS7_
FNDA:13,_ZN3etl8delegateIFPKcmEE18invocation_elementC2EPvPFS2_S6_mE
FNDA:1,_ZN3etl8delegateIFvvEE11method_stubIN3uds15DiagDispatcher2EXadL_ZNS5_33connectionManagerShutdownCompleteEvEEEEvPv
FNDA:59,_ZN3etl8delegateIFPKcmEE17const_method_stubIN12_GLOBAL__N_19TestNamesEXadL_ZNKS7_7getNameEmEEEES2_Pvm
FNDA:1,_ZN3etl8delegateIFvvEE6createIN12_GLOBAL__N_119EventDispatcherTestEXadL_ZNS5_12handleEvent3EvEEEES2_RT_
FNDA:1,_ZN3etl8delegateIFvvEE6createIN5async16RunnableExecutorINS4_9IRunnableENS4_11EventPolicyIN12_GLOBAL__N_120RunnableExecutorTestELm2EEENS8_8TestLockEEEXadL_ZNSC_11handleEventEvEEEES2_RT_
FNDA:10,_ZN3etl8delegateIFvvEE11method_stubIN5async11TaskContextIN12_GLOBAL__N_115TestBindingMockEEEXadL_ZNS8_13handleTimeoutEvEEEEvPv
FNDA:3,_ZNK3etl8delegateIFvPN9transport16TransportMessageENS1_34ITransportMessageProcessedListener16ProcessingResultEEEclES3_S5_
FNDA:0,_ZN3etl8delegateIFvRN9transport22AbstractTransportLayerEEE11lambda_stubIZN30DemoTest_DoCanIntegration_Test8TestBodyEvEUlS3_E0_EEvPvS3_
FNDA:1,_ZN3etl8delegateIFPKcmEE17const_method_stubIN7runtime7declare14RuntimeMonitorIN12_GLOBAL__N_121TestContextStatisticsENS9_22TestFunctionStatisticsELm2ELm3EEEXadL_ZNKSC_15getIsrGroupNameEmEEEES2_Pvm
FNDA:19,_ZNK3etl8delegateIFvRN4util7command14CommandContextEEE8is_validEv
FNDA:1,_ZN3etl8delegateIFjvEE6createIN12_GLOBAL__N_132DoCanTransportLayerContainerTestEXadL_ZNS5_8systemUsEvEEEES2_RT_
FNDA:56,_ZN3etl8delegateIFbN3uds14DiagReturnCode4TypeERS3_EEC2Ev
FNDA:29,_ZN3etl8delegateIFbN3uds14DiagReturnCode4TypeERS3_EEC2EPvPFbS7_S3_S4_E
FNDA:5,_ZN3etl8delegateIFvRN4util7command14CommandContextEEE6createIXadL_ZN12_GLOBAL__N_117ParentCommandTest10staticFuncES4_EEEES6_v
FNDA:270,_ZN3etl8delegateIFvtPN3uds15AbstractDiagJobEEEC2EPvPFvS6_tS3_E
FNDA:253,_ZN3etl8delegateIFvPN9transport16TransportMessageENS1_34ITransportMessageProcessedListener16ProcessingResultEEE18invocation_elementC2EPvPFvS9_S3_S5_E
FNDA:7,_ZN3etl8delegateIFPKcmEE6createIN12_GLOBAL__N_19TestNamesEXadL_ZNKS7_7getNameEmEEEES4_RKT_
FNDA:1,_ZN3etl8delegateIFvtjEEC2EPvPFvS3_tjE
FNDA:0,_ZN3etl8delegateIFvvEE11method_stubIN5async11TaskContextINS4_15FreeRtosAdapterINS4_12AsyncBindingEEEEEXadL_ZNS9_13handleTimeoutEvEEEEvPv
FNDA:0,_ZN3etl8delegateIFvRN5async11TaskContextINS1_15FreeRtosAdapterIN12_GLOBAL__N_111TestBindingEEEEEEE11method_stubINS4_19FreeRtosAdapterTestEXadL_ZNSC_12taskFunctionES8_EEEEvPvS8_
FNDA:1,_ZN3etl8delegateIFvRN5async11TaskContextIN12_GLOBAL__N_115TestBindingMockEEEEE6createIS4_XadL_ZNS4_12taskFunctionES6_EEEES8_RT_
FNDA:9,_ZN3etl8delegateIFvRN4util7command14CommandContextEEE11method_stubIN6logger20DefaultLoggerCommandEXadL_ZNS9_12levelCommandES4_EEEEvPvS4_
FNDA:3,_ZN3etl8delegateIFvRN4util7command14CommandContextEEE6createIXadL_ZN12_GLOBAL__N_117SimpleCommandTest10staticFuncES4_EEEES6_v
FNDA:2139,_ZNK3etl8delegateIFjvEEclEv
FNDA:253,_ZN3etl8delegateIFvPN9transport16TransportMessageENS1_34ITransportMessageProcessedListener16ProcessingResultEEEC2EPvPFvS8_S3_S5_E
FNDA:181,_ZN3etl8delegateIFvvEEC2Ev
FNDA:0,_ZNK3etl8delegateIFbjEE8is_validEv
FNDA:28,_ZN3etl8delegateIFhRKN9transport16TransportMessageEEEC2Ev
FNDA:0,_ZN3etl8delegateIFvvEE11method_stubIN12_GLOBAL__N_119TaskInitializerTestEXadL_ZNS5_12taskFunctionEvEEEEvPv
FNDA:1,_ZN3etl8delegateIFvvEE11method_stubIN12_GLOBAL__N_19AsyncTestEXadL_ZNS5_8startAppEvEEEEvPv
FNDA:3,_ZN3etl8delegateIFhRKN9transport16TransportMessageEEE11method_stubIN12_GLOBAL__N_132MultipleReadDataByIdentifierTestEXadL_ZNS9_11getDidLimitES4_EEEEhPvS4_
FNDA:1,_ZN3etl8delegateIFPKcmEE6createIN7runtime7declare14RuntimeMonitorIN12_GLOBAL__N_121TestContextStatisticsENS9_22TestFunctionStatisticsELm2ELm3EEEXadL_ZNKSC_15getIsrGroupNameEmEEEES4_RKT_
FNDA:256,_ZN3etl8delegateIFvhPN3uds15AbstractDiagJobEEE18invocation_elementC2EPvPFvS7_hS3_E
FNDA:3,_ZN3etl8delegateIFvvEE6createIN12_GLOBAL__N_19AsyncTestEXadL_ZNS5_8startAppEvEEEES2_RT_
FNDA:36,_ZN3etl8delegateIFvvEE6createIN4bios19CanFlex2TransceiverEXadL_ZNS5_25canFrameSentAsyncCallbackEvEEEES2_RT_
FNDA:4,_ZN3etl8delegateIFPKcmEE18invocation_elementC2Ev
FNDA:2,_ZN3etl8delegateIFjvEE6createIXadL_ZN12_GLOBAL__N_18systemUsEvEEEES2_v
FNDA:1,_ZN3etl8delegateIFvRN5async11TaskContextIN12_GLOBAL__N_115TestBindingMockEEEEE11method_stubIS4_XadL_ZNS4_12taskFunctionES6_EEEEvPvS6_
FNDA:56,_ZN3etl8delegateIFbN3uds14DiagReturnCode4TypeERS3_EE18invocation_elementC2Ev
FNDA:1,_ZN3etl8delegateIFvRN4util7command14CommandContextEEE11method_stubIN12_GLOBAL__N_117SimpleCommandTestEXadL_ZNS9_10memberFuncES4_EEEEvPvS4_
FNDA:1,_ZN3etl8delegateIFvvEE6createIN3uds15DiagDispatcher2EXadL_ZNS5_33connectionManagerShutdownCompleteEvEEEES2_RT_
FNDA:1,_ZN3etl8delegateIFvRN9transport22AbstractTransportLayerEEE6createIN12_GLOBAL__N_114UdsIntegrationEXadL_ZNS8_16shutdownCompleteES3_EEEES5_RT_
FNDA:0,_ZN3etl8delegateIFjvEE13function_stubIXadL_Z11systemMicrovEEEEjPv
FNDA:0,_ZN3etl8delegateIFvvEE18invocation_elementC1EPvPFvS4_E
FNDA:1,_ZN3etl8delegateIFvRN7storage10StorageJobEEEC2IZN12_GLOBAL__N_145StorageTest_SameJobTriggeredFromCallback_Test8TestBodyEvEUlS3_E_vEERT_
FNDA:734,_ZN3etl8delegateIFjvEE11method_stubIN12_GLOBAL__N_123DoCanTransportLayerTestEXadL_ZNS5_8systemUsEvEEEEjPv
FNDA:9,_ZN3etl8delegateIFjvEE11method_stubIN12_GLOBAL__N_132DoCanTransportLayerContainerTestEXadL_ZNS5_8systemUsEvEEEEjPv
FNDA:3,_ZN3etl8delegateIFvPN9transport16TransportMessageENS1_34ITransportMessageProcessedListener16ProcessingResultEEE11method_stubIN3uds22IncomingDiagConnectionEXadL_ZNSA_30asyncTransportMessageProcessedES3_S5_EEEEvPvS3_S5_
FNDA:250,_ZN3etl8delegateIFvvEE6createIN3uds22IncomingDiagConnectionEXadL_ZNS5_24triggerNextNestedRequestEvEEEES2_RT_
FNDA:8,_ZN3etl8delegateIFvRN4util7command14CommandContextEEE6createINS2_11HelpCommandEXadL_ZNKS8_4helpES4_EEEES6_RKT_
FNDA:62,_ZN3etl8delegateIFjvEE18invocation_elementC2EPvPFjS4_E
FNDA:0,_ZNK3etl8delegateIFvvEEcvbEv
FNDA:37,_ZN3etl8delegateIFvvEE6createIN3uds18AsyncDiagJobHelperEXadL_ZNS5_19triggerNextRequestsEvEEEES2_RT_
FNDA:2,_ZN3etl8delegateIFvvEE6createIN4estd13function_mockIS1_EEXadL_ZNS6_6calleeEvEEEES2_RT_
FNDA:0,_ZN3etl8delegateIFvRN5async11TaskContextINS1_15FreeRtosAdapterINS1_12AsyncBindingEEEEEEE6createIXadL_ZNS6_19defaultIdleFunctionES7_EEEES9_v
FNDA:0,_ZN3etl8delegateIFvvEE11method_stubIN5async16RunnableExecutorINS4_9IRunnableENS4_11EventPolicyINS4_11TaskContextINS4_15FreeRtosAdapterIN12_GLOBAL__N_111TestBindingEEEEELm0EEENS4_4LockEEEXadL_ZNSG_11handleEventEvEEEEvPv
FNDA:29,_ZN3etl8delegateIFvRN7storage10StorageJobEEE11method_stubINS1_14MappingStorageEXadL_ZNS7_8callbackES3_EEEEvPvS3_
FNDA:0,_ZNK3etl8delegateIFvRN5async11TaskContextINS1_15FreeRtosAdapterIN12_GLOBAL__N_111TestBindingEEEEEEEclES8_
FNDA:12,_ZNK3etl8delegateIFhRKN9transport16TransportMessageEEE8is_validEv
FNDA:107,_ZN3etl8delegateIFvRN9transport22AbstractTransportLayerEEEC2Ev
FNDA:3,_ZNK3etl8delegateIFhRKN9transport16TransportMessageEEEclES4_
FNDA:4,_ZN3etl8delegateIFvRN7storage10StorageJobEEE11lambda_stubIZN12_GLOBAL__N_131StorageTest_InvalidBlockId_Test8TestBodyEvEUlS3_E_EEvPvS3_
FNDA:881,_ZN3etl8delegateIFvvEE18invocation_elementC2EPvPFvS4_E
FNDA:2,_ZN3etl8delegateIFvRN9transport22AbstractTransportLayerEEE6createIN12_GLOBAL__N_123DoCanTransportLayerTestEXadL_ZNS8_12shutdownDoneES3_EEEES5_RT_
FNDA:14,_ZN3etl8delegateIFPKcmEE17const_method_stubIN7runtime25SharedStatisticsContainerIN12_GLOBAL__N_114TestStatisticsELm5ES9_EEXadL_ZNKSA_7getNameEmEEEES2_Pvm
FNDA:87,_ZN3etl8delegateIFvvEE6createIN5async11TaskContextINS4_15FreeRtosAdapterIN12_GLOBAL__N_111TestBindingEEEEEXadL_ZNSA_13handleTimeoutEvEEEES2_RT_
FNDA:253,_ZN3etl8delegateIFvPN9transport16TransportMessageENS1_34ITransportMessageProcessedListener16ProcessingResultEEE6createIN3uds22IncomingDiagConnectionEXadL_ZNSA_30asyncTransportMessageProcessedES3_S5_EEEES7_RT_
FNDA:0,_ZN3etl8delegateIFvvEEC1EPvPFvS3_E
FNDA:8,_ZN3etl8delegateIFvRN4util7command14CommandContextEEE6createIN6logger20DefaultLoggerCommandEXadL_ZNS9_12levelCommandES4_EEEES6_RT_
FNDA:6,_ZNK3etl8delegateIFvRN9transport22AbstractTransportLayerEEEclES3_
FNDA:881,_ZN3etl8delegateIFvvEEC2EPvPFvS3_E
FNDA:1,_ZN3etl8delegateIFvvEE6createIN12_GLOBAL__N_113AsyncCallTestEXadL_ZNS5_12functionCallEvEEEES2_RT_
FNDA:6,_ZNK3etl8delegateIFvhPN3uds15AbstractDiagJobEEE8is_validEv
FNDA:9,_ZNK3etl8delegateIFvRN5async11TaskContextIN12_GLOBAL__N_115TestBindingMockEEEEEclES6_
FNDA:6,_ZNK3etl8delegateIFvRN9transport22AbstractTransportLayerEEE8is_validEv
FNDA:3,_ZNK3etl8delegateIFvRN5async11TaskContextINS1_15FreeRtosAdapterINS1_12AsyncBindingEEEEEEE8is_validEv
FNDA:1,_ZN3etl8delegateIFvRN9transport22AbstractTransportLayerEEE6assignEPvPFvS6_S3_E
FNDA:0,_ZNK3etl8delegateIFvN3tcp14AbstractSocket9ErrorCodeEEEcvbEv
FNDA:48,_ZN3etl8delegateIFjvEE17const_method_stubIN12_GLOBAL__N_131LifecycleManagerInitializerTestEXadL_ZNKS5_12getTimestampEvEEEEjPv
FNDA:5,_ZN3etl8delegateIFvRN5async11TaskContextINS1_15FreeRtosAdapterIN12_GLOBAL__N_111TestBindingEEEEEEE18invocation_elementC2EPvPFvSC_S8_E
FNDA:8,_ZN3etl8delegateIFvRN5async11TaskContextIN12_GLOBAL__N_115TestBindingMockEEEEE18invocation_elementC2EPvPFvSA_S6_E
FNDA:46,_ZN3etl8delegateIFvRN7storage10StorageJobEEEC2EPvPFvS6_S3_E
FNDA:1,_ZN3etl8delegateIFvvEE11method_stubIN12_GLOBAL__N_113AsyncCallTestEXadL_ZNS5_12functionCallEvEEEEvPv
FNDA:7,_ZN3etl8delegateIFvRN5async11TaskContextIN12_GLOBAL__N_115TestBindingMockEEEEE6createIXadL_ZNS5_19defaultTaskFunctionES6_EEEES8_v
FNDA:1,_ZNK3etl8delegateIFvRN5async11TaskContextINS1_15FreeRtosAdapterINS1_12AsyncBindingEEEEEEEclES7_
FNDA:0,_ZN3etl8delegateIFvRN5async11TaskContextINS1_15FreeRtosAdapterINS1_12AsyncBindingEEEEEEE13function_stubIXadL_ZNS6_19defaultIdleFunctionES7_EEEEvPvS7_
FNDA:15,_ZNK3etl8delegateIFbN3uds14DiagReturnCode4TypeERS3_EEclES3_S4_
FNDA:1,_ZN3etl8delegateIFvRN5async11TaskContextINS1_15FreeRtosAdapterINS1_12AsyncBindingEEEEEEE6createIN12_GLOBAL__N_19AsyncTestEXadL_ZNSC_12taskFunctionES7_EEEES9_RT_
FNDA:3,_ZN3etl8delegateIFvRN4util7command14CommandContextEEE6createIN12_GLOBAL__N_117ParentCommandTestEXadL_ZNS9_10memberFuncES4_EEEES6_RT_
FNDA:19,_ZNK3etl8delegateIFvRN4util7command14CommandContextEEEclES4_
FNDA:6,_ZNK3etl8delegateIFvhPN3uds15AbstractDiagJobEEEclEhS3_
FNDA:11,_ZNK3etl8delegateIFvvEEeqERKS2_
FNDA:8,_ZN3etl8delegateIFvRN5async11TaskContextIN12_GLOBAL__N_115TestBindingMockEEEEEC2EPvPFvS9_S6_E
FNDA:90,_ZN3etl8delegateIFvRN5async11TaskContextINS1_15FreeRtosAdapterIN12_GLOBAL__N_111TestBindingEEEEEEEC2Ev
FNDA:24,_ZN3etl8delegateIFjvEE6createIN12_GLOBAL__N_120DoCanTransmitterTestEXadL_ZNS5_8systemUsEvEEEES2_RT_
FNDA:20,_ZNK3etl8delegateIFvtPN3uds15AbstractDiagJobEEE8is_validEv
FNDA:7,_ZN3etl8delegateIFvRN9transport22AbstractTransportLayerEEEC2EPvPFvS6_S3_E
FNDA:2,_ZN3etl8delegateIFPKcmEE6createIN7runtime25SharedStatisticsContainerIN12_GLOBAL__N_114TestStatisticsELm5ES9_EEXadL_ZNKSA_7getNameEmEEEES4_RKT_
FNDA:28,_ZN3etl8delegateIFhRKN9transport16TransportMessageEEE18invocation_elementC2Ev
FNDA:1,_ZNK3etl8delegateIFvtjEEclEtj
FNDA:128,_ZNK3etl8delegateIFvRN7storage10StorageJobEEE8is_validEv
FNDA:0,_ZN3etl8delegateIFvRN5async11TaskContextINS1_15FreeRtosAdapterIN12_GLOBAL__N_111TestBindingEEEEEEE13function_stubIXadL_ZNS7_19defaultIdleFunctionES8_EEEEvPvS8_
FNDA:1,_ZN3etl8delegateIFPKcmEE11method_stubIN12_GLOBAL__N_118RuntimeMonitorTestEXadL_ZNS7_11getTaskNameEmEEEES2_Pvm
FNDA:25,_ZN3etl8delegateIFjvEE6createIN12_GLOBAL__N_117DoCanReceiverTestEXadL_ZNS5_8systemUsEvEEEES2_RT_
FNDA:13,_ZN3etl8delegateIFvvEEC1Ev
FNDA:9,_ZN3etl8delegateIFvPN3uds22IncomingDiagConnectionEPKhtEE18invocation_elementC2EPvPFvS9_S3_S5_tE
FNDA:1,_ZN3etl8delegateIFvRN7runtime16StatisticsWriterERKNS1_17RuntimeStatisticsEEE18invocation_elementC2EPvPFvSA_S3_S6_E
FNDA:64,_ZNK3etl8delegateIFvRN7storage10StorageJobEEEclES3_
FNDA:256,_ZN3etl8delegateIFvhPN3uds15AbstractDiagJobEEE6createINS1_22IncomingDiagConnectionEXadL_ZNS7_25asyncSendNegativeResponseEhS3_EEEES5_RT_
FNDA:3,_ZN3etl8delegateIFPKcmEE6createIN12_GLOBAL__N_118RuntimeMonitorTestEXadL_ZNS7_11getTaskNameEmEEEES4_RT_
FNDA:1160,_ZN3etl8delegateIFjvEE11method_stubIN12_GLOBAL__N_117DoCanReceiverTestEXadL_ZNS5_8systemUsEvEEEEjPv
FNDA:1,_ZN3etl8delegateIFvRN4util7command14CommandContextEEE11method_stubIN12_GLOBAL__N_117ParentCommandTestEXadL_ZNS9_10memberFuncES4_EEEEvPvS4_
FNDA:2,_ZN3etl8delegateIFvRN9transport22AbstractTransportLayerEEE6createIXadL_ZNS2_21shutdownCompleteDummyES3_EEEES5_v
FNDA:4,_ZN3etl8delegateIFPKcmEEC2Ev
FNDA:3,_ZN3etl8delegateIFvvEE11method_stubIN12_GLOBAL__N_119EventDispatcherTestEXadL_ZNS5_12handleEvent3EvEEEEvPv
FNDA:29,_ZN3etl8delegateIFvRN7storage10StorageJobEEE11method_stubIN12_GLOBAL__N_111StorageTestEXadL_ZNS8_11jobDoneFuncES3_EEEEvPvS3_
FNDA:9,_ZN3etl8delegateIFvPN3uds22IncomingDiagConnectionEPKhtEEC2EPvPFvS8_S3_S5_tE
FNDA:3,_ZN3etl8delegateIFhRKN9transport16TransportMessageEEE6createIN12_GLOBAL__N_132MultipleReadDataByIdentifierTestEXadL_ZNS9_11getDidLimitES4_EEEES6_RT_
FNDA:2,_ZN3etl8delegateIFvPN3uds22IncomingDiagConnectionEPKhtEE11method_stubINS1_12AsyncDiagJobIN12_GLOBAL__N_111DiagJobMockEEEXadL_ZNSC_12asyncProcessES3_S5_tEEEEvPvS3_S5_t
FNDA:5,_ZN3etl8delegateIFvRN4util7command14CommandContextEEE17const_method_stubINS2_11HelpCommandEXadL_ZNKS8_4helpES4_EEEEvPvS4_
FNDA:3,_ZN3etl8delegateIFhRKN9transport16TransportMessageEEEC2EPvPFhS7_S4_E
FNDA:0,_ZNK3etl8delegateIFvRN9transport22AbstractTransportLayerEEEcvbEv
FNDA:20,_ZNK3etl8delegateIFvtPN3uds15AbstractDiagJobEEEclEtS3_
FNDA:1,_ZN3etl8delegateIFvvEE6createIN12_GLOBAL__N_119EventDispatcherTestEXadL_ZNS5_12handleEvent1EvEEEES2_RT_
FNDA:0,_ZN3etl8delegateIFvvEE11method_stubIN12_GLOBAL__N_119FreeRtosAdapterTestEXadL_ZNS5_8startAppEvEEEEvPv
FNDA:5,_ZN3etl8delegateIFvRN7runtime16StatisticsWriterERKNS1_17RuntimeStatisticsEEE17const_method_stubIN12_GLOBAL__N_130TestRuntimeStatisticsFormatterEXadL_ZNKSB_6formatES3_S6_EEEEvPvS3_S6_
FNDA:1,_ZN3etl8delegateIFjvEE6createIXadL_Z11systemMicrovEEEES2_v
FNDA:5,_ZN3etl8delegateIFvRN7storage10StorageJobEEE6assignEPvPFvS6_S3_E
FNDA:0,_ZN3etl18delegate_exceptionC2EPKcS2_i
FNDA:6,_ZN3etl8delegateIFvhPN3uds15AbstractDiagJobEEE11method_stubINS1_22IncomingDiagConnectionEXadL_ZNS7_25asyncSendNegativeResponseEhS3_EEEEvPvhS3_
FNDA:0,_ZNK3etl8delegateIFvN3tcp14AbstractSocket9ErrorCodeEEE8is_validEv
FNDA:0,_ZN3etl8delegateIFvRN4util7command14CommandContextEEE13function_stubIXadL_ZN12_GLOBAL__N_113dummyFunctionES4_EEEEvPvS4_
FNDA:1,_ZN3etl8delegateIFvRN7runtime16StatisticsWriterERKNS1_17RuntimeStatisticsEEEC2EPvPFvS9_S3_S6_E
FNDA:1,_ZN3etl8delegateIFvtjEE6createIN12_GLOBAL__N_113AsyncCallTestEXadL_ZNS5_11closureCallEtjEEEES2_RT_
FNDA:2,_ZN3etl8delegateIFvRN7storage10StorageJobEEE11lambda_stubIZN12_GLOBAL__N_145StorageTest_SameJobTriggeredFromCallback_Test8TestBodyEvEUlS3_E_EEvPvS3_
FNDA:1,_ZN3etl8delegateIFvRN9transport22AbstractTransportLayerEEEC2IZN30DemoTest_DoCanIntegration_Test8TestBodyEvEUlS3_E0_vEERT_
FNF:239
FNH:207
DA:69,0
DA:70,0
DA:72,0
DA:82,0
DA:83,0
DA:85,0
DA:129,654
DA:130,654
DA:131,654
DA:142,6
DA:143,6
DA:144,6
DA:145,6
DA:167,23
DA:169,23
DA:197,1831
DA:199,1831
DA:215,20
DA:217,20
DA:375,2429
DA:377,2417
DA:379,2429
DA:484,11
DA:486,11
DA:501,2558
DA:503,2558
DA:510,64
DA:512,64
DA:524,660
DA:527,1874
DA:528,1874
DA:529,1874
DA:531,1874
DA:534,11
DA:536,11
DA:560,1874
DA:561,1874
DA:563,1874
DA:576,6
DA:578,6
DA:579,6
DA:580,6
DA:586,2279
DA:588,2279
DA:589,2279
DA:596,132
DA:598,132
DA:599,132
DA:635,12
DA:637,12
DA:644,6
DA:646,6
DA:647,6
LF:53
LH:47
end_of_record
TN:
SF:/home/jenkins/libs/3rdparty/etl/include/etl/private/variant_variadic.h
FN:97,_ZN3etl15private_variant14operation_typeIvLb0ELb0EE12do_operationEiPcPKc
FN:204,_ZN3etl15private_variant14operation_typeIN7storage10StorageJob6Result7SuccessELb1ELb1EE12do_operationEiPcPKc
FN:204,_ZN3etl15private_variant14operation_typeIN7storage10StorageJob6Result4InitELb1ELb1EE12do_operationEiPcPKc
FN:204,_ZN3etl15private_variant14operation_typeIN12_GLOBAL__N_11CELb1ELb1EE12do_operationEiPcPKc
FN:204,_ZN3etl15private_variant14operation_typeIN7storage10StorageJob4Type4ReadELb1ELb1EE12do_operationEiPcPKc
FN:204,_ZN3etl15private_variant14operation_typeIN12_GLOBAL__N_11AELb1ELb1EE12do_operationEiPcPKc
FN:204,_ZN3etl15private_variant14operation_typeIN7storage10StorageJob4Type4NoneELb1ELb1EE12do_operationEiPcPKc
FN:204,_ZN3etl15private_variant14operation_typeIN12_GLOBAL__N_11BELb1ELb1EE12do_operationEiPcPKc
FN:204,_ZN3etl15private_variant14operation_typeIN7storage10StorageJob6Result8DataLossELb1ELb1EE12do_operationEiPcPKc
FN:204,_ZN3etl15private_variant14operation_typeIN7storage10StorageJob4Type5WriteELb1ELb1EE12do_operationEiPcPKc
FN:204,_ZN3etl15private_variant14operation_typeIN7storage10StorageJob6Result5ErrorELb1ELb1EE12do_operationEiPcPKc
FN:340,_ZN3etl17variant_exceptionC2EPKcS2_i
FN:353,_ZN3etl32variant_incorrect_type_exceptionC2EPKci
FN:480,_ZN3etl7variantIJN7storage10StorageJob6Result4InitENS3_5ErrorENS3_8DataLossENS3_7SuccessEEEC1IS4_Li0EEEOT_
FN:480,_ZN3etl7variantIJN7storage10StorageJob6Result4InitENS3_5ErrorENS3_8DataLossENS3_7SuccessEEEC2IS7_Li0EEEOT_
FN:480,_ZN3etl7variantIJN7storage10StorageJob4Type4NoneENS3_5WriteENS3_4ReadEEEC2IS4_Li0EEEOT_
FN:480,_ZN3etl7variantIJN7storage10StorageJob6Result4InitENS3_5ErrorENS3_8DataLossENS3_7SuccessEEEC2IRKS7_Li0EEEOT_
FN:480,_ZN3etl7variantIJN12_GLOBAL__N_11AENS1_1BENS1_1CEEEC2IS4_Li0EEEOT_
FN:480,_ZN3etl7variantIJN7storage10StorageJob6Result4InitENS3_5ErrorENS3_8DataLossENS3_7SuccessEEEC2IRKS5_Li0EEEOT_
FN:480,_ZN3etl7variantIJN7storage10StorageJob6Result4InitENS3_5ErrorENS3_8DataLossENS3_7SuccessEEEC2IS5_Li0EEEOT_
FN:480,_ZN3etl7variantIJN7storage10StorageJob6Result4InitENS3_5ErrorENS3_8DataLossENS3_7SuccessEEEC2IS6_Li0EEEOT_
FN:480,_ZN3etl7variantIJN7storage10StorageJob6Result4InitENS3_5ErrorENS3_8DataLossENS3_7SuccessEEEC2IRKS6_Li0EEEOT_
FN:561,_ZN3etl7variantIJN7storage10StorageJob6Result4InitENS3_5ErrorENS3_8DataLossENS3_7SuccessEEEC2ERKS8_
FN:609,_ZN3etl7variantIJN7storage10StorageJob6Result4InitENS3_5ErrorENS3_8DataLossENS3_7SuccessEEED2Ev
FN:609,_ZN3etl7variantIJN12_GLOBAL__N_11AENS1_1BENS1_1CEEED2Ev
FN:609,_ZN3etl7variantIJN7storage10StorageJob4Type4NoneENS3_5WriteENS3_4ReadEEED2Ev
FN:624,_ZN3etl7variantIJN7storage10StorageJob4Type4NoneENS3_5WriteENS3_4ReadEEE7emplaceIS6_JRN4util6buffer12LinkedBufferIhEERKmEEERT_DpOT0_
FN:624,_ZN3etl7variantIJN7storage10StorageJob4Type4NoneENS3_5WriteENS3_4ReadEEE7emplaceIS5_JRN4util6buffer12LinkedBufferIKhEERKmEEERT_DpOT0_
FN:713,_ZN3etl7variantIJN12_GLOBAL__N_11AENS1_1BENS1_1CEEEaSIRKS2_Li0EEERS5_OT_
FN:713,_ZN3etl7variantIJN12_GLOBAL__N_11AENS1_1BENS1_1CEEEaSIRKS3_Li0EEERS5_OT_
FN:713,_ZN3etl7variantIJN7storage10StorageJob6Result4InitENS3_5ErrorENS3_8DataLossENS3_7SuccessEEEaSIS7_Li0EEERS8_OT_
FN:713,_ZN3etl7variantIJN12_GLOBAL__N_11AENS1_1BENS1_1CEEEaSIRKS4_Li0EEERS5_OT_
FN:713,_ZN3etl7variantIJN7storage10StorageJob6Result4InitENS3_5ErrorENS3_8DataLossENS3_7SuccessEEEaSIS4_Li0EEERS8_OT_
FN:733,_ZN3etl7variantIJN7storage10StorageJob6Result4InitENS3_5ErrorENS3_8DataLossENS3_7SuccessEEEaSERKS8_
FN:759,_ZN3etl7variantIJN7storage10StorageJob6Result4InitENS3_5ErrorENS3_8DataLossENS3_7SuccessEEEaSEOS8_
FN:793,_ZNK3etl7variantIJN12_GLOBAL__N_11AENS1_1BENS1_1CEEE5indexEv
FN:793,_ZNK3etl7variantIJN7storage10StorageJob4Type4NoneENS3_5WriteENS3_4ReadEEE5indexEv
FN:793,_ZNK3etl7variantIJN7storage10StorageJob6Result4InitENS3_5ErrorENS3_8DataLossENS3_7SuccessEEE5indexEv
FN:815,_ZNK3etl7variantIJN12_GLOBAL__N_11AENS1_1BENS1_1CEEE7is_typeIS4_Li0EEEbv
FN:981,_ZN3etl7variantIJN12_GLOBAL__N_11AENS1_1BENS1_1CEEE18construct_in_placeIS3_EEvPcRKT_
FN:981,_ZN3etl7variantIJN7storage10StorageJob6Result4InitENS3_5ErrorENS3_8DataLossENS3_7SuccessEEE18construct_in_placeIS6_EEvPcRKT_
FN:981,_ZN3etl7variantIJN7storage10StorageJob6Result4InitENS3_5ErrorENS3_8DataLossENS3_7SuccessEEE18construct_in_placeIS5_EEvPcRKT_
FN:981,_ZN3etl7variantIJN12_GLOBAL__N_11AENS1_1BENS1_1CEEE18construct_in_placeIS4_EEvPcRKT_
FN:981,_ZN3etl7variantIJN7storage10StorageJob6Result4InitENS3_5ErrorENS3_8DataLossENS3_7SuccessEEE18construct_in_placeIS7_EEvPcRKT_
FN:981,_ZN3etl7variantIJN12_GLOBAL__N_11AENS1_1BENS1_1CEEE18construct_in_placeIS2_EEvPcRKT_
FN:992,_ZN3etl7variantIJN7storage10StorageJob6Result4InitENS3_5ErrorENS3_8DataLossENS3_7SuccessEEE18construct_in_placeIS4_EEvPcOT_
FN:992,_ZN3etl7variantIJN7storage10StorageJob4Type4NoneENS3_5WriteENS3_4ReadEEE18construct_in_placeIS4_EEvPcOT_
FN:992,_ZN3etl7variantIJN12_GLOBAL__N_11AENS1_1BENS1_1CEEE18construct_in_placeIS4_EEvPcOT_
FN:992,_ZN3etl7variantIJN7storage10StorageJob6Result4InitENS3_5ErrorENS3_8DataLossENS3_7SuccessEEE18construct_in_placeIS6_EEvPcOT_
FN:992,_ZN3etl7variantIJN7storage10StorageJob6Result4InitENS3_5ErrorENS3_8DataLossENS3_7SuccessEEE18construct_in_placeIS7_EEvPcOT_
FN:992,_ZN3etl7variantIJN7storage10StorageJob6Result4InitENS3_5ErrorENS3_8DataLossENS3_7SuccessEEE18construct_in_placeIS5_EEvPcOT_
FN:1003,_ZN3etl7variantIJN7storage10StorageJob4Type4NoneENS3_5WriteENS3_4ReadEEE23construct_in_place_argsIS6_JRN4util6buffer12LinkedBufferIhEERKmEEEvPcDpOT0_
FN:1003,_ZN3etl7variantIJN7storage10StorageJob4Type4NoneENS3_5WriteENS3_4ReadEEE23construct_in_place_argsIS5_JRN4util6buffer12LinkedBufferIKhEERKmEEEvPcDpOT0_
FN:1224,_ZN3etl17holds_alternativeIN7storage10StorageJob4Type4NoneEJS4_NS3_5WriteENS3_4ReadEEEEbRKNS_7variantIJDpT0_EEE
FN:1224,_ZN3etl17holds_alternativeIN12_GLOBAL__N_11BEJNS1_1AES2_NS1_1CEEEEbRKNS_7variantIJDpT0_EEE
FN:1224,_ZN3etl17holds_alternativeIN7storage10StorageJob4Type5WriteEJNS3_4NoneES4_NS3_4ReadEEEEbRKNS_7variantIJDpT0_EEE
FN:1224,_ZN3etl17holds_alternativeIN7storage10StorageJob6Result5ErrorEJNS3_4InitES4_NS3_8DataLossENS3_7SuccessEEEEbRKNS_7variantIJDpT0_EEE
FN:1224,_ZN3etl17holds_alternativeIN12_GLOBAL__N_11AEJS2_NS1_1BENS1_1CEEEEbRKNS_7variantIJDpT0_EEE
FN:1224,_ZN3etl17holds_alternativeIN7storage10StorageJob6Result7SuccessEJNS3_4InitENS3_5ErrorENS3_8DataLossES4_EEEbRKNS_7variantIJDpT0_EEE
FN:1224,_ZN3etl17holds_alternativeIN7storage10StorageJob4Type4ReadEJNS3_4NoneENS3_5WriteES4_EEEbRKNS_7variantIJDpT0_EEE
FN:1254,_ZN3etl3getILm1EJN7storage10StorageJob4Type4NoneENS3_5WriteENS3_4ReadEEEERNS_19variant_alternativeIXT_ENS_7variantIJDpT0_EEEE4typeERSB_
FN:1254,_ZN3etl3getILm2EJN7storage10StorageJob4Type4NoneENS3_5WriteENS3_4ReadEEEERNS_19variant_alternativeIXT_ENS_7variantIJDpT0_EEEE4typeERSB_
FN:1284,_ZN3etl3getILm1EJN12_GLOBAL__N_11AENS1_1BENS1_1CEEEERKNS_19variant_alternativeIXT_EKNS_7variantIJDpT0_EEEE4typeERSA_
FN:1284,_ZN3etl3getILm0EJN12_GLOBAL__N_11AENS1_1BENS1_1CEEEERKNS_19variant_alternativeIXT_EKNS_7variantIJDpT0_EEEE4typeERSA_
FN:1315,_ZN3etl3getIN7storage10StorageJob4Type4ReadEJNS3_4NoneENS3_5WriteES4_EEERT_RNS_7variantIJDpT0_EEE
FN:1315,_ZN3etl3getIN7storage10StorageJob4Type5WriteEJNS3_4NoneES4_NS3_4ReadEEEERT_RNS_7variantIJDpT0_EEE
FN:1333,_ZN3etl3getIN12_GLOBAL__N_11AEJS2_NS1_1BENS1_1CEEEERKT_RKNS_7variantIJDpT0_EEE
FN:1333,_ZN3etl3getIN12_GLOBAL__N_11BEJNS1_1AES2_NS1_1CEEEERKT_RKNS_7variantIJDpT0_EEE
FNDA:41,_ZN3etl7variantIJN7storage10StorageJob6Result4InitENS3_5ErrorENS3_8DataLossENS3_7SuccessEEE18construct_in_placeIS5_EEvPcOT_
FNDA:72,_ZN3etl7variantIJN7storage10StorageJob4Type4NoneENS3_5WriteENS3_4ReadEEED2Ev
FNDA:20,_ZN3etl7variantIJN7storage10StorageJob6Result4InitENS3_5ErrorENS3_8DataLossENS3_7SuccessEEE18construct_in_placeIS7_EEvPcOT_
FNDA:3,_ZN3etl7variantIJN12_GLOBAL__N_11AENS1_1BENS1_1CEEE18construct_in_placeIS2_EEvPcRKT_
FNDA:66,_ZN3etl17holds_alternativeIN7storage10StorageJob4Type4ReadEJNS3_4NoneENS3_5WriteES4_EEEbRKNS_7variantIJDpT0_EEE
FNDA:180,_ZN3etl15private_variant14operation_typeIN7storage10StorageJob6Result5ErrorELb1ELb1EE12do_operationEiPcPKc
FNDA:2,_ZN3etl17holds_alternativeIN7storage10StorageJob6Result7SuccessEJNS3_4InitENS3_5ErrorENS3_8DataLossES4_EEEbRKNS_7variantIJDpT0_EEE
FNDA:28,_ZN3etl15private_variant14operation_typeIN7storage10StorageJob4Type5WriteELb1ELb1EE12do_operationEiPcPKc
FNDA:3,_ZN3etl17holds_alternativeIN12_GLOBAL__N_11AEJS2_NS1_1BENS1_1CEEEEbRKNS_7variantIJDpT0_EEE
FNDA:14,_ZN3etl7variantIJN7storage10StorageJob6Result4InitENS3_5ErrorENS3_8DataLossENS3_7SuccessEEE18construct_in_placeIS7_EEvPcRKT_
FNDA:14,_ZN3etl15private_variant14operation_typeIN7storage10StorageJob6Result8DataLossELb1ELb1EE12do_operationEiPcPKc
FNDA:64,_ZN3etl7variantIJN7storage10StorageJob6Result4InitENS3_5ErrorENS3_8DataLossENS3_7SuccessEEEaSERKS8_
FNDA:3,_ZN3etl3getILm0EJN12_GLOBAL__N_11AENS1_1BENS1_1CEEEERKNS_19variant_alternativeIXT_EKNS_7variantIJDpT0_EEEE4typeERSA_
FNDA:1,_ZN3etl7variantIJN7storage10StorageJob6Result4InitENS3_5ErrorENS3_8DataLossENS3_7SuccessEEEC2IRKS6_Li0EEEOT_
FNDA:0,_ZN3etl32variant_incorrect_type_exceptionC2EPKci
FNDA:2,_ZN3etl15private_variant14operation_typeIN12_GLOBAL__N_11BELb1ELb1EE12do_operationEiPcPKc
FNDA:1,_ZN3etl7variantIJN7storage10StorageJob6Result4InitENS3_5ErrorENS3_8DataLossENS3_7SuccessEEEC2IS6_Li0EEEOT_
FNDA:4,_ZN3etl7variantIJN12_GLOBAL__N_11AENS1_1BENS1_1CEEED2Ev
FNDA:29,_ZN3etl7variantIJN7storage10StorageJob6Result4InitENS3_5ErrorENS3_8DataLossENS3_7SuccessEEEaSEOS8_
FNDA:89,_ZN3etl7variantIJN7storage10StorageJob6Result4InitENS3_5ErrorENS3_8DataLossENS3_7SuccessEEEC2ERKS8_
FNDA:72,_ZN3etl15private_variant14operation_typeIN7storage10StorageJob4Type4NoneELb1ELb1EE12do_operationEiPcPKc
FNDA:11,_ZN3etl7variantIJN7storage10StorageJob6Result4InitENS3_5ErrorENS3_8DataLossENS3_7SuccessEEEC2IRKS5_Li0EEEOT_
FNDA:2,_ZNK3etl7variantIJN12_GLOBAL__N_11AENS1_1BENS1_1CEEE7is_typeIS4_Li0EEEbv
FNDA:41,_ZN3etl7variantIJN7storage10StorageJob6Result4InitENS3_5ErrorENS3_8DataLossENS3_7SuccessEEEC2IS5_Li0EEEOT_
FNDA:61,_ZN3etl7variantIJN7storage10StorageJob6Result4InitENS3_5ErrorENS3_8DataLossENS3_7SuccessEEEaSIS4_Li0EEERS8_OT_
FNDA:2,_ZN3etl7variantIJN12_GLOBAL__N_11AENS1_1BENS1_1CEEE18construct_in_placeIS4_EEvPcRKT_
FNDA:3,_ZN3etl15private_variant14operation_typeIN12_GLOBAL__N_11AELb1ELb1EE12do_operationEiPcPKc
FNDA:11,_ZN3etl7variantIJN7storage10StorageJob6Result4InitENS3_5ErrorENS3_8DataLossENS3_7SuccessEEE18construct_in_placeIS5_EEvPcRKT_
FNDA:4,_ZN3etl7variantIJN12_GLOBAL__N_11AENS1_1BENS1_1CEEEC2IS4_Li0EEEOT_
FNDA:493,_ZNK3etl7variantIJN7storage10StorageJob6Result4InitENS3_5ErrorENS3_8DataLossENS3_7SuccessEEE5indexEv
FNDA:26,_ZN3etl15private_variant14operation_typeIN7storage10StorageJob4Type4ReadELb1ELb1EE12do_operationEiPcPKc
FNDA:28,_ZN3etl7variantIJN7storage10StorageJob4Type4NoneENS3_5WriteENS3_4ReadEEE23construct_in_place_argsIS5_JRN4util6buffer12LinkedBufferIKhEERKmEEEvPcDpOT0_
FNDA:249,_ZN3etl7variantIJN7storage10StorageJob6Result4InitENS3_5ErrorENS3_8DataLossENS3_7SuccessEEED2Ev
FNDA:26,_ZN3etl7variantIJN7storage10StorageJob4Type4NoneENS3_5WriteENS3_4ReadEEE23construct_in_place_argsIS6_JRN4util6buffer12LinkedBufferIhEERKmEEEvPcDpOT0_
FNDA:1,_ZN3etl7variantIJN7storage10StorageJob6Result4InitENS3_5ErrorENS3_8DataLossENS3_7SuccessEEE18construct_in_placeIS6_EEvPcRKT_
FNDA:1,_ZN3etl7variantIJN7storage10StorageJob6Result4InitENS3_5ErrorENS3_8DataLossENS3_7SuccessEEE18construct_in_placeIS6_EEvPcOT_
FNDA:0,_ZN3etl17variant_exceptionC2EPKcS2_i
FNDA:6,_ZN3etl15private_variant14operation_typeIN12_GLOBAL__N_11CELb1ELb1EE12do_operationEiPcPKc
FNDA:281,_ZNK3etl7variantIJN7storage10StorageJob4Type4NoneENS3_5WriteENS3_4ReadEEE5indexEv
FNDA:30,_ZN3etl3getIN7storage10StorageJob4Type5WriteEJNS3_4NoneES4_NS3_4ReadEEEERT_RNS_7variantIJDpT0_EEE
FNDA:0,_ZN3etl15private_variant14operation_typeIvLb0ELb0EE12do_operationEiPcPKc
FNDA:136,_ZN3etl15private_variant14operation_typeIN7storage10StorageJob6Result4InitELb1ELb1EE12do_operationEiPcPKc
FNDA:5,_ZN3etl17holds_alternativeIN7storage10StorageJob6Result5ErrorEJNS3_4InitES4_NS3_8DataLossENS3_7SuccessEEEEbRKNS_7variantIJDpT0_EEE
FNDA:72,_ZN3etl7variantIJN7storage10StorageJob4Type4NoneENS3_5WriteENS3_4ReadEEE18construct_in_placeIS4_EEvPcOT_
FNDA:4,_ZN3etl7variantIJN12_GLOBAL__N_11AENS1_1BENS1_1CEEE18construct_in_placeIS4_EEvPcOT_
FNDA:2,_ZN3etl7variantIJN12_GLOBAL__N_11AENS1_1BENS1_1CEEEaSIRKS4_Li0EEERS5_OT_
FNDA:2,_ZN3etl3getIN12_GLOBAL__N_11BEJNS1_1AES2_NS1_1CEEEERKT_RKNS_7variantIJDpT0_EEE
FNDA:28,_ZN3etl7variantIJN7storage10StorageJob4Type4NoneENS3_5WriteENS3_4ReadEEE7emplaceIS5_JRN4util6buffer12LinkedBufferIKhEERKmEEERT_DpOT0_
FNDA:136,_ZN3etl7variantIJN7storage10StorageJob6Result4InitENS3_5ErrorENS3_8DataLossENS3_7SuccessEEE18construct_in_placeIS4_EEvPcOT_
FNDA:2,_ZN3etl7variantIJN12_GLOBAL__N_11AENS1_1BENS1_1CEEE18construct_in_placeIS3_EEvPcRKT_
FNDA:14,_ZN3etl7variantIJN7storage10StorageJob6Result4InitENS3_5ErrorENS3_8DataLossENS3_7SuccessEEEC2IRKS7_Li0EEEOT_
FNDA:53,_ZN3etl3getILm2EJN7storage10StorageJob4Type4NoneENS3_5WriteENS3_4ReadEEEERNS_19variant_alternativeIXT_ENS_7variantIJDpT0_EEEE4typeERSB_
FNDA:72,_ZN3etl7variantIJN7storage10StorageJob4Type4NoneENS3_5WriteENS3_4ReadEEEC2IS4_Li0EEEOT_
FNDA:14,_ZNK3etl7variantIJN12_GLOBAL__N_11AENS1_1BENS1_1CEEE5indexEv
FNDA:53,_ZN3etl3getIN7storage10StorageJob4Type4ReadEJNS3_4NoneENS3_5WriteES4_EEERT_RNS_7variantIJDpT0_EEE
FNDA:3,_ZN3etl7variantIJN7storage10StorageJob6Result4InitENS3_5ErrorENS3_8DataLossENS3_7SuccessEEEaSIS7_Li0EEERS8_OT_
FNDA:3,_ZN3etl3getIN12_GLOBAL__N_11AEJS2_NS1_1BENS1_1CEEEERKT_RKNS_7variantIJDpT0_EEE
FNDA:258,_ZN3etl15private_variant14operation_typeIN7storage10StorageJob6Result7SuccessELb1ELb1EE12do_operationEiPcPKc
FNDA:30,_ZN3etl3getILm1EJN7storage10StorageJob4Type4NoneENS3_5WriteENS3_4ReadEEEERNS_19variant_alternativeIXT_ENS_7variantIJDpT0_EEEE4typeERSB_
FNDA:2,_ZN3etl17holds_alternativeIN12_GLOBAL__N_11BEJNS1_1AES2_NS1_1CEEEEbRKNS_7variantIJDpT0_EEE
FNDA:26,_ZN3etl17holds_alternativeIN7storage10StorageJob4Type5WriteEJNS3_4NoneES4_NS3_4ReadEEEEbRKNS_7variantIJDpT0_EEE
FNDA:2,_ZN3etl3getILm1EJN12_GLOBAL__N_11AENS1_1BENS1_1CEEEERKNS_19variant_alternativeIXT_EKNS_7variantIJDpT0_EEEE4typeERSA_
FNDA:2,_ZN3etl7variantIJN12_GLOBAL__N_11AENS1_1BENS1_1CEEEaSIRKS3_Li0EEERS5_OT_
FNDA:34,_ZN3etl17holds_alternativeIN7storage10StorageJob4Type4NoneEJS4_NS3_5WriteENS3_4ReadEEEEbRKNS_7variantIJDpT0_EEE
FNDA:3,_ZN3etl7variantIJN12_GLOBAL__N_11AENS1_1BENS1_1CEEEaSIRKS2_Li0EEERS5_OT_
FNDA:17,_ZN3etl7variantIJN7storage10StorageJob6Result4InitENS3_5ErrorENS3_8DataLossENS3_7SuccessEEEC2IS7_Li0EEEOT_
FNDA:26,_ZN3etl7variantIJN7storage10StorageJob4Type4NoneENS3_5WriteENS3_4ReadEEE7emplaceIS6_JRN4util6buffer12LinkedBufferIhEERKmEEERT_DpOT0_
FNDA:75,_ZN3etl7variantIJN7storage10StorageJob6Result4InitENS3_5ErrorENS3_8DataLossENS3_7SuccessEEEC1IS4_Li0EEEOT_
FNF:68
FNH:65
DA:97,0
DA:103,0
DA:204,725
DA:206,725
DA:208,153
DA:210,153
DA:211,153
DA:214,29
DA:216,29
DA:217,29
DA:220,543
DA:222,543
DA:223,543
DA:226,0
DA:232,0
DA:235,725
DA:340,0
DA:341,0
DA:343,0
DA:353,0
DA:354,0
DA:356,0
DA:480,236
DA:481,236
DA:482,236
DA:486,236
DA:487,236
DA:561,89
DA:562,89
DA:563,89
DA:565,89
DA:567,89
DA:569,0
DA:573,89
DA:576,89
DA:609,325
DA:611,325
DA:613,325
DA:616,325
DA:617,325
DA:618,325
DA:624,54
DA:630,54
DA:632,54
DA:634,54
DA:636,54
DA:638,54
DA:713,71
DA:719,71
DA:721,71
DA:723,71
DA:724,71
DA:726,71
DA:733,64
DA:735,64
DA:737,64
DA:739,0
DA:743,64
DA:745,64
DA:746,64
DA:748,64
DA:752,64
DA:759,29
DA:761,29
DA:763,29
DA:765,0
DA:769,29
DA:771,29
DA:772,29
DA:774,29
DA:778,29
DA:793,788
DA:795,788
DA:815,2
DA:817,2
DA:981,33
DA:985,33
DA:986,33
DA:992,274
DA:996,274
DA:997,274
DA:1003,54
DA:1007,54
DA:1008,54
DA:1224,138
DA:1226,138
DA:1228,138
DA:1254,83
DA:1260,83
DA:1264,83
DA:1284,5
DA:1290,5
DA:1294,5
DA:1315,83
DA:1317,83
DA:1319,83
DA:1333,5
DA:1335,5
DA:1337,5
LF:99
LH:86
end_of_record
TN:
SF:/home/jenkins/libs/3rdparty/etl/include/etl/private/vector_base.h
FN:55,_ZN3etl16vector_exceptionC2EPKcS2_i
FN:69,_ZN3etl11vector_fullC2EPKci
FN:131,_ZNK3etl11vector_base8capacityEv
FN:140,_ZNK3etl11vector_base8max_sizeEv
FN:150,_ZN3etl11vector_baseC2Em
FN:165,_ZN3etl11vector_baseD2Ev
FNDA:120,_ZNK3etl11vector_base8max_sizeEv
FNDA:1750,_ZNK3etl11vector_base8capacityEv
FNDA:0,_ZN3etl11vector_fullC2EPKci
FNDA:299,_ZN3etl11vector_baseD2Ev
FNDA:309,_ZN3etl11vector_baseC2Em
FNDA:0,_ZN3etl16vector_exceptionC2EPKcS2_i
FNF:6
FNH:4
DA:55,0
DA:56,0
DA:58,0
DA:69,0
DA:70,0
DA:72,0
DA:131,1750
DA:133,1750
DA:140,120
DA:142,120
DA:150,309
DA:151,309
DA:153,309
DA:165,299
DA:167,299
LF:15
LH:9
end_of_record
TN:
SF:/home/jenkins/libs/3rdparty/etl/include/etl/queue.h
FN:115,_ZNK3etl10queue_baseILm2EE4sizeEv
FN:140,_ZNK3etl10queue_baseILm2EE5emptyEv
FN:149,_ZNK3etl10queue_baseILm2EE4fullEv
FN:168,_ZN3etl10queue_baseILm2EEC2Ej
FN:179,_ZN3etl10queue_baseILm2EED2Ev
FN:186,_ZN3etl10queue_baseILm2EE6add_inEv
FN:200,_ZN3etl10queue_baseILm2EE7del_outEv
FN:272,_ZN3etl6iqueueIN9transport12TransportJobELm2EE5frontEv
FN:290,_ZN3etl6iqueueIN9transport12TransportJobELm2EE4backEv
FN:341,_ZN3etl6iqueueIN9transport12TransportJobELm2EE7emplaceIJEEERS2_DpOT_
FN:445,_ZN3etl6iqueueIN9transport12TransportJobELm2EE5clearEv
FN:469,_ZN3etl6iqueueIN9transport12TransportJobELm2EE3popEv
FN:570,_ZN3etl6iqueueIN9transport12TransportJobELm2EEC2EPS2_j
FN:593,_ZN3etl6iqueueIN9transport12TransportJobELm2EED2Ev
FN:626,_ZN3etl5queueIN9transport12TransportJobELm10ELm2EEC2Ev
FN:626,_ZN3etl5queueIN9transport12TransportJobELm4ELm2EEC2Ev
FN:626,_ZN3etl5queueIN9transport12TransportJobELm1ELm2EEC2Ev
FN:654,_ZN3etl5queueIN9transport12TransportJobELm10ELm2EED2Ev
FN:654,_ZN3etl5queueIN9transport12TransportJobELm4ELm2EED2Ev
FN:654,_ZN3etl5queueIN9transport12TransportJobELm1ELm2EED2Ev
FNDA:320,_ZN3etl6iqueueIN9transport12TransportJobELm2EED2Ev
FNDA:6,_ZN3etl6iqueueIN9transport12TransportJobELm2EE4backEv
FNDA:15,_ZN3etl6iqueueIN9transport12TransportJobELm2EE7emplaceIJEEERS2_DpOT_
FNDA:3,_ZN3etl5queueIN9transport12TransportJobELm10ELm2EED2Ev
FNDA:320,_ZN3etl10queue_baseILm2EEC2Ej
FNDA:7,_ZNK3etl10queue_baseILm2EE4fullEv
FNDA:31,_ZNK3etl10queue_baseILm2EE5emptyEv
FNDA:0,_ZNK3etl10queue_baseILm2EE4sizeEv
FNDA:3,_ZN3etl5queueIN9transport12TransportJobELm10ELm2EEC2Ev
FNDA:320,_ZN3etl6iqueueIN9transport12TransportJobELm2EE5clearEv
FNDA:35,_ZN3etl5queueIN9transport12TransportJobELm4ELm2EEC2Ev
FNDA:282,_ZN3etl5queueIN9transport12TransportJobELm1ELm2EEC2Ev
FNDA:15,_ZN3etl10queue_baseILm2EE6add_inEv
FNDA:282,_ZN3etl5queueIN9transport12TransportJobELm1ELm2EED2Ev
FNDA:320,_ZN3etl10queue_baseILm2EED2Ev
FNDA:320,_ZN3etl6iqueueIN9transport12TransportJobELm2EEC2EPS2_j
FNDA:35,_ZN3etl5queueIN9transport12TransportJobELm4ELm2EED2Ev
FNDA:11,_ZN3etl6iqueueIN9transport12TransportJobELm2EE3popEv
FNDA:15,_ZN3etl10queue_baseILm2EE7del_outEv
FNDA:11,_ZN3etl6iqueueIN9transport12TransportJobELm2EE5frontEv
FNF:20
FNH:19
DA:115,0
DA:117,0
DA:140,31
DA:142,31
DA:149,7
DA:151,7
DA:168,320
DA:169,320
DA:170,320
DA:171,320
DA:172,320
DA:174,320
DA:179,320
DA:181,320
DA:186,15
DA:188,15
DA:190,15
DA:193,15
DA:195,15
DA:200,15
DA:202,15
DA:204,15
DA:206,15
DA:208,15
DA:272,11
DA:274,11
DA:290,6
DA:292,6
DA:341,15
DA:346,15
DA:347,15
DA:348,15
DA:349,15
DA:445,320
DA:453,324
DA:455,4
DA:456,4
DA:459,320
DA:460,320
DA:462,320
DA:469,11
DA:474,11
DA:475,11
DA:476,11
DA:570,320
DA:572,320
DA:574,320
DA:593,320
DA:595,320
DA:626,320
DA:627,320
DA:629,320
DA:654,320
DA:656,320
DA:657,320
LF:55
LH:53
end_of_record
TN:
SF:/home/jenkins/libs/3rdparty/etl/include/etl/singleton_base.h
FN:54,_ZN3etl24singleton_base_exceptionC2EPKcS2_i
FN:67,_ZN3etl26singleton_base_not_createdC2EPKci
FN:80,_ZN3etl30singleton_base_already_createdC2EPKci
FN:124,_ZN3etl14singleton_baseIN7console12AsyncConsoleEE8instanceEv
FN:124,_ZN3etl14singleton_baseIN7testing15SystemTimerMockEE8instanceEv
FN:124,_ZN3etl14singleton_baseIN4util4test9StdIoMockEE8instanceEv
FN:124,_ZN3etl14singleton_baseIN10interrupts30SuspendResumeAllInterruptsMockEE8instanceEv
FN:124,_ZN3etl14singleton_baseIN5async8LockMockEE8instanceEv
FN:124,_ZN3etl14singleton_baseIN2os12FreeRtosMockEE8instanceEv
FN:124,_ZN3etl14singleton_baseIN5async15ContextHookMockEE8instanceEv
FN:124,_ZN3etl14singleton_baseIN5async9AsyncMockEE8instanceEv
FN:124,_ZN3etl14singleton_baseIN12_GLOBAL__N_111AdapterMockEE8instanceEv
FN:124,_ZN3etl14singleton_baseIN12_GLOBAL__N_115TestBindingMockEE8instanceEv
FN:124,_ZN3etl14singleton_baseIN5async11TimeoutMockEE8instanceEv
FN:124,_ZN3etl14singleton_baseIN5async12TickHookMockEE8instanceEv
FN:134,_ZN3etl14singleton_baseIN5async11TimeoutMockEE8is_validEv
FN:134,_ZN3etl14singleton_baseIN10interrupts30SuspendResumeAllInterruptsMockEE8is_validEv
FN:134,_ZN3etl14singleton_baseIN5async8LockMockEE8is_validEv
FN:145,_ZN3etl14singleton_baseIN2os12FreeRtosMockEEC2ERS2_
FN:145,_ZN3etl14singleton_baseIN12_GLOBAL__N_111AdapterMockEEC2ERS2_
FN:145,_ZN3etl14singleton_baseIN5async9AsyncMockEEC2ERS2_
FN:145,_ZN3etl14singleton_baseIN4util4test9StdIoMockEEC2ERS3_
FN:145,_ZN3etl14singleton_baseIN12_GLOBAL__N_115TestBindingMockEEC2ERS2_
FN:145,_ZN3etl14singleton_baseIN10interrupts30SuspendResumeAllInterruptsMockEEC2ERS2_
FN:145,_ZN3etl14singleton_baseIN5async12TickHookMockEEC2ERS2_
FN:145,_ZN3etl14singleton_baseIN7console12AsyncConsoleEEC2ERS2_
FN:145,_ZN3etl14singleton_baseIN5async15ContextHookMockEEC2ERS2_
FN:145,_ZN3etl14singleton_baseIN5async11TimeoutMockEEC2ERS2_
FN:145,_ZN3etl14singleton_baseIN5async8LockMockEEC2ERS2_
FN:145,_ZN3etl14singleton_baseIN7testing15SystemTimerMockEEC2ERS2_
FN:155,_ZN3etl14singleton_baseIN5async12TickHookMockEED2Ev
FN:155,_ZN3etl14singleton_baseIN5async11TimeoutMockEED2Ev
FN:155,_ZN3etl14singleton_baseIN10interrupts30SuspendResumeAllInterruptsMockEED2Ev
FN:155,_ZN3etl14singleton_baseIN2os12FreeRtosMockEED2Ev
FN:155,_ZN3etl14singleton_baseIN12_GLOBAL__N_111AdapterMockEED2Ev
FN:155,_ZN3etl14singleton_baseIN7console12AsyncConsoleEED2Ev
FN:155,_ZN3etl14singleton_baseIN7testing15SystemTimerMockEED2Ev
FN:155,_ZN3etl14singleton_baseIN5async8LockMockEED2Ev
FN:155,_ZN3etl14singleton_baseIN4util4test9StdIoMockEED2Ev
FN:155,_ZN3etl14singleton_baseIN5async15ContextHookMockEED2Ev
FN:155,_ZN3etl14singleton_baseIN12_GLOBAL__N_115TestBindingMockEED2Ev
FN:155,_ZN3etl14singleton_baseIN5async9AsyncMockEED2Ev
FNDA:89,_ZN3etl14singleton_baseIN7testing15SystemTimerMockEEC2ERS2_
FNDA:3,_ZN3etl14singleton_baseIN5async8LockMockEEC2ERS2_
FNDA:2,_ZN3etl14singleton_baseIN5async11TimeoutMockEE8instanceEv
FNDA:16,_ZN3etl14singleton_baseIN12_GLOBAL__N_115TestBindingMockEE8instanceEv
FNDA:230,_ZN3etl14singleton_baseIN5async9AsyncMockEED2Ev
FNDA:0,_ZN3etl26singleton_base_not_createdC2EPKci
FNDA:4,_ZN3etl14singleton_baseIN5async15ContextHookMockEED2Ev
FNDA:7,_ZN3etl14singleton_baseIN12_GLOBAL__N_115TestBindingMockEED2Ev
FNDA:2,_ZN3etl14singleton_baseIN5async12TickHookMockEE8instanceEv
FNDA:6,_ZN3etl14singleton_baseIN4util4test9StdIoMockEED2Ev
FNDA:3,_ZN3etl14singleton_baseIN5async8LockMockEED2Ev
FNDA:89,_ZN3etl14singleton_baseIN7testing15SystemTimerMockEED2Ev
FNDA:10,_ZN3etl14singleton_baseIN12_GLOBAL__N_111AdapterMockEE8instanceEv
FNDA:0,_ZN3etl14singleton_baseIN7console12AsyncConsoleEEC2ERS2_
FNDA:6,_ZN3etl14singleton_baseIN5async11TimeoutMockEEC2ERS2_
FNDA:0,_ZN3etl14singleton_baseIN7console12AsyncConsoleEED2Ev
FNDA:4,_ZN3etl14singleton_baseIN5async15ContextHookMockEEC2ERS2_
FNDA:4,_ZN3etl14singleton_baseIN5async15ContextHookMockEE8instanceEv
FNDA:4,_ZN3etl14singleton_baseIN5async12TickHookMockEEC2ERS2_
FNDA:3,_ZN3etl14singleton_baseIN12_GLOBAL__N_111AdapterMockEED2Ev
FNDA:20,_ZN3etl14singleton_baseIN2os12FreeRtosMockEED2Ev
FNDA:17660,_ZN3etl14singleton_baseIN10interrupts30SuspendResumeAllInterruptsMockEE8is_validEv
FNDA:684,_ZN3etl14singleton_baseIN5async9AsyncMockEE8instanceEv
FNDA:912,_ZN3etl14singleton_baseIN5async8LockMockEE8is_validEv
FNDA:6,_ZN3etl14singleton_baseIN10interrupts30SuspendResumeAllInterruptsMockEEC2ERS2_
FNDA:7,_ZN3etl14singleton_baseIN12_GLOBAL__N_115TestBindingMockEEC2ERS2_
FNDA:6,_ZN3etl14singleton_baseIN4util4test9StdIoMockEEC2ERS3_
FNDA:4,_ZN3etl14singleton_baseIN5async12TickHookMockEED2Ev
FNDA:0,_ZN3etl24singleton_base_exceptionC2EPKcS2_i
FNDA:6,_ZN3etl14singleton_baseIN5async11TimeoutMockEED2Ev
FNDA:231,_ZN3etl14singleton_baseIN5async9AsyncMockEEC2ERS2_
FNDA:8,_ZN3etl14singleton_baseIN5async8LockMockEE8instanceEv
FNDA:35,_ZN3etl14singleton_baseIN5async11TimeoutMockEE8is_validEv
FNDA:6,_ZN3etl14singleton_baseIN10interrupts30SuspendResumeAllInterruptsMockEED2Ev
FNDA:96,_ZN3etl14singleton_baseIN2os12FreeRtosMockEE8instanceEv
FNDA:14,_ZN3etl14singleton_baseIN10interrupts30SuspendResumeAllInterruptsMockEE8instanceEv
FNDA:0,_ZN3etl14singleton_baseIN7console12AsyncConsoleEE8instanceEv
FNDA:20,_ZN3etl14singleton_baseIN2os12FreeRtosMockEEC2ERS2_
FNDA:3,_ZN3etl14singleton_baseIN12_GLOBAL__N_111AdapterMockEEC2ERS2_
FNDA:77,_ZN3etl14singleton_baseIN7testing15SystemTimerMockEE8instanceEv
FNDA:0,_ZN3etl30singleton_base_already_createdC2EPKci
FNDA:178,_ZN3etl14singleton_baseIN4util4test9StdIoMockEE8instanceEv
FNF:42
FNH:36
DA:54,0
DA:55,0
DA:57,0
DA:67,0
DA:68,0
DA:70,0
DA:80,0
DA:81,0
DA:83,0
DA:124,1091
DA:126,210
DA:128,1091
DA:134,18607
DA:136,18607
DA:145,379
DA:147,361
DA:149,379
DA:150,379
DA:155,378
DA:157,378
DA:158,378
LF:21
LH:12
end_of_record
TN:
SF:/home/jenkins/libs/3rdparty/etl/include/etl/span.h
FN:71,_ZN3etl14span_exceptionC2EPKcS2_i
FN:85,_ZN3etl24span_alignment_exceptionC2EPKci
FN:99,_ZN3etl18span_size_mismatchC2EPKci
FN:135,_ZN3etl4spanIKhLm16EEC2IPS1_hEET_T0_
FN:135,_ZN3etl4spanIKhLm4EEC2IPS1_hEET_T0_
FN:154,_ZN3etl4spanIhLm10EEC2ILm10EvEERAT__h
FN:154,_ZN3etl4spanIPN2io7IWriterELm8EEC2ILm8EvEERAT__S3_
FN:154,_ZN3etl4spanIKPKcLm3EEC2ILm3EvEERAT__S3_
FN:154,_ZN3etl4spanIPN2io7IReaderELm8EEC2ILm8EvEERAT__S3_
FN:178,_ZN3etl4spanIPN2io7IWriterELm8EEC2IRNS_5arrayIS3_Lm8EEEvEEOT_
FN:178,_ZN3etl4spanIPN2io7IWriterELm7EEC2IRNS_5arrayIS3_Lm8EEEvEEOT_
FN:178,_ZN3etl4spanIPN2io7IWriterELm1EEC2IRNS_5arrayIS3_Lm1EEEvEEOT_
FN:213,_ZN3etl4spanIPN2io7IWriterELm1EEC2ERKS4_
FN:213,_ZN3etl4spanIPN2io7IReaderELm8EEC2ERKS4_
FN:213,_ZN3etl4spanIPN2io7IWriterELm8EEC2ERKS4_
FN:213,_ZN3etl4spanIPN2io7IWriterELm7EEC2ERKS4_
FN:233,_ZN3etl4spanIKhLm3EEC2IS1_Lm18446744073709551615EEERKNS0_IT_XT0_EEEPNS_9enable_ifIXeqT0_L_ZNS_L14dynamic_extentEEEvE4typeE
FN:233,_ZN3etl4spanIhLm3EEC2IhLm18446744073709551615EEERKNS0_IT_XT0_EEEPNS_9enable_ifIXeqT0_L_ZNS_L14dynamic_extentEEEvE4typeE
FN:258,_ZNK3etl4spanIhLm10EE4dataEv
FN:258,_ZNK3etl4spanIKPKcLm3EE4dataEv
FN:258,_ZNK3etl4spanIKhLm4EE4dataEv
FN:258,_ZNK3etl4spanIKhLm16EE4dataEv
FN:274,_ZNK3etl4spanIhLm3EE5beginEv
FN:274,_ZNK3etl4spanIKhLm3EE5beginEv
FN:298,_ZNK3etl4spanIKhLm3EE3endEv
FN:346,_ZNK3etl4spanIKhLm3EE5emptyEv
FN:354,_ZNK3etl4spanIhLm3EE4sizeEv
FN:354,_ZNK3etl4spanIhLm10EE4sizeEv
FN:354,_ZNK3etl4spanIKPKcLm3EE4sizeEv
FN:354,_ZNK3etl4spanIKhLm3EE4sizeEv
FN:354,_ZNK3etl4spanIKhLm4EE4sizeEv
FN:354,_ZNK3etl4spanIKhLm16EE4sizeEv
FN:407,_ZNK3etl4spanIKhLm16EEixEm
FN:407,_ZNK3etl4spanIPN2io7IWriterELm7EEixEm
FN:407,_ZNK3etl4spanIPN2io7IWriterELm8EEixEm
FN:407,_ZNK3etl4spanIPN2io7IReaderELm8EEixEm
FN:407,_ZNK3etl4spanIPN2io7IWriterELm1EEixEm
FN:407,_ZNK3etl4spanIKhLm4EEixEm
FN:568,_ZN3etl4spanIcLm18446744073709551615EEC2Ev
FN:568,_ZN3etl4spanIKN5docan39DoCanNormalAddressingFilterAddressEntryINS1_18DoCanDataLinkLayerIjthLj4294967295EtEEEELm18446744073709551615EEC2Ev
FN:568,_ZN3etl4spanIhLm18446744073709551615EEC2Ev
FN:568,_ZN3etl4spanIKhLm18446744073709551615EEC1Ev
FN:568,_ZN3etl4spanIKhLm18446744073709551615EEC2Ev
FN:568,_ZN3etl4spanIPKN5docan15DoCanFrameCodecINS1_18DoCanDataLinkLayerIjthLj4294967295EtEEEELm18446744073709551615EEC2Ev
FN:578,_ZN3etl4spanIKhLm18446744073709551615EEC2IPS1_mEET_T0_
FN:578,_ZN3etl4spanIhLm18446744073709551615EEC2IPhjEET_T0_
FN:578,_ZN3etl4spanIKhLm18446744073709551615EEC2IPhtEET_T0_
FN:578,_ZN3etl4spanIhLm18446744073709551615EEC1IPhmEET_T0_
FN:578,_ZN3etl4spanIKhLm18446744073709551615EEC1IPS1_mEET_T0_
FN:578,_ZN3etl4spanIKhLm18446744073709551615EEC2IPS1_jEET_T0_
FN:578,_ZN3etl4spanIcLm18446744073709551615EEC2IPcmEET_T0_
FN:578,_ZN3etl4spanImLm18446744073709551615EEC2IPmmEET_T0_
FN:578,_ZN3etl4spanIKhLm18446744073709551615EEC2IPhjEET_T0_
FN:578,_ZN3etl4spanIN12_GLOBAL__N_11CELm18446744073709551615EEC2IPS2_mEET_T0_
FN:578,_ZN3etl4spanIKhLm18446744073709551615EEC2IPS1_tEET_T0_
FN:578,_ZN3etl4spanIKcLm18446744073709551615EEC2IPS1_mEET_T0_
FN:578,_ZN3etl4spanIKhLm18446744073709551615EEC2IPhhEET_T0_
FN:578,_ZN3etl4spanIhLm18446744073709551615EEC2IPhhEET_T0_
FN:578,_ZN3etl4spanIN12_GLOBAL__N_11AELm18446744073709551615EEC2IPS2_mEET_T0_
FN:578,_ZN3etl4spanIhLm18446744073709551615EEC2IPhmEET_T0_
FN:578,_ZN3etl4spanIKhLm18446744073709551615EEC2IPhmEET_T0_
FN:578,_ZN3etl4spanIKhLm18446744073709551615EEC2IPS1_hEET_T0_
FN:578,_ZN3etl4spanIKN5docan39DoCanNormalAddressingFilterAddressEntryINS1_18DoCanDataLinkLayerIjthLj4294967295EtEEEELm18446744073709551615EEC2IPS6_mEET_T0_
FN:578,_ZN3etl4spanIhLm18446744073709551615EEC2IPhtEET_T0_
FN:578,_ZN3etl4spanIKhLm18446744073709551615EEC2IPhiEET_T0_
FN:578,_ZN3etl4spanIN12_GLOBAL__N_11BELm18446744073709551615EEC2IPS2_mEET_T0_
FN:578,_ZN3etl4spanIKhLm18446744073709551615EEC2IPS1_iEET_T0_
FN:578,_ZN3etl4spanIKhLm18446744073709551615EEC1IPS1_tEET_T0_
FN:588,_ZN3etl4spanIKhLm18446744073709551615EEC2IPS1_EET_S5_
FN:588,_ZN3etl4spanIhLm18446744073709551615EEC2IPhEET_S4_
FN:588,_ZN3etl4spanIKhLm18446744073709551615EEC1IPS1_EET_S5_
FN:588,_ZN3etl4spanIcLm18446744073709551615EEC2IPcEET_S4_
FN:588,_ZN3etl4spanIhLm18446744073709551615EEC1IPhEET_S4_
FN:598,_ZN3etl4spanIhLm18446744073709551615EEC1ILm4999EEERAT__h
FN:598,_ZN3etl4spanIKhLm18446744073709551615EEC2ILm17EEERAT__S1_
FN:598,_ZN3etl4spanIhLm18446744073709551615EEC2ILm21EEERAT__h
FN:598,_ZN3etl4spanIKhLm18446744073709551615EEC2ILm2EEERAT__S1_
FN:598,_ZN3etl4spanIKhLm18446744073709551615EEC2ILm20EEERAT__S1_
FN:598,_ZN3etl4spanIcLm18446744073709551615EEC2ILm22EEERAT__c
FN:598,_ZN3etl4spanIhLm18446744073709551615EEC2ILm20EEERAT__h
FN:598,_ZN3etl4spanIKhLm18446744073709551615EEC2ILm13EEERAT__S1_
FN:598,_ZN3etl4spanIhLm18446744073709551615EEC2ILm10EEERAT__h
FN:598,_ZN3etl4spanIPKN5docan15DoCanFrameCodecINS1_18DoCanDataLinkLayerIjthLj4294967295EtEEEELm18446744073709551615EEC2ILm1EEERAT__S7_
FN:598,_ZN3etl4spanIhLm18446744073709551615EEC2ILm300EEERAT__h
FN:598,_ZN3etl4spanIhLm18446744073709551615EEC2ILm2EEERAT__h
FN:598,_ZN3etl4spanIhLm18446744073709551615EEC1ILm1EEERAT__h
FN:598,_ZN3etl4spanIN12_GLOBAL__N_114TestStatisticsELm18446744073709551615EEC2ILm6EEERAT__S2_
FN:598,_ZN3etl4spanIKN7runtime17RuntimeStatisticsELm18446744073709551615EEC2ILm4EEERAT__S3_
FN:598,_ZN3etl4spanIKPKcLm18446744073709551615EEC2ILm4EEERAT__S3_
FN:598,_ZN3etl4spanIhLm18446744073709551615EEC2ILm31EEERAT__h
FN:598,_ZN3etl4spanIcLm18446744073709551615EEC2ILm100EEERAT__c
FN:598,_ZN3etl4spanIKhLm18446744073709551615EEC1ILm6699EEERAT__S1_
FN:598,_ZN3etl4spanIN12_GLOBAL__N_19TestEntryELm18446744073709551615EEC2ILm5EEERAT__S2_
FN:598,_ZN3etl4spanIKhLm18446744073709551615EEC1ILm3EEERAT__S1_
FN:598,_ZN3etl4spanIKPKcLm18446744073709551615EEC2ILm5EEERAT__S3_
FN:598,_ZN3etl4spanIKhLm18446744073709551615EEC2ILm16EEERAT__S1_
FN:598,_ZN3etl4spanIcLm18446744073709551615EEC2ILm300EEERAT__c
FN:598,_ZN3etl4spanIKhLm18446744073709551615EEC2ILm6EEERAT__S1_
FN:598,_ZN3etl4spanIcLm18446744073709551615EEC2ILm7EEERAT__c
FN:598,_ZN3etl4spanIhLm18446744073709551615EEC1ILm3EEERAT__h
FN:598,_ZN3etl4spanIcLm18446744073709551615EEC2ILm10EEERAT__c
FN:598,_ZN3etl4spanIhLm18446744073709551615EEC1ILm21EEERAT__h
FN:598,_ZN3etl4spanIhLm18446744073709551615EEC1ILm9EEERAT__h
FN:598,_ZN3etl4spanImLm18446744073709551615EEC2ILm100EEERAT__m
FN:598,_ZN3etl4spanIKhLm18446744073709551615EEC1ILm21EEERAT__S1_
FN:598,_ZN3etl4spanIKN5docan39DoCanNormalAddressingFilterAddressEntryINS1_18DoCanDataLinkLayerIjthLj4294967295EtEEEELm18446744073709551615EEC2ILm1EEERAT__S6_
FN:598,_ZN3etl4spanIhLm18446744073709551615EEC2ILm64EEERAT__h
FN:598,_ZN3etl4spanIKhLm18446744073709551615EEC2ILm4EEERAT__S1_
FN:598,_ZN3etl4spanIcLm18446744073709551615EEC2ILm48EEERAT__c
FN:598,_ZN3etl4spanIcLm18446744073709551615EEC2ILm200EEERAT__c
FN:598,_ZN3etl4spanIKhLm18446744073709551615EEC2ILm4951EEERAT__S1_
FN:598,_ZN3etl4spanIKhLm18446744073709551615EEC1ILm1EEERAT__S1_
FN:598,_ZN3etl4spanIKhLm18446744073709551615EEC2ILm8EEERAT__S1_
FN:598,_ZN3etl4spanIKhLm18446744073709551615EEC1ILm5EEERAT__S1_
FN:598,_ZN3etl4spanIhLm18446744073709551615EEC2ILm15EEERAT__h
FN:598,_ZN3etl4spanIKhLm18446744073709551615EEC2ILm1EEERAT__S1_
FN:598,_ZN3etl4spanIN7runtime14RuntimeMonitorIN12_GLOBAL__N_121TestContextStatisticsENS3_22TestFunctionStatisticsEE12ContextEntryELm18446744073709551615EEC2ILm3EEERAT__S7_
FN:598,_ZN3etl4spanIKhLm18446744073709551615EEC2ILm9EEERAT__S1_
FN:598,_ZN3etl4spanIhLm18446744073709551615EEC1ILm12EEERAT__h
FN:598,_ZN3etl4spanIKhLm18446744073709551615EEC2ILm8189EEERAT__S1_
FN:598,_ZN3etl4spanIPKcLm18446744073709551615EEC2ILm5EEERAT__S2_
FN:598,_ZN3etl4spanIKhLm18446744073709551615EEC1ILm7EEERAT__S1_
FN:598,_ZN3etl4spanIKhLm18446744073709551615EEC1ILm2EEERAT__S1_
FN:598,_ZN3etl4spanIN12_GLOBAL__N_114TestStatisticsELm18446744073709551615EEC2ILm5EEERAT__S2_
FN:598,_ZN3etl4spanIhLm18446744073709551615EEC2ILm3EEERAT__h
FN:598,_ZN3etl4spanIKhLm18446744073709551615EEC1ILm15EEERAT__S1_
FN:598,_ZN3etl4spanIhLm18446744073709551615EEC2ILm6EEERAT__h
FN:598,_ZN3etl4spanIhLm18446744073709551615EEC2ILm7EEERAT__h
FN:598,_ZN3etl4spanIKhLm18446744073709551615EEC2ILm12EEERAT__S1_
FN:598,_ZN3etl4spanIKhLm18446744073709551615EEC1ILm12EEERAT__S1_
FN:598,_ZN3etl4spanIPKcLm18446744073709551615EEC2ILm4EEERAT__S2_
FN:598,_ZN3etl4spanIKhLm18446744073709551615EEC1ILm65536EEERAT__S1_
FN:598,_ZN3etl4spanIhLm18446744073709551615EEC2ILm9EEERAT__h
FN:598,_ZN3etl4spanIhLm18446744073709551615EEC1ILm10EEERAT__h
FN:598,_ZN3etl4spanIKhLm18446744073709551615EEC2ILm15EEERAT__S1_
FN:598,_ZN3etl4spanIKhLm18446744073709551615EEC1ILm18EEERAT__S1_
FN:598,_ZN3etl4spanIKhLm18446744073709551615EEC2ILm3EEERAT__S1_
FN:598,_ZN3etl4spanIN12_GLOBAL__N_114TestStatisticsELm18446744073709551615EEC2ILm4EEERAT__S2_
FN:598,_ZN3etl4spanIcLm18446744073709551615EEC2ILm32EEERAT__c
FN:598,_ZN3etl4spanIKN5docan39DoCanNormalAddressingFilterAddressEntryINS1_18DoCanDataLinkLayerIjthLj4294967295EtEEEELm18446744073709551615EEC2ILm2EEERAT__S6_
FN:598,_ZN3etl4spanIKN12_GLOBAL__N_114TestStatisticsELm18446744073709551615EEC2ILm5EEERAT__S3_
FN:598,_ZN3etl4spanIhLm18446744073709551615EEC2ILm511EEERAT__h
FN:598,_ZN3etl4spanIhLm18446744073709551615EEC2ILm128EEERAT__h
FN:598,_ZN3etl4spanIhLm18446744073709551615EEC2ILm8191EEERAT__h
FN:598,_ZN3etl4spanIPKN5docan15DoCanFrameCodecINS1_18DoCanDataLinkLayerIjthLj4294967295EtEEEELm18446744073709551615EEC2ILm4EEERAT__S7_
FN:598,_ZN3etl4spanIKhLm18446744073709551615EEC2ILm14EEERAT__S1_
FN:598,_ZN3etl4spanIKhLm18446744073709551615EEC2ILm5EEERAT__S1_
FN:598,_ZN3etl4spanIKhLm18446744073709551615EEC1ILm14EEERAT__S1_
FN:598,_ZN3etl4spanIcLm18446744073709551615EEC2ILm80EEERAT__c
FN:598,_ZN3etl4spanIhLm18446744073709551615EEC2ILm5EEERAT__h
FN:598,_ZN3etl4spanIhLm18446744073709551615EEC1ILm4EEERAT__h
FN:598,_ZN3etl4spanIcLm18446744073709551615EEC2ILm16EEERAT__c
FN:598,_ZN3etl4spanIKhLm18446744073709551615EEC1ILm8EEERAT__S1_
FN:598,_ZN3etl4spanIhLm18446744073709551615EEC2ILm16EEERAT__h
FN:598,_ZN3etl4spanIKhLm18446744073709551615EEC2ILm7EEERAT__S1_
FN:598,_ZN3etl4spanIKhLm18446744073709551615EEC2ILm64EEERAT__S1_
FN:598,_ZN3etl4spanIKN5docan39DoCanNormalAddressingFilterAddressEntryINS1_18DoCanDataLinkLayerIjthLj4294967295EtEEEELm18446744073709551615EEC2ILm3EEERAT__S6_
FN:598,_ZN3etl4spanIKhLm18446744073709551615EEC1ILm4321EEERAT__S1_
FN:598,_ZN3etl4spanIKN5docan39DoCanNormalAddressingFilterAddressEntryINS1_18DoCanDataLinkLayerIjthLj4294967295EtEEEELm18446744073709551615EEC2ILm8EEERAT__S6_
FN:598,_ZN3etl4spanIcLm18446744073709551615EEC2ILm60EEERAT__c
FN:598,_ZN3etl4spanIKhLm18446744073709551615EEC1ILm4369EEERAT__S1_
FN:598,_ZN3etl4spanIhLm18446744073709551615EEC2ILm4096EEERAT__h
FN:598,_ZN3etl4spanIhLm18446744073709551615EEC2ILm1EEERAT__h
FN:598,_ZN3etl4spanIcLm18446744073709551615EEC2ILm20EEERAT__c
FN:598,_ZN3etl4spanIcLm18446744073709551615EEC2ILm40EEERAT__c
FN:598,_ZN3etl4spanIN7runtime14RuntimeMonitorIN12_GLOBAL__N_121TestContextStatisticsENS3_22TestFunctionStatisticsEE12ContextEntryELm18446744073709551615EEC2ILm2EEERAT__S7_
FN:598,_ZN3etl4spanIcLm18446744073709551615EEC2ILm1EEERAT__c
FN:598,_ZN3etl4spanIhLm18446744073709551615EEC2ILm4EEERAT__h
FN:613,_ZN3etl4spanIhLm18446744073709551615EEC2IRNS_5arrayIhLm5EEEvEEOT_
FN:613,_ZN3etl4spanIKN9transport14LogicalAddressELm18446744073709551615EEC1IRKSt5arrayIS2_Lm2EEvEEOT_
FN:613,_ZN3etl4spanIN12_GLOBAL__N_114TestStatisticsELm18446744073709551615EEC2IRNS_5arrayIS2_Lm5EEEvEEOT_
FN:613,_ZN3etl4spanIKhLm18446744073709551615EEC2IRNS_5arrayIhLm16384EEEvEEOT_
FN:613,_ZN3etl4spanIN7runtime14RuntimeMonitorIN12_GLOBAL__N_121TestContextStatisticsENS3_22TestFunctionStatisticsEE12ContextEntryELm18446744073709551615EEC2IRNS_5arrayIS7_Lm2EEEvEEOT_
FN:613,_ZN3etl4spanIN7runtime14RuntimeMonitorIN12_GLOBAL__N_121TestContextStatisticsENS3_22TestFunctionStatisticsEE12ContextEntryELm18446744073709551615EEC2IRNS_5arrayIS7_Lm3EEEvEEOT_
FN:613,_ZN3etl4spanImLm18446744073709551615EEC2IRNS_5arrayImLm64EEEvEEOT_
FN:613,_ZN3etl4spanIKhLm18446744073709551615EEC2IRNS_5arrayIhLm4EEEvEEOT_
FN:613,_ZN3etl4spanIN5docan19DoCanTransportLayerINS1_18DoCanDataLinkLayerIjthLj0EtEEEELm18446744073709551615EEC2IRNS_7ivectorIS5_EEvEEOT_
FN:613,_ZN3etl4spanIhLm18446744073709551615EEC2IRNS_5arrayIhLm16384EEEvEEOT_
FN:613,_ZN3etl4spanIN12_GLOBAL__N_114TestStatisticsELm18446744073709551615EEC2IRNS_5arrayIS2_Lm4EEEvEEOT_
FN:613,_ZN3etl4spanIN5docan27DoCanPhysicalCanTransceiverINS1_21DoCanNormalAddressingIthtEEEELm18446744073709551615EEC2IRNS_7ivectorIS5_EEvEEOT_
FN:613,_ZN3etl4spanIhLm18446744073709551615EEC2IRNS_5arrayIhLm2EEEvEEOT_
FN:613,_ZN3etl4spanIN9lifecycle16LifecycleManager13ComponentInfoELm18446744073709551615EEC2IRNS_5arrayIS3_Lm21EEEvEEOT_
FN:613,_ZN3etl4spanImLm18446744073709551615EEC2IRNS_5arrayImLm96EEEvEEOT_
FN:613,_ZN3etl4spanIhLm18446744073709551615EEC2IRNS_5arrayIhLm8EEEvEEOT_
FN:613,_ZN3etl4spanIKN9transport14LogicalAddressELm18446744073709551615EEC2IRKSt5arrayIS2_Lm3EEvEEOT_
FN:613,_ZN3etl4spanIhLm18446744073709551615EEC2IKS1_vEEOT_
FN:613,_ZN3etl4spanIKhLm18446744073709551615EEC2IRNS_5arrayIhLm2EEEvEEOT_
FN:613,_ZN3etl4spanIN12_GLOBAL__N_114TestStatisticsELm18446744073709551615EEC2IRNS_5arrayIS2_Lm3EEEvEEOT_
FN:613,_ZN3etl4spanIKPN7storage8IStorageELm18446744073709551615EEC2IRNS_5arrayIS4_Lm3EEEvEEOT_
FN:613,_ZN3etl4spanIKN9transport14LogicalAddressELm18446744073709551615EEC2IRKSt5arrayIS2_Lm2EEvEEOT_
FN:613,_ZN3etl4spanImLm18446744073709551615EEC2IRNS_5arrayImLm49EEEvEEOT_
FN:613,_ZN3etl4spanImLm18446744073709551615EEC2IRNS_5arrayImLm1EEEvEEOT_
FN:613,_ZN3etl4spanIhLm18446744073709551615EEC2IRNS_5arrayIhLm3EEEvEEOT_
FN:613,_ZN3etl4spanIN9lifecycle16LifecycleManager13ComponentInfoELm18446744073709551615EEC2IRNS_5arrayIS3_Lm4EEEvEEOT_
FN:613,_ZN3etl4spanIPN7storage10StorageJobELm18446744073709551615EEC2IRNS_5arrayIS3_Lm2EEEvEEOT_
FN:613,_ZN3etl4spanIhLm18446744073709551615EEC2IRNS_5arrayIhLm4EEEvEEOT_
FN:613,_ZN3etl4spanImLm18446744073709551615EEC2IRNS_5arrayImLm32EEEvEEOT_
FN:613,_ZN3etl4spanImLm18446744073709551615EEC2IRNS_5arrayImLm16EEEvEEOT_
FN:613,_ZN3etl4spanImLm18446744073709551615EEC2IRNS_5arrayImLm48EEEvEEOT_
FN:613,_ZN3etl4spanIN9lifecycle16LifecycleManager13ComponentInfoELm18446744073709551615EEC2IRNS_5arrayIS3_Lm3EEEvEEOT_
FN:613,_ZN3etl4spanIKN9transport14LogicalAddressELm18446744073709551615EEC1IRKSt5arrayIS2_Lm3EEvEEOT_
FN:613,_ZN3etl4spanIKhLm18446744073709551615EEC2IRNS_5arrayIhLm3EEEvEEOT_
FN:651,_ZN3etl4spanIKPKcLm18446744073709551615EEC2ERKS4_
FN:651,_ZN3etl4spanIKhLm18446744073709551615EEC2ERKS2_
FN:651,_ZN3etl4spanIPN7storage10StorageJobELm18446744073709551615EEC2ERKS4_
FN:651,_ZN3etl4spanIhLm18446744073709551615EEC2ERKS1_
FN:651,_ZN3etl4spanIKN12_GLOBAL__N_19TestEntryELm18446744073709551615EEC2ERKS4_
FN:651,_ZN3etl4spanIKN7runtime17RuntimeStatisticsELm18446744073709551615EEC1ERKS4_
FN:651,_ZN3etl4spanIcLm18446744073709551615EEC2ERKS1_
FN:651,_ZN3etl4spanIKPN7storage8IStorageELm18446744073709551615EEC2ERKS5_
FN:651,_ZN3etl4spanIKhLm18446744073709551615EEC1ERKS2_
FN:651,_ZN3etl4spanIN12_GLOBAL__N_19TestEntryELm18446744073709551615EEC2ERKS3_
FN:651,_ZN3etl4spanImLm18446744073709551615EEC2ERKS1_
FN:651,_ZN3etl4spanIPKcLm18446744073709551615EEC2ERKS3_
FN:651,_ZN3etl4spanIN9lifecycle16LifecycleManager13ComponentInfoELm18446744073709551615EEC2ERKS4_
FN:651,_ZN3etl4spanIhLm18446744073709551615EEC1ERKS1_
FN:651,_ZN3etl4spanIN12_GLOBAL__N_114TestStatisticsELm18446744073709551615EEC2ERKS3_
FN:651,_ZN3etl4spanIPKN5docan15DoCanFrameCodecINS1_18DoCanDataLinkLayerIjthLj4294967295EtEEEELm18446744073709551615EEC2ERKS8_
FN:651,_ZN3etl4spanIKN5docan39DoCanNormalAddressingFilterAddressEntryINS1_18DoCanDataLinkLayerIjthLj4294967295EtEEEELm18446744073709551615EEC2ERKS7_
FN:651,_ZN3etl4spanIKN12_GLOBAL__N_114TestStatisticsELm18446744073709551615EEC2ERKS4_
FN:651,_ZN3etl4spanIN7runtime14RuntimeMonitorIN12_GLOBAL__N_121TestContextStatisticsENS3_22TestFunctionStatisticsEE12ContextEntryELm18446744073709551615EEC2ERKS8_
FN:661,_ZN3etl4spanIKhLm18446744073709551615EEC2IhLm18446744073709551615EEERKNS0_IT_XT0_EEE
FN:661,_ZN3etl4spanIKN12_GLOBAL__N_114TestStatisticsELm18446744073709551615EEC2IS2_Lm18446744073709551615EEERKNS0_IT_XT0_EEE
FN:661,_ZN3etl4spanIKhLm18446744073709551615EEC2IS1_Lm4EEERKNS0_IT_XT0_EEE
FN:661,_ZN3etl4spanIhLm18446744073709551615EEC2IhLm10EEERKNS0_IT_XT0_EEE
FN:661,_ZN3etl4spanIKN12_GLOBAL__N_19TestEntryELm18446744073709551615EEC2IS2_Lm18446744073709551615EEERKNS0_IT_XT0_EEE
FN:661,_ZN3etl4spanIKPKcLm18446744073709551615EEC2IS3_Lm3EEERKNS0_IT_XT0_EEE
FN:661,_ZN3etl4spanIKhLm18446744073709551615EEC2IS1_Lm16EEERKNS0_IT_XT0_EEE
FN:686,_ZNK3etl4spanIhLm18446744073709551615EE4dataEv
FN:686,_ZNK3etl4spanIcLm18446744073709551615EE4dataEv
FN:686,_ZNK3etl4spanIKhLm18446744073709551615EE4dataEv
FN:686,_ZNK3etl4spanIN12_GLOBAL__N_114TestStatisticsELm18446744073709551615EE4dataEv
FN:686,_ZNK3etl4spanImLm18446744073709551615EE4dataEv
FN:686,_ZNK3etl4spanIN12_GLOBAL__N_19TestEntryELm18446744073709551615EE4dataEv
FN:694,_ZNK3etl4spanIKhLm18446744073709551615EE6cbeginEv
FN:702,_ZNK3etl4spanIKN9transport14LogicalAddressELm18446744073709551615EE5beginEv
FN:702,_ZNK3etl4spanIKN5docan39DoCanNormalAddressingFilterAddressEntryINS1_18DoCanDataLinkLayerIjthLj4294967295EtEEEELm18446744073709551615EE5beginEv
FN:702,_ZNK3etl4spanIhLm18446744073709551615EE5beginEv
FN:702,_ZNK3etl4spanIN12_GLOBAL__N_114TestStatisticsELm18446744073709551615EE5beginEv
FN:702,_ZNK3etl4spanIN7runtime14RuntimeMonitorIN12_GLOBAL__N_121TestContextStatisticsENS3_22TestFunctionStatisticsEE12ContextEntryELm18446744073709551615EE5beginEv
FN:702,_ZNK3etl4spanIcLm18446744073709551615EE5beginEv
FN:702,_ZNK3etl4spanIKhLm18446744073709551615EE5beginEv
FN:726,_ZNK3etl4spanIKhLm18446744073709551615EE3endEv
FN:726,_ZNK3etl4spanIKN9transport14LogicalAddressELm18446744073709551615EE3endEv
FN:726,_ZNK3etl4spanIhLm18446744073709551615EE3endEv
FN:726,_ZNK3etl4spanIN7runtime14RuntimeMonitorIN12_GLOBAL__N_121TestContextStatisticsENS3_22TestFunctionStatisticsEE12ContextEntryELm18446744073709551615EE3endEv
FN:726,_ZNK3etl4spanIN12_GLOBAL__N_114TestStatisticsELm18446744073709551615EE3endEv
FN:726,_ZNK3etl4spanIcLm18446744073709551615EE3endEv
FN:726,_ZNK3etl4spanIKN5docan39DoCanNormalAddressingFilterAddressEntryINS1_18DoCanDataLinkLayerIjthLj4294967295EtEEEELm18446744073709551615EE3endEv
FN:774,_ZNK3etl4spanIhLm18446744073709551615EE5emptyEv
FN:774,_ZNK3etl4spanIKhLm18446744073709551615EE5emptyEv
FN:782,_ZNK3etl4spanIhLm18446744073709551615EE4sizeEv
FN:782,_ZNK3etl4spanIKN12_GLOBAL__N_114TestStatisticsELm18446744073709551615EE4sizeEv
FN:782,_ZNK3etl4spanIKN7runtime17RuntimeStatisticsELm18446744073709551615EE4sizeEv
FN:782,_ZNK3etl4spanIKhLm18446744073709551615EE4sizeEv
FN:782,_ZNK3etl4spanIN7runtime14RuntimeMonitorIN12_GLOBAL__N_121TestContextStatisticsENS3_22TestFunctionStatisticsEE12ContextEntryELm18446744073709551615EE4sizeEv
FN:782,_ZNK3etl4spanIN9lifecycle16LifecycleManager13ComponentInfoELm18446744073709551615EE4sizeEv
FN:782,_ZNK3etl4spanIKN5docan39DoCanNormalAddressingFilterAddressEntryINS1_18DoCanDataLinkLayerIjthLj4294967295EtEEEELm18446744073709551615EE4sizeEv
FN:782,_ZNK3etl4spanIcLm18446744073709551615EE4sizeEv
FN:782,_ZNK3etl4spanIN5docan27DoCanPhysicalCanTransceiverINS1_21DoCanNormalAddressingIthtEEEELm18446744073709551615EE4sizeEv
FN:782,_ZNK3etl4spanIKPN7storage8IStorageELm18446744073709551615EE4sizeEv
FN:782,_ZNK3etl4spanIKN12_GLOBAL__N_19TestEntryELm18446744073709551615EE4sizeEv
FN:782,_ZNK3etl4spanImLm18446744073709551615EE4sizeEv
FN:782,_ZNK3etl4spanIN12_GLOBAL__N_114TestStatisticsELm18446744073709551615EE4sizeEv
FN:782,_ZNK3etl4spanIPKN5docan15DoCanFrameCodecINS1_18DoCanDataLinkLayerIjthLj4294967295EtEEEELm18446744073709551615EE4sizeEv
FN:782,_ZNK3etl4spanIN12_GLOBAL__N_19TestEntryELm18446744073709551615EE4sizeEv
FN:782,_ZNK3etl4spanIPN7storage10StorageJobELm18446744073709551615EE4sizeEv
FN:782,_ZNK3etl4spanIN5docan19DoCanTransportLayerINS1_18DoCanDataLinkLayerIjthLj0EtEEEELm18446744073709551615EE4sizeEv
FN:806,_ZN3etl4spanIhLm18446744073709551615EEaSERKS1_
FN:806,_ZN3etl4spanIKhLm18446744073709551615EEaSERKS2_
FN:806,_ZN3etl4spanIPKN5docan15DoCanFrameCodecINS1_18DoCanDataLinkLayerIjthLj4294967295EtEEEELm18446744073709551615EEaSERKS8_
FN:806,_ZN3etl4spanIKN5docan39DoCanNormalAddressingFilterAddressEntryINS1_18DoCanDataLinkLayerIjthLj4294967295EtEEEELm18446744073709551615EEaSERKS7_
FN:806,_ZN3etl4spanImLm18446744073709551615EEaSERKS1_
FN:836,_ZNK3etl4spanIKN12_GLOBAL__N_19TestEntryELm18446744073709551615EEixEm
FN:836,_ZNK3etl4spanIPKcLm18446744073709551615EEixEm
FN:836,_ZNK3etl4spanIN9lifecycle16LifecycleManager13ComponentInfoELm18446744073709551615EEixEm
FN:836,_ZNK3etl4spanIN12_GLOBAL__N_19TestEntryELm18446744073709551615EEixEm
FN:836,_ZNK3etl4spanIN12_GLOBAL__N_114TestStatisticsELm18446744073709551615EEixEm
FN:836,_ZNK3etl4spanIKhLm18446744073709551615EEixEm
FN:836,_ZNK3etl4spanIN5docan27DoCanPhysicalCanTransceiverINS1_21DoCanNormalAddressingIthtEEEELm18446744073709551615EEixEm
FN:836,_ZNK3etl4spanIN12_GLOBAL__N_11BELm18446744073709551615EEixEm
FN:836,_ZNK3etl4spanIN5docan19DoCanTransportLayerINS1_18DoCanDataLinkLayerIjthLj0EtEEEELm18446744073709551615EEixEm
FN:836,_ZNK3etl4spanIPKN5docan15DoCanFrameCodecINS1_18DoCanDataLinkLayerIjthLj4294967295EtEEEELm18446744073709551615EEixEm
FN:836,_ZNK3etl4spanIN7runtime14RuntimeMonitorIN12_GLOBAL__N_121TestContextStatisticsENS3_22TestFunctionStatisticsEE12ContextEntryELm18446744073709551615EEixEm
FN:836,_ZNK3etl4spanIN12_GLOBAL__N_11CELm18446744073709551615EEixEm
FN:836,_ZNK3etl4spanIhLm18446744073709551615EEixEm
FN:836,_ZNK3etl4spanIKN12_GLOBAL__N_114TestStatisticsELm18446744073709551615EEixEm
FN:836,_ZNK3etl4spanIPN7storage10StorageJobELm18446744073709551615EEixEm
FN:836,_ZNK3etl4spanIKPN7storage8IStorageELm18446744073709551615EEixEm
FN:836,_ZNK3etl4spanIKN7runtime17RuntimeStatisticsELm18446744073709551615EEixEm
FN:836,_ZNK3etl4spanIcLm18446744073709551615EEixEm
FN:836,_ZNK3etl4spanIN12_GLOBAL__N_11AELm18446744073709551615EEixEm
FN:836,_ZNK3etl4spanIKPKcLm18446744073709551615EEixEm
FN:853,_ZNK3etl4spanIKhLm18446744073709551615EE5firstEm
FN:853,_ZNK3etl4spanIhLm18446744073709551615EE5firstEm
FN:853,_ZNK3etl4spanIcLm18446744073709551615EE5firstEm
FN:907,_ZNK3etl4spanIKhLm18446744073709551615EE7subspanEmm
FN:907,_ZNK3etl4spanIhLm18446744073709551615EE7subspanEmm
FN:907,_ZNK3etl4spanIcLm18446744073709551615EE7subspanEmm
FN:917,_ZN3etl4spanIKhLm18446744073709551615EE7advanceEm
FN:917,_ZN3etl4spanIhLm18446744073709551615EE7advanceEm
FN:927,_ZNK3etl4spanIKcLm18446744073709551615EE14reinterpret_asIKhEENS0_IT_Lm18446744073709551615EEEv
FN:927,_ZNK3etl4spanIhLm18446744073709551615EE14reinterpret_asIN12_GLOBAL__N_11BEEENS0_IT_Lm18446744073709551615EEEv
FN:927,_ZNK3etl4spanIhLm18446744073709551615EE14reinterpret_asIN12_GLOBAL__N_11AEEENS0_IT_Lm18446744073709551615EEEv
FN:927,_ZNK3etl4spanIhLm18446744073709551615EE14reinterpret_asIN12_GLOBAL__N_11CEEENS0_IT_Lm18446744073709551615EEEv
FN:927,_ZNK3etl4spanIcLm18446744073709551615EE14reinterpret_asIhEENS0_IT_Lm18446744073709551615EEEv
FN:927,_ZNK3etl4spanImLm18446744073709551615EE14reinterpret_asIhEENS0_IT_Lm18446744073709551615EEEv
FN:927,_ZNK3etl4spanIhLm18446744073709551615EE14reinterpret_asImEENS0_IT_Lm18446744073709551615EEEv
FN:985,_ZN3etl9make_spanINS_5arrayImLm1EEEEENS_4spanINT_10value_typeELm18446744073709551615EEERS4_
FN:985,_ZN3etl9make_spanINS_5arrayImLm49EEEEENS_4spanINT_10value_typeELm18446744073709551615EEERS4_
FN:985,_ZN3etl9make_spanINS_5arrayImLm16EEEEENS_4spanINT_10value_typeELm18446744073709551615EEERS4_
FN:985,_ZN3etl9make_spanINS_5arrayImLm64EEEEENS_4spanINT_10value_typeELm18446744073709551615EEERS4_
FN:985,_ZN3etl9make_spanINS_5arrayImLm96EEEEENS_4spanINT_10value_typeELm18446744073709551615EEERS4_
FN:985,_ZN3etl9make_spanINS_5arrayImLm32EEEEENS_4spanINT_10value_typeELm18446744073709551615EEERS4_
FN:985,_ZN3etl9make_spanINS_5arrayImLm48EEEEENS_4spanINT_10value_typeELm18446744073709551615EEERS4_
FN:1039,_ZN3etl5equalIhLm18446744073709551615EKhLm18446744073709551615EEENS_9enable_ifIXsrNS_7is_sameINS_9remove_cvIT_E4typeENS4_IT1_E4typeEEE5valueEbE4typeERKNS_4spanIS5_XT0_EEERKNSE_IS8_XT2_EEE
FN:1039,_ZN3etl5equalIKhLm18446744073709551615ES1_Lm18446744073709551615EEENS_9enable_ifIXsrNS_7is_sameINS_9remove_cvIT_E4typeENS4_IT1_E4typeEEE5valueEbE4typeERKNS_4spanIS5_XT0_EEERKNSE_IS8_XT2_EEE
FN:1039,_ZN3etl5equalIKhLm18446744073709551615EhLm18446744073709551615EEENS_9enable_ifIXsrNS_7is_sameINS_9remove_cvIT_E4typeENS4_IT1_E4typeEEE5valueEbE4typeERKNS_4spanIS5_XT0_EEERKNSE_IS8_XT2_EEE
FN:1059,_ZN3etl4copyIhLm18446744073709551615EhLm18446744073709551615EEENS_9enable_ifIXaasrNS_7is_sameINS_9remove_cvIT_E4typeENS3_IT1_E4typeEEE5valuentsrNS_8is_constIS7_EE5valueEbE4typeERKNS_4spanIS4_XT0_EEERKNSF_IS7_XT2_EEE
FN:1059,_ZN3etl4copyIKhLm18446744073709551615EhLm18446744073709551615EEENS_9enable_ifIXaasrNS_7is_sameINS_9remove_cvIT_E4typeENS4_IT1_E4typeEEE5valuentsrNS_8is_constIS8_EE5valueEbE4typeERKNS_4spanIS5_XT0_EEERKNSG_IS8_XT2_EEE
FN:1059,_ZN3etl4copyIKhLm3EhLm3EEENS_9enable_ifIXaasrNS_7is_sameINS_9remove_cvIT_E4typeENS4_IT1_E4typeEEE5valuentsrNS_8is_constIS8_EE5valueEbE4typeERKNS_4spanIS5_XT0_EEERKNSG_IS8_XT2_EEE
FNDA:1,_ZN3etl4spanIN9lifecycle16LifecycleManager13ComponentInfoELm18446744073709551615EEC2IRNS_5arrayIS3_Lm21EEEvEEOT_
FNDA:3,_ZN3etl4spanIKhLm18446744073709551615EEC2ILm9EEERAT__S1_
FNDA:1,_ZN3etl4spanImLm18446744073709551615EEC2IRNS_5arrayImLm96EEEvEEOT_
FNDA:1,_ZNK3etl4spanIKhLm3EE4sizeEv
FNDA:4,_ZN3etl4spanIKhLm18446744073709551615EEC1Ev
FNDA:2606,_ZNK3etl4spanIcLm18446744073709551615EE14reinterpret_asIhEENS0_IT_Lm18446744073709551615EEEv
FNDA:1036,_ZN3etl4spanIhLm18446744073709551615EEC2IPhhEET_T0_
FNDA:4,_ZNK3etl4spanIN5docan19DoCanTransportLayerINS1_18DoCanDataLinkLayerIjthLj0EtEEEELm18446744073709551615EEixEm
FNDA:0,_ZN3etl4spanIKhLm18446744073709551615EEC1ILm5EEERAT__S1_
FNDA:28,_ZN3etl4spanIhLm18446744073709551615EEC2ILm15EEERAT__h
FNDA:2,_ZN3etl4spanIKhLm18446744073709551615EEC1ILm1EEERAT__S1_
FNDA:24,_ZN3etl4spanIKhLm18446744073709551615EEC2ILm8EEERAT__S1_
FNDA:664,_ZN3etl4spanIKcLm18446744073709551615EEC2IPS1_mEET_T0_
FNDA:1,_ZNK3etl4spanIN12_GLOBAL__N_11BELm18446744073709551615EEixEm
FNDA:1,_ZN3etl4spanIN7runtime14RuntimeMonitorIN12_GLOBAL__N_121TestContextStatisticsENS3_22TestFunctionStatisticsEE12ContextEntryELm18446744073709551615EEC2ILm3EEERAT__S7_
FNDA:9,_ZN3etl4spanIKhLm18446744073709551615EEC2ILm1EEERAT__S1_
FNDA:1022,_ZN3etl4spanIKhLm18446744073709551615EEC2IPhhEET_T0_
FNDA:2,_ZNK3etl4spanIKhLm3EE5beginEv
FNDA:52,_ZNK3etl4spanImLm18446744073709551615EE4sizeEv
FNDA:3,_ZN3etl4spanIN12_GLOBAL__N_114TestStatisticsELm18446744073709551615EEC2ILm5EEERAT__S2_
FNDA:4,_ZN3etl4spanIhLm18446744073709551615EEC2ILm3EEERAT__h
FNDA:330,_ZN3etl4spanIcLm18446744073709551615EEC2ERKS1_
FNDA:5,_ZNK3etl4spanIKN12_GLOBAL__N_19TestEntryELm18446744073709551615EE4sizeEv
FNDA:0,_ZNK3etl4spanIN12_GLOBAL__N_114TestStatisticsELm18446744073709551615EE5beginEv
FNDA:36,_ZNK3etl4spanIPKN5docan15DoCanFrameCodecINS1_18DoCanDataLinkLayerIjthLj4294967295EtEEEELm18446744073709551615EEixEm
FNDA:0,_ZN3etl4spanIKhLm18446744073709551615EEC1IPS1_EET_S5_
FNDA:3,_ZN3etl4spanIKN12_GLOBAL__N_19TestEntryELm18446744073709551615EEC2IS2_Lm18446744073709551615EEERKNS0_IT_XT0_EEE
FNDA:1,_ZN3etl4spanIKhLm18446744073709551615EEC2ILm8189EEERAT__S1_
FNDA:1,_ZN3etl4spanIhLm18446744073709551615EEC1ILm12EEERAT__h
FNDA:2,_ZN3etl4spanIPN2io7IWriterELm8EEC2IRNS_5arrayIS3_Lm8EEEvEEOT_
FNDA:17,_ZN3etl4spanIKhLm18446744073709551615EEC1ILm2EEERAT__S1_
FNDA:29,_ZNK3etl4spanIKPN7storage8IStorageELm18446744073709551615EE4sizeEv
FNDA:10997,_ZNK3etl4spanIhLm18446744073709551615EE3endEv
FNDA:3,_ZN3etl4spanIPKcLm18446744073709551615EEC2ILm5EEERAT__S2_
FNDA:17,_ZN3etl4spanIKhLm18446744073709551615EEC1ILm7EEERAT__S1_
FNDA:6,_ZN3etl4spanIN5docan27DoCanPhysicalCanTransceiverINS1_21DoCanNormalAddressingIthtEEEELm18446744073709551615EEC2IRNS_7ivectorIS5_EEvEEOT_
FNDA:1,_ZN3etl4spanIN12_GLOBAL__N_114TestStatisticsELm18446744073709551615EEC2IRNS_5arrayIS2_Lm4EEEvEEOT_
FNDA:11,_ZN3etl4spanIhLm18446744073709551615EEC2IhLm10EEERKNS0_IT_XT0_EEE
FNDA:80,_ZN3etl4spanIKhLm18446744073709551615EEC2IPS1_tEET_T0_
FNDA:1,_ZN3etl4spanIKN5docan39DoCanNormalAddressingFilterAddressEntryINS1_18DoCanDataLinkLayerIjthLj4294967295EtEEEELm18446744073709551615EEC2ILm1EEERAT__S6_
FNDA:331,_ZNK3etl4spanIPN2io7IWriterELm8EEixEm
FNDA:5,_ZN3etl4spanIhLm18446744073709551615EEC2ILm64EEERAT__h
FNDA:658,_ZNK3etl4spanIcLm18446744073709551615EE4dataEv
FNDA:4,_ZNK3etl4spanIhLm18446744073709551615EE14reinterpret_asIN12_GLOBAL__N_11CEEENS0_IT_Lm18446744073709551615EEEv
FNDA:5,_ZN3etl4spanIKhLm18446744073709551615EEC1ILm21EEERAT__S1_
FNDA:7346,_ZN3etl4spanIhLm18446744073709551615EEC2IPhEET_S4_
FNDA:5325,_ZNK3etl4spanIKhLm18446744073709551615EEixEm
FNDA:4,_ZN3etl4spanIhLm18446744073709551615EEC1ILm9EEERAT__h
FNDA:14,_ZN3etl4spanIcLm18446744073709551615EEC2ILm10EEERAT__c
FNDA:19,_ZN3etl4spanImLm18446744073709551615EEC2IPmmEET_T0_
FNDA:0,_ZN3etl24span_alignment_exceptionC2EPKci
FNDA:1,_ZN3etl4spanIKhLm18446744073709551615EEC2IS1_Lm4EEERKNS0_IT_XT0_EEE
FNDA:7,_ZN3etl4spanIhLm18446744073709551615EEC1ILm21EEERAT__h
FNDA:2,_ZN3etl4spanIKhLm16EEC2IPS1_hEET_T0_
FNDA:34,_ZN3etl4spanIKhLm18446744073709551615EEC2IPhjEET_T0_
FNDA:25,_ZNK3etl4spanIN12_GLOBAL__N_114TestStatisticsELm18446744073709551615EEixEm
FNDA:3,_ZNK3etl4spanIhLm18446744073709551615EE14reinterpret_asIN12_GLOBAL__N_11AEEENS0_IT_Lm18446744073709551615EEEv
FNDA:4,_ZN3etl4spanIN12_GLOBAL__N_11CELm18446744073709551615EEC2IPS2_mEET_T0_
FNDA:16,_ZNK3etl4spanIKN5docan39DoCanNormalAddressingFilterAddressEntryINS1_18DoCanDataLinkLayerIjthLj4294967295EtEEEELm18446744073709551615EE4sizeEv
FNDA:8,_ZN3etl4spanImLm18446744073709551615EEC2ILm100EEERAT__m
FNDA:39,_ZNK3etl4spanIN9lifecycle16LifecycleManager13ComponentInfoELm18446744073709551615EE4sizeEv
FNDA:4580,_ZNK3etl4spanIcLm18446744073709551615EE4sizeEv
FNDA:1,_ZN3etl4spanIKhLm3EEC2IS1_Lm18446744073709551615EEERKNS0_IT_XT0_EEEPNS_9enable_ifIXeqT0_L_ZNS_L14dynamic_extentEEEvE4typeE
FNDA:2,_ZN3etl4spanIKhLm18446744073709551615EEC2ILm4951EEERAT__S1_
FNDA:1,_ZN3etl4spanIcLm18446744073709551615EEC2ILm200EEERAT__c
FNDA:4683,_ZN3etl4copyIKhLm18446744073709551615EhLm18446744073709551615EEENS_9enable_ifIXaasrNS_7is_sameINS_9remove_cvIT_E4typeENS4_IT1_E4typeEEE5valuentsrNS_8is_constIS8_EE5valueEbE4typeERKNS_4spanIS5_XT0_EEERKNSG_IS8_XT2_EEE
FNDA:1,_ZN3etl4spanIhLm18446744073709551615EEC2IRNS_5arrayIhLm2EEEvEEOT_
FNDA:3,_ZNK3etl4spanIN5docan27DoCanPhysicalCanTransceiverINS1_21DoCanNormalAddressingIthtEEEELm18446744073709551615EEixEm
FNDA:3,_ZNK3etl4spanIN5docan27DoCanPhysicalCanTransceiverINS1_21DoCanNormalAddressingIthtEEEELm18446744073709551615EE4sizeEv
FNDA:26,_ZNK3etl4spanIhLm10EE4dataEv
FNDA:2,_ZNK3etl4spanIKPKcLm3EE4dataEv
FNDA:1,_ZN3etl9make_spanINS_5arrayImLm96EEEEENS_4spanINT_10value_typeELm18446744073709551615EEERS4_
FNDA:41,_ZN3etl4spanIKhLm18446744073709551615EEC2ILm4EEERAT__S1_
FNDA:2,_ZN3etl4spanIKN7runtime17RuntimeStatisticsELm18446744073709551615EEC1ERKS4_
FNDA:1,_ZN3etl4spanIcLm18446744073709551615EEC2ILm48EEERAT__c
FNDA:3,_ZN3etl4copyIhLm18446744073709551615EhLm18446744073709551615EEENS_9enable_ifIXaasrNS_7is_sameINS_9remove_cvIT_E4typeENS3_IT1_E4typeEEE5valuentsrNS_8is_constIS7_EE5valueEbE4typeERKNS_4spanIS4_XT0_EEERKNSF_IS7_XT2_EEE
FNDA:259,_ZNK3etl4spanIPN2io7IReaderELm8EEixEm
FNDA:1856,_ZN3etl4spanIhLm18446744073709551615EEC2Ev
FNDA:11827,_ZNK3etl4spanIKhLm18446744073709551615EE4sizeEv
FNDA:886,_ZN3etl4spanIKhLm18446744073709551615EEC2IhLm18446744073709551615EEERKNS0_IT_XT0_EEE
FNDA:2,_ZN3etl4spanIhLm18446744073709551615EEC2ILm31EEERAT__h
FNDA:69,_ZNK3etl4spanIKhLm18446744073709551615EE7subspanEmm
FNDA:12,_ZN3etl4spanIcLm18446744073709551615EEC2ILm100EEERAT__c
FNDA:46,_ZN3etl4spanIPN7storage10StorageJobELm18446744073709551615EEC2ERKS4_
FNDA:5,_ZN3etl4spanImLm18446744073709551615EEC2IRNS_5arrayImLm64EEEvEEOT_
FNDA:1,_ZN3etl4spanIKhLm18446744073709551615EEC1ILm6699EEERAT__S1_
FNDA:5,_ZN3etl9make_spanINS_5arrayImLm64EEEEENS_4spanINT_10value_typeELm18446744073709551615EEERS4_
FNDA:0,_ZN3etl4spanIhLm18446744073709551615EEC1IPhmEET_T0_
FNDA:0,_ZN3etl4spanIKhLm18446744073709551615EEC1IPS1_mEET_T0_
FNDA:43,_ZN3etl4spanIKhLm18446744073709551615EEC1ILm3EEERAT__S1_
FNDA:0,_ZN3etl4spanIKhLm18446744073709551615EEC2IRNS_5arrayIhLm4EEEvEEOT_
FNDA:1,_ZN3etl4spanIN12_GLOBAL__N_19TestEntryELm18446744073709551615EEC2ILm5EEERAT__S2_
FNDA:2,_ZNK3etl4spanIN7runtime14RuntimeMonitorIN12_GLOBAL__N_121TestContextStatisticsENS3_22TestFunctionStatisticsEE12ContextEntryELm18446744073709551615EE4sizeEv
FNDA:4748,_ZNK3etl4spanIKhLm18446744073709551615EE5emptyEv
FNDA:1,_ZNK3etl4spanIKPKcLm3EE4sizeEv
FNDA:129,_ZNK3etl4spanIKN5docan39DoCanNormalAddressingFilterAddressEntryINS1_18DoCanDataLinkLayerIjthLj4294967295EtEEEELm18446744073709551615EE5beginEv
FNDA:1,_ZN3etl4spanIN7runtime14RuntimeMonitorIN12_GLOBAL__N_121TestContextStatisticsENS3_22TestFunctionStatisticsEE12ContextEntryELm18446744073709551615EEC2IRNS_5arrayIS7_Lm3EEEvEEOT_
FNDA:1,_ZN3etl4spanIKPKcLm18446744073709551615EEC2ILm4EEERAT__S3_
FNDA:2486,_ZNK3etl4spanIhLm18446744073709551615EE4dataEv
FNDA:11,_ZNK3etl4spanIKhLm18446744073709551615EE5firstEm
FNDA:1,_ZN3etl4spanIKN7runtime17RuntimeStatisticsELm18446744073709551615EEC2ILm4EEERAT__S3_
FNDA:1809,_ZN3etl4spanIhLm18446744073709551615EEaSERKS1_
FNDA:26,_ZN3etl4spanIKhLm18446744073709551615EEC2ILm6EEERAT__S1_
FNDA:86,_ZN3etl4spanIKhLm18446744073709551615EEaSERKS2_
FNDA:4,_ZN3etl4spanIcLm18446744073709551615EEC2IPcmEET_T0_
FNDA:10781,_ZNK3etl4spanIhLm18446744073709551615EE5beginEv
FNDA:265,_ZN3etl4spanIhLm18446744073709551615EEC2ERKS1_
FNDA:36,_ZNK3etl4spanIKN9transport14LogicalAddressELm18446744073709551615EE3endEv
FNDA:2,_ZN3etl4spanIhLm18446744073709551615EEC2IRNS_5arrayIhLm16384EEEvEEOT_
FNDA:34,_ZN3etl4spanIKN5docan39DoCanNormalAddressingFilterAddressEntryINS1_18DoCanDataLinkLayerIjthLj4294967295EtEEEELm18446744073709551615EEC2Ev
FNDA:15,_ZNK3etl4spanIN12_GLOBAL__N_19TestEntryELm18446744073709551615EEixEm
FNDA:1,_ZNK3etl4spanIhLm18446744073709551615EE14reinterpret_asIN12_GLOBAL__N_11BEEENS0_IT_Lm18446744073709551615EEEv
FNDA:28,_ZNK3etl4spanIPN2io7IWriterELm7EEixEm
FNDA:1,_ZN3etl4spanIcLm18446744073709551615EEC2ILm7EEERAT__c
FNDA:1,_ZNK3etl4spanIKhLm3EE5emptyEv
FNDA:1,_ZN3etl4spanIKN12_GLOBAL__N_19TestEntryELm18446744073709551615EEC2ERKS4_
FNDA:1,_ZN3etl4spanIhLm18446744073709551615EEC1ILm3EEERAT__h
FNDA:15,_ZNK3etl4spanIKhLm18446744073709551615EE6cbeginEv
FNDA:80,_ZN3etl4spanIKhLm18446744073709551615EEC2IPS1_EET_S5_
FNDA:162,_ZNK3etl4spanIN9lifecycle16LifecycleManager13ComponentInfoELm18446744073709551615EEixEm
FNDA:2,_ZN3etl4spanIKPKcLm18446744073709551615EEC2ILm5EEERAT__S3_
FNDA:12,_ZN3etl4spanIKN12_GLOBAL__N_114TestStatisticsELm18446744073709551615EEC2IS2_Lm18446744073709551615EEERKNS0_IT_XT0_EEE
FNDA:4,_ZN3etl4spanIcLm18446744073709551615EEC2Ev
FNDA:18,_ZN3etl4spanIKhLm18446744073709551615EEC2IPS1_jEET_T0_
FNDA:262,_ZN3etl4spanIcLm18446744073709551615EEC2ILm300EEERAT__c
FNDA:16,_ZNK3etl4spanIKhLm16EEixEm
FNDA:8,_ZN3etl4spanIKhLm18446744073709551615EEC2ILm16EEERAT__S1_
FNDA:7,_ZN3etl4spanIN5docan19DoCanTransportLayerINS1_18DoCanDataLinkLayerIjthLj0EtEEEELm18446744073709551615EEC2IRNS_7ivectorIS5_EEvEEOT_
FNDA:1,_ZN3etl9make_spanINS_5arrayImLm1EEEEENS_4spanINT_10value_typeELm18446744073709551615EEERS4_
FNDA:3,_ZN3etl4spanIKPKcLm18446744073709551615EEC2ERKS4_
FNDA:4,_ZNK3etl4spanIhLm18446744073709551615EE5emptyEv
FNDA:666,_ZN3etl4spanIKhLm18446744073709551615EEC2ERKS2_
FNDA:0,_ZN3etl4spanIKN9transport14LogicalAddressELm18446744073709551615EEC1IRKSt5arrayIS2_Lm2EEvEEOT_
FNDA:23438,_ZNK3etl4spanIKhLm18446744073709551615EE3endEv
FNDA:3,_ZN3etl9make_spanINS_5arrayImLm49EEEEENS_4spanINT_10value_typeELm18446744073709551615EEERS4_
FNDA:8,_ZNK3etl4spanIKN12_GLOBAL__N_19TestEntryELm18446744073709551615EEixEm
FNDA:1,_ZN3etl4spanIcLm18446744073709551615EEC2ILm22EEERAT__c
FNDA:2865,_ZN3etl4spanIKhLm18446744073709551615EEC2IPS1_mEET_T0_
FNDA:14,_ZN3etl4spanIhLm10EEC2ILm10EvEERAT__h
FNDA:3,_ZN3etl4spanIKhLm18446744073709551615EEC2ILm17EEERAT__S1_
FNDA:1,_ZN3etl4spanIhLm18446744073709551615EEC1ILm4999EEERAT__h
FNDA:2,_ZNK3etl4spanIhLm3EE5beginEv
FNDA:9,_ZN3etl4spanIKhLm18446744073709551615EEC2ILm2EEERAT__S1_
FNDA:4,_ZN3etl4spanIhLm18446744073709551615EEC2IRNS_5arrayIhLm5EEEvEEOT_
FNDA:2,_ZN3etl4spanIKhLm18446744073709551615EEC2ILm20EEERAT__S1_
FNDA:0,_ZN3etl4spanIhLm18446744073709551615EEC2ILm21EEERAT__h
FNDA:15,_ZNK3etl4spanIKN12_GLOBAL__N_114TestStatisticsELm18446744073709551615EE4sizeEv
FNDA:0,_ZN3etl18span_size_mismatchC2EPKci
FNDA:664,_ZNK3etl4spanIKcLm18446744073709551615EE14reinterpret_asIKhEENS0_IT_Lm18446744073709551615EEEv
FNDA:26170,_ZNK3etl4spanIhLm18446744073709551615EE4sizeEv
FNDA:2,_ZN3etl4spanIhLm18446744073709551615EEC1ILm1EEERAT__h
FNDA:1,_ZN3etl4spanIN12_GLOBAL__N_114TestStatisticsELm18446744073709551615EEC2ILm6EEERAT__S2_
FNDA:1,_ZNK3etl4spanIKN7runtime17RuntimeStatisticsELm18446744073709551615EE4sizeEv
FNDA:44,_ZN3etl4spanIKhLm18446744073709551615EEC2IPhtEET_T0_
FNDA:2,_ZN3etl4spanIKhLm18446744073709551615EEC2IRNS_5arrayIhLm16384EEEvEEOT_
FNDA:1,_ZN3etl9make_spanINS_5arrayImLm16EEEEENS_4spanINT_10value_typeELm18446744073709551615EEERS4_
FNDA:1,_ZN3etl4spanIN12_GLOBAL__N_114TestStatisticsELm18446744073709551615EEC2IRNS_5arrayIS2_Lm5EEEvEEOT_
FNDA:11,_ZNK3etl4spanIhLm10EE4sizeEv
FNDA:1,_ZNK3etl4spanIhLm3EE4sizeEv
FNDA:3,_ZN3etl4spanIKhLm18446744073709551615EEC2ILm13EEERAT__S1_
FNDA:1,_ZN3etl4spanIN7runtime14RuntimeMonitorIN12_GLOBAL__N_121TestContextStatisticsENS3_22TestFunctionStatisticsEE12ContextEntryELm18446744073709551615EEC2IRNS_5arrayIS7_Lm2EEEvEEOT_
FNDA:18,_ZNK3etl4spanIKN9transport14LogicalAddressELm18446744073709551615EE5beginEv
FNDA:1,_ZN3etl4spanIhLm18446744073709551615EEC2ILm20EEERAT__h
FNDA:5,_ZN3etl4spanIhLm18446744073709551615EEC2ILm2EEERAT__h
FNDA:751,_ZN3etl4spanIKhLm18446744073709551615EE7advanceEm
FNDA:7,_ZN3etl4spanIhLm18446744073709551615EEC2ILm10EEERAT__h
FNDA:1,_ZN3etl4spanIPKN5docan15DoCanFrameCodecINS1_18DoCanDataLinkLayerIjthLj4294967295EtEEEELm18446744073709551615EEC2ILm1EEERAT__S7_
FNDA:3,_ZN3etl4spanIhLm18446744073709551615EEC2ILm300EEERAT__h
FNDA:47,_ZNK3etl4spanIPKcLm18446744073709551615EEixEm
FNDA:799,_ZN3etl4spanIhLm18446744073709551615EEC2IPhjEET_T0_
FNDA:3,_ZNK3etl4spanIN5docan19DoCanTransportLayerINS1_18DoCanDataLinkLayerIjthLj0EtEEEELm18446744073709551615EE4sizeEv
FNDA:1,_ZN3etl4spanImLm18446744073709551615EEC2IRNS_5arrayImLm16EEEvEEOT_
FNDA:16,_ZN3etl4spanIPKN5docan15DoCanFrameCodecINS1_18DoCanDataLinkLayerIjthLj4294967295EtEEEELm18446744073709551615EEC2Ev
FNDA:2,_ZN3etl4spanIKhLm18446744073709551615EEC2ILm64EEERAT__S1_
FNDA:12,_ZN3etl4spanIPN2io7IWriterELm8EEC2ERKS4_
FNDA:2,_ZN3etl4spanIKN5docan39DoCanNormalAddressingFilterAddressEntryINS1_18DoCanDataLinkLayerIjthLj4294967295EtEEEELm18446744073709551615EEC2ILm3EEERAT__S6_
FNDA:1259,_ZNK3etl4spanIcLm18446744073709551615EEixEm
FNDA:1,_ZN3etl4spanIKhLm18446744073709551615EEC1ILm4321EEERAT__S1_
FNDA:1,_ZN3etl4spanImLm18446744073709551615EEC2IRNS_5arrayImLm48EEEvEEOT_
FNDA:6,_ZN3etl4spanIKN5docan39DoCanNormalAddressingFilterAddressEntryINS1_18DoCanDataLinkLayerIjthLj4294967295EtEEEELm18446744073709551615EEC2ILm8EEERAT__S6_
FNDA:1,_ZN3etl4spanIN12_GLOBAL__N_11BELm18446744073709551615EEC2IPS2_mEET_T0_
FNDA:23,_ZN3etl4spanIKhLm18446744073709551615EEC2IPS1_iEET_T0_
FNDA:2,_ZN3etl4spanIKhLm4EEC2IPS1_hEET_T0_
FNDA:28,_ZNK3etl4spanIKPN7storage8IStorageELm18446744073709551615EEixEm
FNDA:6,_ZN3etl4spanIhLm18446744073709551615EEC2ILm16EEERAT__h
FNDA:8218,_ZNK3etl4spanIKhLm18446744073709551615EE5beginEv
FNDA:1,_ZN3etl4spanIKhLm18446744073709551615EEC2IS1_Lm16EEERKNS0_IT_XT0_EEE
FNDA:3,_ZNK3etl4spanIKN7runtime17RuntimeStatisticsELm18446744073709551615EEixEm
FNDA:0,_ZN3etl4spanIKhLm18446744073709551615EEC1ILm8EEERAT__S1_
FNDA:7,_ZN3etl9make_spanINS_5arrayImLm32EEEEENS_4spanINT_10value_typeELm18446744073709551615EEERS4_
FNDA:2,_ZNK3etl4spanIKhLm16EE4dataEv
FNDA:0,_ZN3etl4spanIKhLm18446744073709551615EEC2ILm7EEERAT__S1_
FNDA:44,_ZN3etl5equalIKhLm18446744073709551615ES1_Lm18446744073709551615EEENS_9enable_ifIXsrNS_7is_sameINS_9remove_cvIT_E4typeENS4_IT1_E4typeEEE5valueEbE4typeERKNS_4spanIS5_XT0_EEERKNSE_IS8_XT2_EEE
FNDA:7,_ZN3etl4spanImLm18446744073709551615EEC2IRNS_5arrayImLm32EEEvEEOT_
FNDA:6,_ZN3etl4spanIPN2io7IReaderELm8EEC2ERKS4_
FNDA:19,_ZNK3etl4spanIhLm18446744073709551615EE14reinterpret_asImEENS0_IT_Lm18446744073709551615EEEv
FNDA:1962,_ZNK3etl4spanIcLm18446744073709551615EE7subspanEmm
FNDA:21,_ZN3etl5equalIKhLm18446744073709551615EhLm18446744073709551615EEENS_9enable_ifIXsrNS_7is_sameINS_9remove_cvIT_E4typeENS4_IT1_E4typeEEE5valueEbE4typeERKNS_4spanIS5_XT0_EEERKNSE_IS8_XT2_EEE
FNDA:16,_ZN3etl4spanIKhLm18446744073709551615EEC2IRNS_5arrayIhLm3EEEvEEOT_
FNDA:1,_ZN3etl4spanIN7runtime14RuntimeMonitorIN12_GLOBAL__N_121TestContextStatisticsENS3_22TestFunctionStatisticsEE12ContextEntryELm18446744073709551615EEC2ILm2EEERAT__S7_
FNDA:0,_ZN3etl4spanIhLm18446744073709551615EEC1IPhEET_S4_
FNDA:4,_ZN3etl4spanIN7runtime14RuntimeMonitorIN12_GLOBAL__N_121TestContextStatisticsENS3_22TestFunctionStatisticsEE12ContextEntryELm18446744073709551615EEC2ERKS8_
FNDA:13,_ZNK3etl4spanIKPKcLm18446744073709551615EEixEm
FNDA:6,_ZNK3etl4spanIN12_GLOBAL__N_19TestEntryELm18446744073709551615EE4dataEv
FNDA:10,_ZN3etl4spanImLm18446744073709551615EEaSERKS1_
FNDA:4,_ZN3etl4spanIcLm18446744073709551615EEC2ILm1EEERAT__c
FNDA:1805,_ZN3etl4spanIKhLm18446744073709551615EEC1IPS1_tEET_T0_
FNDA:2,_ZN3etl4spanIhLm18446744073709551615EEC2ILm4EEERAT__h
FNDA:6,_ZN3etl4spanIPN2io7IReaderELm8EEC2ILm8EvEERAT__S3_
FNDA:3958,_ZN3etl4spanIhLm18446744073709551615EE7advanceEm
FNDA:19,_ZNK3etl4spanImLm18446744073709551615EE14reinterpret_asIhEENS0_IT_Lm18446744073709551615EEEv
FNDA:1,_ZN3etl4spanIKhLm18446744073709551615EEC1ILm4369EEERAT__S1_
FNDA:3,_ZNK3etl4spanIN12_GLOBAL__N_11AELm18446744073709551615EEixEm
FNDA:3,_ZN3etl4spanIcLm18446744073709551615EEC2ILm60EEERAT__c
FNDA:14,_ZN3etl4spanIKN5docan39DoCanNormalAddressingFilterAddressEntryINS1_18DoCanDataLinkLayerIjthLj4294967295EtEEEELm18446744073709551615EEC2ERKS7_
FNDA:3,_ZN3etl4spanIN9lifecycle16LifecycleManager13ComponentInfoELm18446744073709551615EEC2IRNS_5arrayIS3_Lm3EEEvEEOT_
FNDA:2,_ZN3etl4spanIPN2io7IWriterELm7EEC2ERKS4_
FNDA:0,_ZN3etl4spanIKN9transport14LogicalAddressELm18446744073709551615EEC1IRKSt5arrayIS2_Lm3EEvEEOT_
FNDA:4,_ZN3etl4spanIKN12_GLOBAL__N_114TestStatisticsELm18446744073709551615EEC2ERKS4_
FNDA:1,_ZN3etl9make_spanINS_5arrayImLm48EEEEENS_4spanINT_10value_typeELm18446744073709551615EEERS4_
FNDA:1,_ZN3etl4spanIhLm18446744073709551615EEC2ILm4096EEERAT__h
FNDA:12,_ZN3etl4spanIcLm18446744073709551615EEC2ILm20EEERAT__c
FNDA:10,_ZN3etl4spanIhLm18446744073709551615EEC2ILm1EEERAT__h
FNDA:9,_ZN3etl4spanIcLm18446744073709551615EEC2ILm40EEERAT__c
FNDA:5,_ZN3etl4spanIhLm18446744073709551615EEC2ILm128EEERAT__h
FNDA:90,_ZN3etl4spanIhLm18446744073709551615EEC2IPhtEET_T0_
FNDA:1,_ZN3etl4spanIhLm18446744073709551615EEC2ILm8191EEERAT__h
FNDA:38,_ZNK3etl4spanImLm18446744073709551615EE4dataEv
FNDA:91,_ZNK3etl4spanIPN7storage10StorageJobELm18446744073709551615EE4sizeEv
FNDA:11,_ZN3etl4spanIN12_GLOBAL__N_114TestStatisticsELm18446744073709551615EEC2ERKS3_
FNDA:15,_ZN3etl4spanIPKN5docan15DoCanFrameCodecINS1_18DoCanDataLinkLayerIjthLj4294967295EtEEEELm18446744073709551615EEC2ILm4EEERAT__S7_
FNDA:1,_ZN3etl4spanIPN2io7IWriterELm1EEC2ERKS4_
FNDA:14,_ZNK3etl4spanIcLm18446744073709551615EE5firstEm
FNDA:63,_ZN3etl4spanIhLm18446744073709551615EEC1ERKS1_
FNDA:1,_ZN3etl4spanIKN12_GLOBAL__N_114TestStatisticsELm18446744073709551615EEC2ILm5EEERAT__S3_
FNDA:1,_ZN3etl4spanIKPKcLm18446744073709551615EEC2IS3_Lm3EEERKNS0_IT_XT0_EEE
FNDA:1,_ZN3etl4spanIhLm3EEC2IhLm18446744073709551615EEERKNS0_IT_XT0_EEEPNS_9enable_ifIXeqT0_L_ZNS_L14dynamic_extentEEEvE4typeE
FNDA:1,_ZN3etl4copyIKhLm3EhLm3EEENS_9enable_ifIXaasrNS_7is_sameINS_9remove_cvIT_E4typeENS4_IT1_E4typeEEE5valuentsrNS_8is_constIS8_EE5valueEbE4typeERKNS_4spanIS5_XT0_EEERKNSG_IS8_XT2_EEE
FNDA:5,_ZN3etl4spanIhLm18446744073709551615EEC2ILm511EEERAT__h
FNDA:4,_ZN3etl4spanIhLm18446744073709551615EEC2IRNS_5arrayIhLm3EEEvEEOT_
FNDA:6,_ZN3etl4spanIhLm18446744073709551615EEC2ILm5EEERAT__h
FNDA:0,_ZNK3etl4spanIcLm18446744073709551615EE5beginEv
FNDA:1,_ZN3etl4spanIhLm18446744073709551615EEC1ILm4EEERAT__h
FNDA:1,_ZN3etl4spanIPN2io7IWriterELm1EEC2IRNS_5arrayIS3_Lm1EEEvEEOT_
FNDA:1,_ZN3etl5equalIhLm18446744073709551615EKhLm18446744073709551615EEENS_9enable_ifIXsrNS_7is_sameINS_9remove_cvIT_E4typeENS4_IT1_E4typeEEE5valueEbE4typeERKNS_4spanIS5_XT0_EEERKNSE_IS8_XT2_EEE
FNDA:0,_ZN3etl14span_exceptionC2EPKcS2_i
FNDA:1,_ZN3etl4spanIcLm18446744073709551615EEC2ILm16EEERAT__c
FNDA:5,_ZN3etl4spanIhLm18446744073709551615EEC2IRNS_5arrayIhLm4EEEvEEOT_
FNDA:1,_ZNK3etl4spanIKhLm3EE3endEv
FNDA:46,_ZN3etl4spanIPN7storage10StorageJobELm18446744073709551615EEC2IRNS_5arrayIS3_Lm2EEEvEEOT_
FNDA:37,_ZN3etl4spanIKhLm18446744073709551615EEC2ILm5EEERAT__S1_
FNDA:10,_ZN3etl4spanIKhLm18446744073709551615EEC2IPhiEET_T0_
FNDA:2,_ZNK3etl4spanIKhLm16EE4sizeEv
FNDA:13,_ZN3etl4spanIKhLm18446744073709551615EEC2ILm14EEERAT__S1_
FNDA:15,_ZN3etl4spanIcLm18446744073709551615EEC2ILm80EEERAT__c
FNDA:14,_ZN3etl4spanIPKN5docan15DoCanFrameCodecINS1_18DoCanDataLinkLayerIjthLj4294967295EtEEEELm18446744073709551615EEC2ERKS8_
FNDA:3,_ZN3etl4spanIN9lifecycle16LifecycleManager13ComponentInfoELm18446744073709551615EEC2IRNS_5arrayIS3_Lm4EEEvEEOT_
FNDA:176,_ZNK3etl4spanIPN7storage10StorageJobELm18446744073709551615EEixEm
FNDA:193,_ZNK3etl4spanIKN5docan39DoCanNormalAddressingFilterAddressEntryINS1_18DoCanDataLinkLayerIjthLj4294967295EtEEEELm18446744073709551615EE3endEv
FNDA:0,_ZN3etl4spanIKhLm18446744073709551615EEC1ILm14EEERAT__S1_
FNDA:14,_ZN3etl4spanIPKN5docan15DoCanFrameCodecINS1_18DoCanDataLinkLayerIjthLj4294967295EtEEEELm18446744073709551615EEaSERKS8_
FNDA:3,_ZNK3etl4spanIN12_GLOBAL__N_19TestEntryELm18446744073709551615EE4sizeEv
FNDA:26,_ZNK3etl4spanIN12_GLOBAL__N_114TestStatisticsELm18446744073709551615EE4dataEv
FNDA:4677,_ZNK3etl4spanIhLm18446744073709551615EE5firstEm
FNDA:1976,_ZN3etl4spanIcLm18446744073709551615EEC2IPcEET_S4_
FNDA:5290,_ZNK3etl4spanIhLm18446744073709551615EEixEm
FNDA:18,_ZN3etl4spanIKhLm18446744073709551615EEC2ILm15EEERAT__S1_
FNDA:19,_ZNK3etl4spanIKN12_GLOBAL__N_114TestStatisticsELm18446744073709551615EEixEm
FNDA:1,_ZN3etl4spanIN12_GLOBAL__N_19TestEntryELm18446744073709551615EEC2ERKS3_
FNDA:40,_ZN3etl4spanIKN9transport14LogicalAddressELm18446744073709551615EEC2IRKSt5arrayIS2_Lm2EEvEEOT_
FNDA:0,_ZNK3etl4spanIcLm18446744073709551615EE3endEv
FNDA:2,_ZNK3etl4spanIKhLm4EE4dataEv
FNDA:13,_ZN3etl4spanIKN5docan39DoCanNormalAddressingFilterAddressEntryINS1_18DoCanDataLinkLayerIjthLj4294967295EtEEEELm18446744073709551615EEC2IPS6_mEET_T0_
FNDA:0,_ZNK3etl4spanIN12_GLOBAL__N_114TestStatisticsELm18446744073709551615EE3endEv
FNDA:26,_ZN3etl4spanIcLm18446744073709551615EEC2ILm32EEERAT__c
FNDA:27,_ZN3etl4spanIKN5docan39DoCanNormalAddressingFilterAddressEntryINS1_18DoCanDataLinkLayerIjthLj4294967295EtEEEELm18446744073709551615EEaSERKS7_
FNDA:1,_ZN3etl4spanIN12_GLOBAL__N_114TestStatisticsELm18446744073709551615EEC2ILm4EEERAT__S2_
FNDA:5,_ZN3etl4spanIKN5docan39DoCanNormalAddressingFilterAddressEntryINS1_18DoCanDataLinkLayerIjthLj4294967295EtEEEELm18446744073709551615EEC2ILm2EEERAT__S6_
FNDA:30,_ZN3etl4spanIKhLm18446744073709551615EEC2ILm3EEERAT__S1_
FNDA:4,_ZN3etl4spanIPKcLm18446744073709551615EEC2ERKS3_
FNDA:1,_ZN3etl4spanImLm18446744073709551615EEC2IRNS_5arrayImLm1EEEvEEOT_
FNDA:7,_ZN3etl4spanIN9lifecycle16LifecycleManager13ComponentInfoELm18446744073709551615EEC2ERKS4_
FNDA:18,_ZN3etl4spanImLm18446744073709551615EEC2ERKS1_
FNDA:3,_ZN3etl4spanImLm18446744073709551615EEC2IRNS_5arrayImLm49EEEvEEOT_
FNDA:1,_ZN3etl4spanIKPKcLm3EEC2ILm3EvEERAT__S3_
FNDA:4,_ZNK3etl4spanIKhLm4EEixEm
FNDA:1,_ZN3etl4spanIKhLm18446744073709551615EEC1ILm18EEERAT__S1_
FNDA:2,_ZNK3etl4spanIN7runtime14RuntimeMonitorIN12_GLOBAL__N_121TestContextStatisticsENS3_22TestFunctionStatisticsEE12ContextEntryELm18446744073709551615EE3endEv
FNDA:0,_ZN3etl4spanIKhLm18446744073709551615EEC2IRNS_5arrayIhLm2EEEvEEOT_
FNDA:23,_ZN3etl4spanIKPN7storage8IStorageELm18446744073709551615EEC2ERKS5_
FNDA:9,_ZNK3etl4spanIN7runtime14RuntimeMonitorIN12_GLOBAL__N_121TestContextStatisticsENS3_22TestFunctionStatisticsEE12ContextEntryELm18446744073709551615EEixEm
FNDA:2669,_ZNK3etl4spanIhLm18446744073709551615EE7subspanEmm
FNDA:1,_ZN3etl4spanIN12_GLOBAL__N_114TestStatisticsELm18446744073709551615EEC2IRNS_5arrayIS2_Lm3EEEvEEOT_
FNDA:4152,_ZN3etl4spanIhLm18446744073709551615EEC2IPhmEET_T0_
FNDA:1,_ZN3etl4spanIhLm18446744073709551615EEC2ILm6EEERAT__h
FNDA:2,_ZN3etl4spanIhLm18446744073709551615EEC2ILm7EEERAT__h
FNDA:2,_ZNK3etl4spanIKhLm4EE4sizeEv
FNDA:21,_ZNK3etl4spanIN12_GLOBAL__N_114TestStatisticsELm18446744073709551615EE4sizeEv
FNDA:3,_ZN3etl4spanIN12_GLOBAL__N_11AELm18446744073709551615EEC2IPS2_mEET_T0_
FNDA:23,_ZN3etl4spanIhLm18446744073709551615EEC2IRNS_5arrayIhLm8EEEvEEOT_
FNDA:0,_ZN3etl4spanIKhLm18446744073709551615EEC1ILm15EEERAT__S1_
FNDA:40,_ZN3etl4spanIKN9transport14LogicalAddressELm18446744073709551615EEC2IRKSt5arrayIS2_Lm3EEvEEOT_
FNDA:34,_ZN3etl4spanIhLm18446744073709551615EEC2IKS1_vEEOT_
FNDA:2,_ZNK3etl4spanIN7runtime14RuntimeMonitorIN12_GLOBAL__N_121TestContextStatisticsENS3_22TestFunctionStatisticsEE12ContextEntryELm18446744073709551615EE5beginEv
FNDA:1,_ZN3etl4spanIKhLm18446744073709551615EEC1ILm65536EEERAT__S1_
FNDA:742,_ZN3etl4spanIhLm18446744073709551615EEC1ILm10EEERAT__h
FNDA:1,_ZN3etl4spanIhLm18446744073709551615EEC2ILm9EEERAT__h
FNDA:1,_ZN3etl4spanIPKcLm18446744073709551615EEC2ILm4EEERAT__S2_
FNDA:10,_ZN3etl4spanIPN2io7IWriterELm8EEC2ILm8EvEERAT__S3_
FNDA:4,_ZNK3etl4spanIN12_GLOBAL__N_11CELm18446744073709551615EEixEm
FNDA:38,_ZNK3etl4spanIPKN5docan15DoCanFrameCodecINS1_18DoCanDataLinkLayerIjthLj4294967295EtEEEELm18446744073709551615EE4sizeEv
FNDA:3,_ZN3etl4spanIKhLm18446744073709551615EEC2IPS1_hEET_T0_
FNDA:1383,_ZN3etl4spanIKhLm18446744073709551615EEC1ERKS2_
FNDA:74,_ZN3etl4spanIKhLm18446744073709551615EEC2IPhmEET_T0_
FNDA:23,_ZN3etl4spanIKPN7storage8IStorageELm18446744073709551615EEC2IRNS_5arrayIS4_Lm3EEEvEEOT_
FNDA:95,_ZN3etl4spanIKhLm18446744073709551615EEC2Ev
FNDA:1,_ZNK3etl4spanIPN2io7IWriterELm1EEixEm
FNDA:0,_ZN3etl4spanIKhLm18446744073709551615EEC1ILm12EEERAT__S1_
FNDA:2034,_ZNK3etl4spanIKhLm18446744073709551615EE4dataEv
FNDA:3,_ZN3etl4spanIKhLm18446744073709551615EEC2ILm12EEERAT__S1_
FNDA:2,_ZN3etl4spanIPN2io7IWriterELm7EEC2IRNS_5arrayIS3_Lm8EEEvEEOT_
FNF:321
FNH:299
DA:71,0
DA:72,0
DA:74,0
DA:85,0
DA:86,0
DA:88,0
DA:99,0
DA:100,0
DA:102,0
DA:135,4
DA:136,4
DA:138,4
DA:154,31
DA:155,31
DA:157,31
DA:178,5
DA:179,5
DA:181,5
DA:213,21
DA:214,21
DA:216,21
DA:233,2
DA:234,2
DA:236,2
DA:237,2
DA:258,32
DA:260,32
DA:274,4
DA:276,4
DA:298,1
DA:300,1
DA:346,1
DA:348,1
DA:354,18
DA:356,18
DA:407,639
DA:409,639
DA:568,2009
DA:569,2009
DA:570,2009
DA:572,2009
DA:578,12763
DA:579,12763
DA:580,12763
DA:582,12763
DA:588,9402
DA:589,9402
DA:590,9402
DA:592,9402
DA:598,1594
DA:599,1594
DA:600,1594
DA:602,1594
DA:613,284
DA:614,284
DA:615,284
DA:617,284
DA:651,2859
DA:652,2859
DA:653,2859
DA:655,2859
DA:661,915
DA:662,915
DA:663,915
DA:665,915
DA:686,5248
DA:688,5248
DA:694,15
DA:696,15
DA:702,19148
DA:704,19148
DA:726,34666
DA:728,34666
DA:774,4752
DA:776,4752
DA:782,42895
DA:784,42895
DA:806,1946
DA:808,1946
DA:809,1946
DA:810,1946
DA:836,12430
DA:838,12430
DA:853,4702
DA:855,4702
DA:907,4700
DA:909,1994
DA:910,4700
DA:917,4709
DA:919,4709
DA:920,4709
DA:921,4709
DA:927,3316
DA:929,3316
DA:931,3316
DA:932,3316
DA:985,19
DA:987,19
DA:1039,66
DA:1041,132
DA:1042,132
DA:1043,107
DA:1059,4687
DA:1061,4687
DA:1063,774
DA:1065,3913
DA:1067,0
DA:1069,3913
DA:1070,3913
LF:109
LH:99
end_of_record
TN:
SF:/home/jenkins/libs/3rdparty/etl/include/etl/string.h
FN:82,_ZN3etl6stringILm16EEC2Ev
FN:129,_ZN3etl6stringILm8EEC2EPKc
FN:248,_ZN3etl6stringILm16EEaSEPKc
FNDA:5,_ZN3etl6stringILm16EEC2Ev
FNDA:8,_ZN3etl6stringILm8EEC2EPKc
FNDA:2,_ZN3etl6stringILm16EEaSEPKc
FNF:3
FNH:3
DA:82,5
DA:83,5
DA:85,5
DA:86,5
DA:129,8
DA:130,8
DA:132,8
DA:133,8
DA:134,8
DA:248,2
DA:250,2
DA:252,2
LF:12
LH:12
end_of_record
TN:
SF:/home/jenkins/libs/3rdparty/etl/include/etl/string_view.h
FN:144,_ZN3etl17basic_string_viewIcNS_11char_traitsIcEEEC2EPKc
FN:162,_ZN3etl17basic_string_viewIcNS_11char_traitsIcEEEC2EPKcm
FN:204,_ZNK3etl17basic_string_viewIcNS_11char_traitsIcEEE5beginEv
FN:280,_ZNK3etl17basic_string_viewIcNS_11char_traitsIcEEE4sizeEv
FNDA:2005,_ZNK3etl17basic_string_viewIcNS_11char_traitsIcEEE4sizeEv
FNDA:94,_ZN3etl17basic_string_viewIcNS_11char_traitsIcEEEC2EPKc
FNDA:2005,_ZNK3etl17basic_string_viewIcNS_11char_traitsIcEEE5beginEv
FNDA:1909,_ZN3etl17basic_string_viewIcNS_11char_traitsIcEEEC2EPKcm
FNF:4
FNH:4
DA:144,94
DA:145,94
DA:146,96
DA:148,94
DA:162,1909
DA:163,1909
DA:164,1909
DA:166,1909
DA:204,2005
DA:206,2005
DA:280,2005
DA:282,2005
LF:12
LH:12
end_of_record
TN:
SF:/home/jenkins/libs/3rdparty/etl/include/etl/tuple.h
FN:387,_ZN3etl5tupleIJPN3uds15AbstractDiagJobEEEC2ERKS3_
FN:387,_ZN3etl5tupleIJPN3uds22IncomingDiagConnectionEPKhtEEC2ERKS3_RKS5_RKt
FN:387,_ZN3etl5tupleIJtPN3uds15AbstractDiagJobEEEC2ERKtRKS3_
FN:387,_ZN3etl5tupleIJPKhtEEC2ERKS2_RKt
FN:387,_ZN3etl5tupleIJhPN3uds15AbstractDiagJobEEEC2ERKhRKS3_
FN:387,_ZN3etl5tupleIJjEEC2ERKj
FN:387,_ZN3etl5tupleIJN9transport34ITransportMessageProcessedListener16ProcessingResultEEEC2ERKS3_
FN:387,_ZN3etl5tupleIJtEEC2ERKt
FN:387,_ZN3etl5tupleIJtjEEC2ERKtRKj
FN:387,_ZN3etl5tupleIJPN9transport16TransportMessageENS1_34ITransportMessageProcessedListener16ProcessingResultEEEC2ERKS3_RKS5_
FN:655,_ZNK3etl5tupleIJPN3uds22IncomingDiagConnectionEPKhtEE9get_valueEv
FN:655,_ZNK3etl5tupleIJPKhtEE9get_valueEv
FN:655,_ZNK3etl5tupleIJtjEE9get_valueEv
FN:655,_ZNK3etl5tupleIJtPN3uds15AbstractDiagJobEEE9get_valueEv
FN:655,_ZNK3etl5tupleIJjEE9get_valueEv
FN:655,_ZNK3etl5tupleIJtEE9get_valueEv
FN:655,_ZNK3etl5tupleIJPN3uds15AbstractDiagJobEEE9get_valueEv
FN:655,_ZNK3etl5tupleIJhPN3uds15AbstractDiagJobEEE9get_valueEv
FN:655,_ZNK3etl5tupleIJN9transport34ITransportMessageProcessedListener16ProcessingResultEEE9get_valueEv
FN:655,_ZNK3etl5tupleIJPN9transport16TransportMessageENS1_34ITransportMessageProcessedListener16ProcessingResultEEE9get_valueEv
FN:788,_ZN3etl3getILm0EJtjEEERKNS_13tuple_elementIXT_ENS_5tupleIJDpT0_EEEE4typeERKS5_
FN:788,_ZN3etl3getILm1EJhPN3uds15AbstractDiagJobEEEERKNS_13tuple_elementIXT_ENS_5tupleIJDpT0_EEEE4typeERKS8_
FN:788,_ZN3etl3getILm0EJPN3uds22IncomingDiagConnectionEPKhtEEERKNS_13tuple_elementIXT_ENS_5tupleIJDpT0_EEEE4typeERKSA_
FN:788,_ZN3etl3getILm2EJPN3uds22IncomingDiagConnectionEPKhtEEERKNS_13tuple_elementIXT_ENS_5tupleIJDpT0_EEEE4typeERKSA_
FN:788,_ZN3etl3getILm0EJtPN3uds15AbstractDiagJobEEEERKNS_13tuple_elementIXT_ENS_5tupleIJDpT0_EEEE4typeERKS8_
FN:788,_ZN3etl3getILm0EJhPN3uds15AbstractDiagJobEEEERKNS_13tuple_elementIXT_ENS_5tupleIJDpT0_EEEE4typeERKS8_
FN:788,_ZN3etl3getILm0EJPN9transport16TransportMessageENS1_34ITransportMessageProcessedListener16ProcessingResultEEEERKNS_13tuple_elementIXT_ENS_5tupleIJDpT0_EEEE4typeERKSA_
FN:788,_ZN3etl3getILm1EJPN9transport16TransportMessageENS1_34ITransportMessageProcessedListener16ProcessingResultEEEERKNS_13tuple_elementIXT_ENS_5tupleIJDpT0_EEEE4typeERKSA_
FN:788,_ZN3etl3getILm1EJtjEEERKNS_13tuple_elementIXT_ENS_5tupleIJDpT0_EEEE4typeERKS5_
FN:788,_ZN3etl3getILm1EJtPN3uds15AbstractDiagJobEEEERKNS_13tuple_elementIXT_ENS_5tupleIJDpT0_EEEE4typeERKS8_
FN:788,_ZN3etl3getILm1EJPN3uds22IncomingDiagConnectionEPKhtEEERKNS_13tuple_elementIXT_ENS_5tupleIJDpT0_EEEE4typeERKSA_
FNDA:9,_ZN3etl5tupleIJPN3uds22IncomingDiagConnectionEPKhtEEC2ERKS3_RKS5_RKt
FNDA:270,_ZN3etl5tupleIJtPN3uds15AbstractDiagJobEEEC2ERKtRKS3_
FNDA:2,_ZNK3etl5tupleIJPN3uds22IncomingDiagConnectionEPKhtEE9get_valueEv
FNDA:526,_ZN3etl5tupleIJPN3uds15AbstractDiagJobEEEC2ERKS3_
FNDA:1,_ZN3etl3getILm0EJtjEEERKNS_13tuple_elementIXT_ENS_5tupleIJDpT0_EEEE4typeERKS5_
FNDA:2,_ZNK3etl5tupleIJPKhtEE9get_valueEv
FNDA:1,_ZNK3etl5tupleIJjEE9get_valueEv
FNDA:9,_ZN3etl5tupleIJPKhtEEC2ERKS2_RKt
FNDA:1,_ZNK3etl5tupleIJtjEE9get_valueEv
FNDA:20,_ZNK3etl5tupleIJtPN3uds15AbstractDiagJobEEE9get_valueEv
FNDA:2,_ZNK3etl5tupleIJtEE9get_valueEv
FNDA:6,_ZN3etl3getILm1EJhPN3uds15AbstractDiagJobEEEERKNS_13tuple_elementIXT_ENS_5tupleIJDpT0_EEEE4typeERKS8_
FNDA:2,_ZN3etl3getILm0EJPN3uds22IncomingDiagConnectionEPKhtEEERKNS_13tuple_elementIXT_ENS_5tupleIJDpT0_EEEE4typeERKSA_
FNDA:256,_ZN3etl5tupleIJhPN3uds15AbstractDiagJobEEEC2ERKhRKS3_
FNDA:26,_ZNK3etl5tupleIJPN3uds15AbstractDiagJobEEE9get_valueEv
FNDA:2,_ZN3etl3getILm2EJPN3uds22IncomingDiagConnectionEPKhtEEERKNS_13tuple_elementIXT_ENS_5tupleIJDpT0_EEEE4typeERKSA_
FNDA:20,_ZN3etl3getILm0EJtPN3uds15AbstractDiagJobEEEERKNS_13tuple_elementIXT_ENS_5tupleIJDpT0_EEEE4typeERKS8_
FNDA:1,_ZN3etl5tupleIJjEEC2ERKj
FNDA:253,_ZN3etl5tupleIJN9transport34ITransportMessageProcessedListener16ProcessingResultEEEC2ERKS3_
FNDA:6,_ZNK3etl5tupleIJhPN3uds15AbstractDiagJobEEE9get_valueEv
FNDA:6,_ZN3etl3getILm0EJhPN3uds15AbstractDiagJobEEEERKNS_13tuple_elementIXT_ENS_5tupleIJDpT0_EEEE4typeERKS8_
FNDA:3,_ZN3etl3getILm0EJPN9transport16TransportMessageENS1_34ITransportMessageProcessedListener16ProcessingResultEEEERKNS_13tuple_elementIXT_ENS_5tupleIJDpT0_EEEE4typeERKSA_
FNDA:1,_ZN3etl5tupleIJtjEEC2ERKtRKj
FNDA:253,_ZN3etl5tupleIJPN9transport16TransportMessageENS1_34ITransportMessageProcessedListener16ProcessingResultEEEC2ERKS3_RKS5_
FNDA:3,_ZNK3etl5tupleIJN9transport34ITransportMessageProcessedListener16ProcessingResultEEE9get_valueEv
FNDA:9,_ZN3etl5tupleIJtEEC2ERKt
FNDA:3,_ZN3etl3getILm1EJPN9transport16TransportMessageENS1_34ITransportMessageProcessedListener16ProcessingResultEEEERKNS_13tuple_elementIXT_ENS_5tupleIJDpT0_EEEE4typeERKSA_
FNDA:1,_ZN3etl3getILm1EJtjEEERKNS_13tuple_elementIXT_ENS_5tupleIJDpT0_EEEE4typeERKS5_
FNDA:20,_ZN3etl3getILm1EJtPN3uds15AbstractDiagJobEEEERKNS_13tuple_elementIXT_ENS_5tupleIJDpT0_EEEE4typeERKS8_
FNDA:3,_ZNK3etl5tupleIJPN9transport16TransportMessageENS1_34ITransportMessageProcessedListener16ProcessingResultEEE9get_valueEv
FNDA:2,_ZN3etl3getILm1EJPN3uds22IncomingDiagConnectionEPKhtEEERKNS_13tuple_elementIXT_ENS_5tupleIJDpT0_EEEE4typeERKSA_
FNF:31
FNH:31
DA:387,1587
DA:389,1587
DA:391,1587
DA:655,66
DA:657,66
DA:788,66
DA:796,66
LF:7
LH:7
end_of_record
TN:
SF:/home/jenkins/libs/3rdparty/etl/include/etl/unaligned_type.h
FN:104,_ZN3etl22private_unaligned_type21unaligned_type_commonILm4ENS0_26unaligned_type_storage_extILm4EEEEC2Ev
FN:104,_ZN3etl22private_unaligned_type21unaligned_type_commonILm2ENS0_26unaligned_type_storage_extILm2EEEEC2Ev
FN:104,_ZN3etl22private_unaligned_type21unaligned_type_commonILm1ENS0_22unaligned_type_storageILm1EEEEC2Ev
FN:104,_ZN3etl22private_unaligned_type21unaligned_type_commonILm2ENS0_22unaligned_type_storageILm2EEEEC2Ev
FN:104,_ZN3etl22private_unaligned_type21unaligned_type_commonILm1ENS0_26unaligned_type_storage_extILm1EEEEC2Ev
FN:104,_ZN3etl22private_unaligned_type21unaligned_type_commonILm4ENS0_22unaligned_type_storageILm4EEEEC2Ev
FN:127,_ZNK3etl22private_unaligned_type21unaligned_type_commonILm4ENS0_22unaligned_type_storageILm4EEEE4dataEv
FN:127,_ZNK3etl22private_unaligned_type21unaligned_type_commonILm2ENS0_22unaligned_type_storageILm2EEEE4dataEv
FN:143,_ZNK3etl22private_unaligned_type21unaligned_type_commonILm4ENS0_26unaligned_type_storage_extILm4EEEE5beginEv
FN:143,_ZNK3etl22private_unaligned_type21unaligned_type_commonILm4ENS0_22unaligned_type_storageILm4EEEE5beginEv
FN:143,_ZNK3etl22private_unaligned_type21unaligned_type_commonILm2ENS0_22unaligned_type_storageILm2EEEE5beginEv
FN:191,_ZNK3etl22private_unaligned_type21unaligned_type_commonILm4ENS0_26unaligned_type_storage_extILm4EEEE3endEv
FN:191,_ZNK3etl22private_unaligned_type21unaligned_type_commonILm2ENS0_22unaligned_type_storageILm2EEEE3endEv
FN:191,_ZNK3etl22private_unaligned_type21unaligned_type_commonILm4ENS0_22unaligned_type_storageILm4EEEE3endEv
FN:257,_ZNK3etl22private_unaligned_type21unaligned_type_commonILm2ENS0_22unaligned_type_storageILm2EEEE11get_storageEv
FN:257,_ZNK3etl22private_unaligned_type21unaligned_type_commonILm4ENS0_26unaligned_type_storage_extILm4EEEE11get_storageEv
FN:257,_ZNK3etl22private_unaligned_type21unaligned_type_commonILm4ENS0_22unaligned_type_storageILm4EEEE11get_storageEv
FN:278,_ZN3etl22private_unaligned_type22unaligned_type_storageILm4EEC2Ev
FN:278,_ZN3etl22private_unaligned_type22unaligned_type_storageILm2EEC2Ev
FN:278,_ZN3etl22private_unaligned_type22unaligned_type_storageILm1EEC2Ev
FN:301,_ZN3etl22private_unaligned_type26unaligned_type_storage_extILm1EEC2EPh
FN:301,_ZN3etl22private_unaligned_type26unaligned_type_storage_extILm4EEC2EPh
FN:301,_ZN3etl22private_unaligned_type26unaligned_type_storage_extILm2EEC2EPh
FN:344,_ZN3etl22private_unaligned_type14unaligned_copyILm1ELi4321ELb1EE19copy_value_to_storeIhEEvRKT_Ph
FN:344,_ZN3etl22private_unaligned_type14unaligned_copyILm2ELi4321ELb1EE19copy_value_to_storeItEEvRKT_Ph
FN:344,_ZN3etl22private_unaligned_type14unaligned_copyILm4ELi4321ELb1EE19copy_value_to_storeIjEEvRKT_Ph
FN:360,_ZN3etl22private_unaligned_type14unaligned_copyILm4ELi4321ELb1EE19copy_store_to_valueIjEEvPKhRT_
FN:360,_ZN3etl22private_unaligned_type14unaligned_copyILm1ELi4321ELb1EE19copy_store_to_valueIhEEvPKhRT_
FN:360,_ZN3etl22private_unaligned_type14unaligned_copyILm2ELi4321ELb1EE19copy_store_to_valueItEEvPKhRT_
FN:375,_ZN3etl22private_unaligned_type14unaligned_copyILm4ELi4321ELb1EE19copy_store_to_storeEPKhiPh
FN:375,_ZN3etl22private_unaligned_type14unaligned_copyILm2ELi4321ELb1EE19copy_store_to_storeEPKhiPh
FN:482,_ZN3etl14unaligned_typeIjLi4321EEC2Ej
FN:482,_ZN3etl14unaligned_typeItLi4321EEC2Et
FN:490,_ZN3etl14unaligned_typeIjLi4321EEC2EPKv
FN:490,_ZN3etl14unaligned_typeItLi4321EEC2EPKv
FN:490,_ZN3etl14unaligned_typeIhLi4321EEC2EPKv
FN:508,_ZN3etl14unaligned_typeIjLi4321EEC2ERKS1_
FN:508,_ZN3etl14unaligned_typeItLi4321EEC2ERKS1_
FN:525,_ZN3etl14unaligned_typeIjLi4321EEaSEj
FN:525,_ZN3etl14unaligned_typeItLi4321EEaSEt
FN:535,_ZN3etl14unaligned_typeIjLi4321EEaSERKS1_
FN:535,_ZN3etl14unaligned_typeItLi4321EEaSERKS1_
FN:556,_ZNK3etl14unaligned_typeItLi4321EEcvtEv
FN:556,_ZNK3etl14unaligned_typeIhLi4321EEcvhEv
FN:556,_ZNK3etl14unaligned_typeIjLi4321EEcvjEv
FN:619,_ZN3etl18unaligned_type_extItLi4321EEC2EPh
FN:619,_ZN3etl18unaligned_type_extIhLi4321EEC2EPh
FN:619,_ZN3etl18unaligned_type_extIjLi4321EEC2EPh
FN:673,_ZN3etl18unaligned_type_extIhLi4321EEaSEh
FN:673,_ZN3etl18unaligned_type_extItLi4321EEaSEt
FN:673,_ZN3etl18unaligned_type_extIjLi4321EEaSEj
FN:736,_ZNK3etl18unaligned_type_extIjLi4321EEcvjEv
FNDA:1057,_ZN3etl18unaligned_type_extIhLi4321EEaSEh
FNDA:231,_ZNK3etl14unaligned_typeItLi4321EEcvtEv
FNDA:258,_ZN3etl18unaligned_type_extItLi4321EEaSEt
FNDA:2040,_ZN3etl22private_unaligned_type14unaligned_copyILm1ELi4321ELb1EE19copy_store_to_valueIhEEvPKhRT_
FNDA:1,_ZN3etl14unaligned_typeItLi4321EEaSERKS1_
FNDA:231,_ZN3etl22private_unaligned_type14unaligned_copyILm2ELi4321ELb1EE19copy_store_to_valueItEEvPKhRT_
FNDA:3,_ZN3etl22private_unaligned_type14unaligned_copyILm4ELi4321ELb1EE19copy_store_to_storeEPKhiPh
FNDA:258,_ZN3etl22private_unaligned_type21unaligned_type_commonILm2ENS0_26unaligned_type_storage_extILm2EEEEC2Ev
FNDA:229,_ZN3etl14unaligned_typeItLi4321EEC2EPKv
FNDA:26,_ZN3etl22private_unaligned_type21unaligned_type_commonILm4ENS0_26unaligned_type_storage_extILm4EEEEC2Ev
FNDA:2,_ZNK3etl22private_unaligned_type21unaligned_type_commonILm2ENS0_22unaligned_type_storageILm2EEEE3endEv
FNDA:2040,_ZN3etl22private_unaligned_type21unaligned_type_commonILm1ENS0_22unaligned_type_storageILm1EEEEC2Ev
FNDA:27,_ZNK3etl22private_unaligned_type21unaligned_type_commonILm2ENS0_22unaligned_type_storageILm2EEEE11get_storageEv
FNDA:2767,_ZN3etl22private_unaligned_type22unaligned_type_storageILm4EEC2Ev
FNDA:2,_ZN3etl14unaligned_typeIjLi4321EEC2ERKS1_
FNDA:12,_ZNK3etl22private_unaligned_type21unaligned_type_commonILm4ENS0_22unaligned_type_storageILm4EEEE4dataEv
FNDA:1057,_ZN3etl22private_unaligned_type14unaligned_copyILm1ELi4321ELb1EE19copy_value_to_storeIhEEvRKT_Ph
FNDA:2761,_ZN3etl22private_unaligned_type14unaligned_copyILm4ELi4321ELb1EE19copy_store_to_valueIjEEvPKhRT_
FNDA:0,_ZNK3etl22private_unaligned_type21unaligned_type_commonILm4ENS0_26unaligned_type_storage_extILm4EEEE3endEv
FNDA:1057,_ZN3etl22private_unaligned_type26unaligned_type_storage_extILm1EEC2EPh
FNDA:1,_ZN3etl14unaligned_typeIjLi4321EEaSERKS1_
FNDA:4,_ZNK3etl18unaligned_type_extIjLi4321EEcvjEv
FNDA:10,_ZN3etl14unaligned_typeIjLi4321EEC2Ej
FNDA:2755,_ZN3etl14unaligned_typeIjLi4321EEC2EPKv
FNDA:1,_ZN3etl14unaligned_typeIjLi4321EEaSEj
FNDA:0,_ZNK3etl22private_unaligned_type21unaligned_type_commonILm4ENS0_26unaligned_type_storage_extILm4EEEE5beginEv
FNDA:1057,_ZN3etl18unaligned_type_extIhLi4321EEC2EPh
FNDA:2040,_ZN3etl14unaligned_typeIhLi4321EEC2EPKv
FNDA:22,_ZN3etl18unaligned_type_extIjLi4321EEaSEj
FNDA:26,_ZN3etl18unaligned_type_extIjLi4321EEC2EPh
FNDA:1057,_ZN3etl22private_unaligned_type21unaligned_type_commonILm1ENS0_26unaligned_type_storage_extILm1EEEEC2Ev
FNDA:2,_ZNK3etl22private_unaligned_type21unaligned_type_commonILm4ENS0_22unaligned_type_storageILm4EEEE5beginEv
FNDA:21,_ZN3etl14unaligned_typeItLi4321EEC2Et
FNDA:2,_ZNK3etl22private_unaligned_type21unaligned_type_commonILm4ENS0_22unaligned_type_storageILm4EEEE3endEv
FNDA:16,_ZNK3etl22private_unaligned_type21unaligned_type_commonILm4ENS0_22unaligned_type_storageILm4EEEE11get_storageEv
FNDA:2,_ZNK3etl22private_unaligned_type21unaligned_type_commonILm2ENS0_22unaligned_type_storageILm2EEEE5beginEv
FNDA:2757,_ZNK3etl14unaligned_typeIjLi4321EEcvjEv
FNDA:2040,_ZN3etl22private_unaligned_type22unaligned_type_storageILm1EEC2Ev
FNDA:2767,_ZN3etl22private_unaligned_type21unaligned_type_commonILm4ENS0_22unaligned_type_storageILm4EEEEC2Ev
FNDA:23,_ZNK3etl22private_unaligned_type21unaligned_type_commonILm2ENS0_22unaligned_type_storageILm2EEEE4dataEv
FNDA:252,_ZN3etl22private_unaligned_type21unaligned_type_commonILm2ENS0_22unaligned_type_storageILm2EEEEC2Ev
FNDA:258,_ZN3etl18unaligned_type_extItLi4321EEC2EPh
FNDA:0,_ZNK3etl22private_unaligned_type21unaligned_type_commonILm4ENS0_26unaligned_type_storage_extILm4EEEE11get_storageEv
FNDA:2,_ZN3etl14unaligned_typeItLi4321EEC2ERKS1_
FNDA:26,_ZN3etl22private_unaligned_type26unaligned_type_storage_extILm4EEC2EPh
FNDA:1,_ZN3etl14unaligned_typeItLi4321EEaSEt
FNDA:258,_ZN3etl22private_unaligned_type26unaligned_type_storage_extILm2EEC2EPh
FNDA:280,_ZN3etl22private_unaligned_type14unaligned_copyILm2ELi4321ELb1EE19copy_value_to_storeItEEvRKT_Ph
FNDA:2040,_ZNK3etl14unaligned_typeIhLi4321EEcvhEv
FNDA:3,_ZN3etl22private_unaligned_type14unaligned_copyILm2ELi4321ELb1EE19copy_store_to_storeEPKhiPh
FNDA:252,_ZN3etl22private_unaligned_type22unaligned_type_storageILm2EEC2Ev
FNDA:33,_ZN3etl22private_unaligned_type14unaligned_copyILm4ELi4321ELb1EE19copy_value_to_storeIjEEvRKT_Ph
FNF:52
FNH:49
DA:104,6400
DA:106,6400
DA:127,35
DA:129,35
DA:143,4
DA:145,4
DA:191,4
DA:193,4
DA:257,43
DA:259,43
DA:278,5059
DA:279,18671
DA:281,5059
DA:301,1341
DA:302,1341
DA:304,1341
DA:344,1370
DA:346,1370
DA:351,1370
DA:354,1370
DA:356,1370
DA:360,5032
DA:362,5032
DA:367,5032
DA:370,5032
DA:372,5032
DA:375,6
DA:377,6
DA:379,6
DA:381,0
DA:383,6
DA:482,31
DA:483,31
DA:484,31
DA:485,31
DA:490,5024
DA:491,5024
DA:492,5024
DA:493,5024
DA:508,4
DA:509,4
DA:510,4
DA:511,4
DA:525,2
DA:527,2
DA:529,2
DA:535,2
DA:537,2
DA:539,2
DA:556,5028
DA:558,5028
DA:560,5028
DA:562,5028
DA:619,1341
DA:620,1341
DA:622,1341
DA:673,1337
DA:675,1337
DA:677,1337
DA:736,4
DA:738,4
DA:740,4
DA:742,4
LF:63
LH:62
end_of_record
TN:
SF:/home/jenkins/libs/3rdparty/etl/include/etl/utility.h
FN:56,_ZN3etl4moveIRhEEONS_16remove_referenceIT_E4typeEOS3_
FN:56,_ZN3etl4moveIRN7storage10StorageJob6Result8DataLossEEEONS_16remove_referenceIT_E4typeEOS7_
FN:56,_ZN3etl4moveIRjEEONS_16remove_referenceIT_E4typeEOS3_
FN:56,_ZN3etl4moveIRN7storage10StorageJob6Result4InitEEEONS_16remove_referenceIT_E4typeEOS7_
FN:56,_ZN3etl4moveIRN12_GLOBAL__N_11CEEEONS_16remove_referenceIT_E4typeEOS5_
FN:56,_ZN3etl4moveIRN7storage10StorageJob6Result7SuccessEEEONS_16remove_referenceIT_E4typeEOS7_
FN:56,_ZN3etl4moveIRN12_GLOBAL__N_11BEEEONS_16remove_referenceIT_E4typeEOS5_
FN:56,_ZN3etl4moveIRN7storage10StorageJob4Type4NoneEEEONS_16remove_referenceIT_E4typeEOS7_
FN:56,_ZN3etl4moveIRN7storage10StorageJob6Result5ErrorEEEONS_16remove_referenceIT_E4typeEOS7_
FN:56,_ZN3etl4moveIRN7storage10StorageJob4Type4ReadEEEONS_16remove_referenceIT_E4typeEOS7_
FN:56,_ZN3etl4moveIRPKhEEONS_16remove_referenceIT_E4typeEOS5_
FN:56,_ZN3etl4moveIRtEEONS_16remove_referenceIT_E4typeEOS3_
FN:56,_ZN3etl4moveIRN7storage10StorageJob4Type5WriteEEEONS_16remove_referenceIT_E4typeEOS7_
FN:56,_ZN3etl4moveIRN12_GLOBAL__N_11AEEEONS_16remove_referenceIT_E4typeEOS5_
FN:63,_ZN3etl7forwardIPKhEEOT_RNS_16remove_referenceIS3_E4typeE
FN:63,_ZN3etl7forwardIRN9lifecycle19ILifecycleComponent10Transition4TypeEEEOT_RNS_16remove_referenceIS6_E4typeE
FN:63,_ZN3etl7forwardIRKN12_GLOBAL__N_11CEEEOT_RNS_16remove_referenceIS5_E4typeE
FN:63,_ZN3etl7forwardINS_17reference_wrapperIN5docan25DoCanTransportLayerConfigINS2_18DoCanDataLinkLayerIjthLj0EtEEEEEEEEOT_RNS_16remove_referenceIS8_E4typeE
FN:63,_ZN3etl7forwardIRN7runtime16StatisticsWriterEEEOT_RNS_16remove_referenceIS4_E4typeE
FN:63,_ZN3etl7forwardIRKN9transport14LogicalAddressEEEOT_RNS_16remove_referenceIS5_E4typeE
FN:63,_ZN3etl7forwardIRN3uds22IncomingDiagConnectionEEEOT_RNS_16remove_referenceIS4_E4typeE
FN:63,_ZN3etl7forwardIN7storage10StorageJob6Result4InitEEEOT_RNS_16remove_referenceIS5_E4typeE
FN:63,_ZN3etl7forwardImEEOT_RNS_16remove_referenceIS1_E4typeE
FN:63,_ZN3etl7forwardIRKN3can8CANFrameEEEOT_RNS_16remove_referenceIS5_E4typeE
FN:63,_ZN3etl7forwardIRN3uds14DiagReturnCode4TypeEEEOT_RNS_16remove_referenceIS5_E4typeE
FN:63,_ZN3etl7forwardIRN4util6buffer12LinkedBufferIKhEEEEOT_RNS_16remove_referenceIS7_E4typeE
FN:63,_ZN3etl7forwardIRN2io11MemoryQueueILm20ELm8EtEEEEOT_RNS_16remove_referenceIS5_E4typeE
FN:63,_ZN3etl7forwardItEEOT_RNS_16remove_referenceIS1_E4typeE
FN:63,_ZN3etl7forwardINS_17reference_wrapperIN5docan25IDoCanPhysicalTransceiverINS2_18DoCanDataLinkLayerIjthLj0EtEEEEEEEEOT_RNS_16remove_referenceIS8_E4typeE
FN:63,_ZN3etl7forwardIN3uds14DiagReturnCode4TypeEEEOT_RNS_16remove_referenceIS4_E4typeE
FN:63,_ZN3etl7forwardIN12_GLOBAL__N_11CEEEOT_RNS_16remove_referenceIS3_E4typeE
FN:63,_ZN3etl7forwardIRKhEEOT_RNS_16remove_referenceIS3_E4typeE
FN:63,_ZN3etl7forwardIRKN7storage10StorageJob6Result7SuccessEEEOT_RNS_16remove_referenceIS7_E4typeE
FN:63,_ZN3etl7forwardIRN5async11TaskContextINS1_15FreeRtosAdapterINS1_12AsyncBindingEEEEEEEOT_RNS_16remove_referenceIS8_E4typeE
FN:63,_ZN3etl7forwardIN7storage10StorageJob4Type4NoneEEEOT_RNS_16remove_referenceIS5_E4typeE
FN:63,_ZN3etl7forwardIjEEOT_RNS_16remove_referenceIS1_E4typeE
FN:63,_ZN3etl7forwardIN7storage10StorageJob6Result7SuccessEEEOT_RNS_16remove_referenceIS5_E4typeE
FN:63,_ZN3etl7forwardINS_17reference_wrapperIN5docan22IDoCanAddressConverterINS2_18DoCanDataLinkLayerIjthLj0EtEEEEEEEEOT_RNS_16remove_referenceIS8_E4typeE
FN:63,_ZN3etl7forwardIRN5async11TaskContextINS1_15FreeRtosAdapterIN12_GLOBAL__N_111TestBindingEEEEEEEOT_RNS_16remove_referenceIS9_E4typeE
FN:63,_ZN3etl7forwardIN9lifecycle8internal14LifecycleLevelILm5EEEEEOT_RNS_16remove_referenceIS5_E4typeE
FN:63,_ZN3etl7forwardIhEEOT_RNS_16remove_referenceIS1_E4typeE
FN:63,_ZN3etl7forwardIRN3can21ICANFrameSentListenerEEEOT_RNS_16remove_referenceIS4_E4typeE
FN:63,_ZN3etl7forwardIN7storage10StorageJob6Result5ErrorEEEOT_RNS_16remove_referenceIS5_E4typeE
FN:63,_ZN3etl7forwardIN9lifecycle8internal13LifecycleDescEEEOT_RNS_16remove_referenceIS4_E4typeE
FN:63,_ZN3etl7forwardIRN4util6buffer12LinkedBufferIhEEEEOT_RNS_16remove_referenceIS6_E4typeE
FN:63,_ZN3etl7forwardIRA8_PN2io7IWriterEEEOT_RNS_16remove_referenceIS6_E4typeE
FN:63,_ZN3etl7forwardIRhEEOT_RNS_16remove_referenceIS2_E4typeE
FN:63,_ZN3etl7forwardIRN7storage10StorageJobEEEOT_RNS_16remove_referenceIS4_E4typeE
FN:63,_ZN3etl7forwardIRKN7storage10StorageJob6Result8DataLossEEEOT_RNS_16remove_referenceIS7_E4typeE
FN:63,_ZN3etl7forwardIN9lifecycle8internal16StoreLevelActionEEEOT_RNS_16remove_referenceIS4_E4typeE
FN:63,_ZN3etl7forwardIPN9transport16TransportMessageEEEOT_RNS_16remove_referenceIS4_E4typeE
FN:63,_ZN3etl7forwardIRKN7storage10StorageJob6Result5ErrorEEEOT_RNS_16remove_referenceIS7_E4typeE
FN:63,_ZN3etl7forwardIRN4util7command14CommandContextEEEOT_RNS_16remove_referenceIS5_E4typeE
FN:63,_ZN3etl7forwardIRKN9transport16TransportMessageEEEOT_RNS_16remove_referenceIS5_E4typeE
FN:63,_ZN3etl7forwardIRKN5docan22IDoCanAddressConverterINS1_18DoCanDataLinkLayerIjthLj4294967295EtEEEEEEOT_RNS_16remove_referenceIS8_E4typeE
FN:63,_ZN3etl7forwardIN9transport34ITransportMessageProcessedListener16ProcessingResultEEEOT_RNS_16remove_referenceIS4_E4typeE
FN:63,_ZN3etl7forwardIRKmEEOT_RNS_16remove_referenceIS3_E4typeE
FN:63,_ZN3etl7forwardIPN3uds22IncomingDiagConnectionEEEOT_RNS_16remove_referenceIS4_E4typeE
FN:63,_ZN3etl7forwardINS_17reference_wrapperIKhEEEEOT_RNS_16remove_referenceIS4_E4typeE
FN:63,_ZN3etl7forwardIRN3can7IFilterEEEOT_RNS_16remove_referenceIS4_E4typeE
FN:63,_ZN3etl7forwardIKhEEOT_RNS_16remove_referenceIS2_E4typeE
FN:63,_ZN3etl7forwardIN7storage10StorageJob6Result8DataLossEEEOT_RNS_16remove_referenceIS5_E4typeE
FN:63,_ZN3etl7forwardIRKN12_GLOBAL__N_11AEEEOT_RNS_16remove_referenceIS5_E4typeE
FN:63,_ZN3etl7forwardIRKN5docan21DoCanNormalAddressingIthtEEEEOT_RNS_16remove_referenceIS6_E4typeE
FN:63,_ZN3etl7forwardIN9lifecycle8internal6EndTagEEEOT_RNS_16remove_referenceIS4_E4typeE
FN:63,_ZN3etl7forwardINS_17reference_wrapperIN5docan19IDoCanTickGeneratorEEEEEOT_RNS_16remove_referenceIS5_E4typeE
FN:63,_ZN3etl7forwardIRN3can15ICanTransceiverEEEOT_RNS_16remove_referenceIS4_E4typeE
FN:63,_ZN3etl7forwardIRN9lifecycle19ILifecycleComponentEEEOT_RNS_16remove_referenceIS4_E4typeE
FN:63,_ZN3etl7forwardIRKN7runtime17RuntimeStatisticsEEEOT_RNS_16remove_referenceIS5_E4typeE
FN:63,_ZN3etl7forwardIRKN9lifecycle8internal14LifecycleLevelILm2EEEEEOT_RNS_16remove_referenceIS7_E4typeE
FN:63,_ZN3etl7forwardIPN3uds15AbstractDiagJobEEEOT_RNS_16remove_referenceIS4_E4typeE
FN:63,_ZN3etl7forwardIRA8_PN2io7IReaderEEEOT_RNS_16remove_referenceIS6_E4typeE
FN:63,_ZN3etl7forwardIRN9transport22AbstractTransportLayerEEEOT_RNS_16remove_referenceIS4_E4typeE
FN:63,_ZN3etl7forwardIRN5async11TaskContextIN12_GLOBAL__N_115TestBindingMockEEEEEOT_RNS_16remove_referenceIS7_E4typeE
FN:63,_ZN3etl7forwardIN9lifecycle8internal14LifecycleLevelILm14EEEEEOT_RNS_16remove_referenceIS5_E4typeE
FN:63,_ZN3etl7forwardIRKN12_GLOBAL__N_11BEEEOT_RNS_16remove_referenceIS5_E4typeE
FN:141,_ZN3etl13to_underlyingIN6safety14SafeSupervisor5EventEEENS_15underlying_typeIT_XsrNS_7is_enumIS5_EE5valueEE4typeES5_
FN:152,_ZN3etl4swapIjEEvRT_S2_
FN:152,_ZN3etl4swapIhEEvRT_S2_
FNDA:14,_ZN3etl7forwardIRKN7storage10StorageJob6Result7SuccessEEEOT_RNS_16remove_referenceIS7_E4typeE
FNDA:2,_ZN3etl7forwardIRN5async11TaskContextINS1_15FreeRtosAdapterINS1_12AsyncBindingEEEEEEEOT_RNS_16remove_referenceIS8_E4typeE
FNDA:72,_ZN3etl7forwardIN7storage10StorageJob4Type4NoneEEEOT_RNS_16remove_referenceIS5_E4typeE
FNDA:17,_ZN3etl7forwardIjEEOT_RNS_16remove_referenceIS1_E4typeE
FNDA:20,_ZN3etl7forwardIN7storage10StorageJob6Result7SuccessEEEOT_RNS_16remove_referenceIS5_E4typeE
FNDA:4,_ZN3etl7forwardINS_17reference_wrapperIN5docan22IDoCanAddressConverterINS2_18DoCanDataLinkLayerIjthLj0EtEEEEEEEEOT_RNS_16remove_referenceIS8_E4typeE
FNDA:0,_ZN3etl7forwardIRN5async11TaskContextINS1_15FreeRtosAdapterIN12_GLOBAL__N_111TestBindingEEEEEEEOT_RNS_16remove_referenceIS9_E4typeE
FNDA:5,_ZN3etl7forwardIN9lifecycle8internal14LifecycleLevelILm5EEEEEOT_RNS_16remove_referenceIS5_E4typeE
FNDA:0,_ZN3etl4moveIRN12_GLOBAL__N_11BEEEONS_16remove_referenceIT_E4typeEOS5_
FNDA:18,_ZN3etl7forwardIRN3can21ICANFrameSentListenerEEEOT_RNS_16remove_referenceIS4_E4typeE
FNDA:12,_ZN3etl7forwardIhEEOT_RNS_16remove_referenceIS1_E4typeE
FNDA:41,_ZN3etl7forwardIN7storage10StorageJob6Result5ErrorEEEOT_RNS_16remove_referenceIS5_E4typeE
FNDA:1,_ZN3etl4swapIjEEvRT_S2_
FNDA:21,_ZN3etl7forwardIN9lifecycle8internal13LifecycleDescEEEOT_RNS_16remove_referenceIS4_E4typeE
FNDA:30,_ZN3etl7forwardIRN3uds14DiagReturnCode4TypeEEEOT_RNS_16remove_referenceIS5_E4typeE
FNDA:256,_ZN3etl7forwardIRN2io11MemoryQueueILm20ELm8EtEEEEOT_RNS_16remove_referenceIS5_E4typeE
FNDA:56,_ZN3etl7forwardIRN4util6buffer12LinkedBufferIKhEEEEOT_RNS_16remove_referenceIS7_E4typeE
FNDA:49,_ZN3etl7forwardItEEOT_RNS_16remove_referenceIS1_E4typeE
FNDA:4,_ZN3etl7forwardINS_17reference_wrapperIN5docan25IDoCanPhysicalTransceiverINS2_18DoCanDataLinkLayerIjthLj0EtEEEEEEEEOT_RNS_16remove_referenceIS8_E4typeE
FNDA:4,_ZN3etl4moveIRN12_GLOBAL__N_11CEEEONS_16remove_referenceIT_E4typeEOS5_
FNDA:37,_ZN3etl4moveIRN7storage10StorageJob6Result7SuccessEEEONS_16remove_referenceIT_E4typeEOS7_
FNDA:30,_ZN3etl7forwardIN3uds14DiagReturnCode4TypeEEEOT_RNS_16remove_referenceIS4_E4typeE
FNDA:4,_ZN3etl7forwardIN12_GLOBAL__N_11CEEEOT_RNS_16remove_referenceIS3_E4typeE
FNDA:8,_ZN3etl7forwardIRKhEEOT_RNS_16remove_referenceIS3_E4typeE
FNDA:8,_ZN3etl7forwardIRKN9transport14LogicalAddressEEEOT_RNS_16remove_referenceIS5_E4typeE
FNDA:3,_ZN3etl7forwardIRN3uds22IncomingDiagConnectionEEEOT_RNS_16remove_referenceIS4_E4typeE
FNDA:136,_ZN3etl7forwardIN7storage10StorageJob6Result4InitEEEOT_RNS_16remove_referenceIS5_E4typeE
FNDA:150,_ZN3etl7forwardImEEOT_RNS_16remove_referenceIS1_E4typeE
FNDA:3,_ZN3etl4moveIRjEEONS_16remove_referenceIT_E4typeEOS3_
FNDA:18,_ZN3etl7forwardIRKN3can8CANFrameEEEOT_RNS_16remove_referenceIS5_E4typeE
FNDA:136,_ZN3etl4moveIRN7storage10StorageJob6Result4InitEEEONS_16remove_referenceIT_E4typeEOS7_
FNDA:7,_ZN3etl7forwardIPKhEEOT_RNS_16remove_referenceIS3_E4typeE
FNDA:53,_ZN3etl7forwardIRN9lifecycle19ILifecycleComponent10Transition4TypeEEEOT_RNS_16remove_referenceIS6_E4typeE
FNDA:2,_ZN3etl7forwardIRKN12_GLOBAL__N_11CEEEOT_RNS_16remove_referenceIS5_E4typeE
FNDA:4,_ZN3etl7forwardINS_17reference_wrapperIN5docan25DoCanTransportLayerConfigINS2_18DoCanDataLinkLayerIjthLj0EtEEEEEEEEOT_RNS_16remove_referenceIS8_E4typeE
FNDA:1048,_ZN3etl4moveIRhEEONS_16remove_referenceIT_E4typeEOS3_
FNDA:10,_ZN3etl7forwardIRN7runtime16StatisticsWriterEEEOT_RNS_16remove_referenceIS4_E4typeE
FNDA:2,_ZN3etl4moveIRN7storage10StorageJob6Result8DataLossEEEONS_16remove_referenceIT_E4typeEOS7_
FNDA:3,_ZN3etl4moveIRtEEONS_16remove_referenceIT_E4typeEOS3_
FNDA:18,_ZN3etl7forwardIRA8_PN2io7IReaderEEEOT_RNS_16remove_referenceIS6_E4typeE
FNDA:18,_ZN3etl7forwardIRN5async11TaskContextIN12_GLOBAL__N_115TestBindingMockEEEEEOT_RNS_16remove_referenceIS7_E4typeE
FNDA:3,_ZN3etl7forwardIN9lifecycle8internal14LifecycleLevelILm14EEEEEOT_RNS_16remove_referenceIS5_E4typeE
FNDA:12,_ZN3etl7forwardIRN9transport22AbstractTransportLayerEEEOT_RNS_16remove_referenceIS4_E4typeE
FNDA:0,_ZN3etl4moveIRN7storage10StorageJob4Type5WriteEEEONS_16remove_referenceIT_E4typeEOS7_
FNDA:2,_ZN3etl7forwardIRKN12_GLOBAL__N_11BEEEOT_RNS_16remove_referenceIS5_E4typeE
FNDA:0,_ZN3etl4moveIRN12_GLOBAL__N_11AEEEONS_16remove_referenceIT_E4typeEOS5_
FNDA:1,_ZN3etl7forwardIN7storage10StorageJob6Result8DataLossEEEOT_RNS_16remove_referenceIS5_E4typeE
FNDA:3,_ZN3etl7forwardIRKN12_GLOBAL__N_11AEEEOT_RNS_16remove_referenceIS5_E4typeE
FNDA:4,_ZN3etl7forwardIRKN5docan21DoCanNormalAddressingIthtEEEEOT_RNS_16remove_referenceIS6_E4typeE
FNDA:4,_ZN3etl7forwardIN9lifecycle8internal6EndTagEEEOT_RNS_16remove_referenceIS4_E4typeE
FNDA:4,_ZN3etl7forwardINS_17reference_wrapperIN5docan19IDoCanTickGeneratorEEEEEOT_RNS_16remove_referenceIS5_E4typeE
FNDA:4,_ZN3etl7forwardIRN3can15ICanTransceiverEEEOT_RNS_16remove_referenceIS4_E4typeE
FNDA:53,_ZN3etl7forwardIRN9lifecycle19ILifecycleComponentEEEOT_RNS_16remove_referenceIS4_E4typeE
FNDA:10,_ZN3etl7forwardIRKN7runtime17RuntimeStatisticsEEEOT_RNS_16remove_referenceIS5_E4typeE
FNDA:2,_ZN3etl7forwardIRKN9lifecycle8internal14LifecycleLevelILm2EEEEEOT_RNS_16remove_referenceIS7_E4typeE
FNDA:52,_ZN3etl7forwardIPN3uds15AbstractDiagJobEEEOT_RNS_16remove_referenceIS4_E4typeE
FNDA:6,_ZN3etl7forwardIPN9transport16TransportMessageEEEOT_RNS_16remove_referenceIS4_E4typeE
FNDA:11,_ZN3etl7forwardIRKN7storage10StorageJob6Result5ErrorEEEOT_RNS_16remove_referenceIS7_E4typeE
FNDA:6,_ZN3etl7forwardIRKN9transport16TransportMessageEEEOT_RNS_16remove_referenceIS5_E4typeE
FNDA:38,_ZN3etl7forwardIRN4util7command14CommandContextEEEOT_RNS_16remove_referenceIS5_E4typeE
FNDA:4,_ZN3etl7forwardIRKN5docan22IDoCanAddressConverterINS1_18DoCanDataLinkLayerIjthLj4294967295EtEEEEEEOT_RNS_16remove_referenceIS8_E4typeE
FNDA:6,_ZN3etl7forwardIN9transport34ITransportMessageProcessedListener16ProcessingResultEEEOT_RNS_16remove_referenceIS4_E4typeE
FNDA:4,_ZN3etl7forwardIPN3uds22IncomingDiagConnectionEEEOT_RNS_16remove_referenceIS4_E4typeE
FNDA:108,_ZN3etl7forwardIRKmEEOT_RNS_16remove_referenceIS3_E4typeE
FNDA:4,_ZN3etl7forwardINS_17reference_wrapperIKhEEEEOT_RNS_16remove_referenceIS4_E4typeE
FNDA:4,_ZN3etl7forwardIRN3can7IFilterEEEOT_RNS_16remove_referenceIS4_E4typeE
FNDA:10,_ZN3etl7forwardIKhEEOT_RNS_16remove_referenceIS2_E4typeE
FNDA:3,_ZN3etl4moveIRPKhEEONS_16remove_referenceIT_E4typeEOS5_
FNDA:346,_ZN3etl4swapIhEEvRT_S2_
FNDA:52,_ZN3etl7forwardIRN4util6buffer12LinkedBufferIhEEEEOT_RNS_16remove_referenceIS6_E4typeE
FNDA:30,_ZN3etl7forwardIRA8_PN2io7IWriterEEEOT_RNS_16remove_referenceIS6_E4typeE
FNDA:72,_ZN3etl4moveIRN7storage10StorageJob4Type4NoneEEEONS_16remove_referenceIT_E4typeEOS7_
FNDA:0,_ZN3etl13to_underlyingIN6safety14SafeSupervisor5EventEEENS_15underlying_typeIT_XsrNS_7is_enumIS5_EE5valueEE4typeES5_
FNDA:53,_ZN3etl7forwardIRhEEOT_RNS_16remove_referenceIS2_E4typeE
FNDA:128,_ZN3etl7forwardIRN7storage10StorageJobEEEOT_RNS_16remove_referenceIS4_E4typeE
FNDA:52,_ZN3etl4moveIRN7storage10StorageJob6Result5ErrorEEEONS_16remove_referenceIT_E4typeEOS7_
FNDA:1,_ZN3etl7forwardIRKN7storage10StorageJob6Result8DataLossEEEOT_RNS_16remove_referenceIS7_E4typeE
FNDA:4,_ZN3etl7forwardIN9lifecycle8internal16StoreLevelActionEEEOT_RNS_16remove_referenceIS4_E4typeE
FNDA:0,_ZN3etl4moveIRN7storage10StorageJob4Type4ReadEEEONS_16remove_referenceIT_E4typeEOS7_
FNF:79
FNH:73
DA:56,1360
DA:58,1360
DA:63,1713
DA:65,1713
DA:141,0
DA:143,0
DA:152,347
DA:154,347
DA:155,347
DA:156,347
DA:157,347
LF:11
LH:9
end_of_record
TN:
SF:/home/jenkins/libs/3rdparty/etl/include/etl/vector.h
FN:99,_ZN3etl7ivectorIN9lifecycle16LifecycleManager27ComponentTransitionExecutorEE5beginEv
FN:99,_ZN3etl7ivectorIN4util6memory18BuddyMemoryManager13AcquireResultEE5beginEv
FN:99,_ZN3etl7ivectorIN2io17MemoryQueueWriterINS1_11MemoryQueueILm20ELm8EtEEEEE5beginEv
FN:99,_ZN3etl7ivectorIN2io17MemoryQueueReaderINS1_11MemoryQueueILm20ELm8EtEEEEE5beginEv
FN:99,_ZN3etl7ivectorIN5docan19DoCanTransportLayerINS1_18DoCanDataLinkLayerIjthLj0EtEEEEE5beginEv
FN:117,_ZN3etl7ivectorIN2io17MemoryQueueReaderINS1_11MemoryQueueILm20ELm8EtEEEEE3endEv
FN:117,_ZN3etl7ivectorIN9lifecycle16LifecycleManager27ComponentTransitionExecutorEE3endEv
FN:117,_ZN3etl7ivectorIN2io17MemoryQueueWriterINS1_11MemoryQueueILm20ELm8EtEEEEE3endEv
FN:117,_ZN3etl7ivectorIN4util6memory18BuddyMemoryManager13AcquireResultEE3endEv
FN:117,_ZN3etl7ivectorIN5docan19DoCanTransportLayerINS1_18DoCanDataLinkLayerIjthLj0EtEEEEE3endEv
FN:209,_ZN3etl7ivectorIhE6resizeEm
FN:221,_ZN3etl7ivectorIhE6resizeEmRKh
FN:280,_ZN3etl7ivectorIN2io11MemoryQueueILm20ELm8EtEEEixEm
FN:280,_ZN3etl7ivectorIhEixEm
FN:280,_ZN3etl7ivectorIN2io17MemoryQueueReaderINS1_11MemoryQueueILm20ELm8EtEEEEEixEm
FN:280,_ZN3etl7ivectorIN2io17MemoryQueueWriterINS1_11MemoryQueueILm20ELm8EtEEEEEixEm
FN:290,_ZNK3etl7ivectorIhEixEm
FN:341,_ZN3etl7ivectorIN2io17MemoryQueueWriterINS1_11MemoryQueueILm20ELm8EtEEEEE4backEv
FN:341,_ZN3etl7ivectorIN2io11MemoryQueueILm20ELm8EtEEE4backEv
FN:341,_ZN3etl7ivectorIN9lifecycle16LifecycleManager27ComponentTransitionExecutorEE4backEv
FN:341,_ZN3etl7ivectorIN2io17MemoryQueueReaderINS1_11MemoryQueueILm20ELm8EtEEEEE4backEv
FN:341,_ZN3etl7ivectorIN5docan19DoCanTransportLayerINS1_18DoCanDataLinkLayerIjthLj0EtEEEEE4backEv
FN:341,_ZN3etl7ivectorIN5docan27DoCanPhysicalCanTransceiverINS1_21DoCanNormalAddressingIthtEEEEE4backEv
FN:359,_ZN3etl7ivectorIN5docan19DoCanTransportLayerINS1_18DoCanDataLinkLayerIjthLj0EtEEEEE4dataEv
FN:359,_ZN3etl7ivectorIN5docan27DoCanPhysicalCanTransceiverINS1_21DoCanNormalAddressingIthtEEEEE4dataEv
FN:416,_ZN3etl7ivectorIN2io11MemoryQueueILm20ELm8EtEEE5clearEv
FN:416,_ZN3etl7ivectorIN4util6memory18BuddyMemoryManager13AcquireResultEE5clearEv
FN:416,_ZN3etl7ivectorIN5docan19DoCanTransportLayerINS1_18DoCanDataLinkLayerIjthLj0EtEEEEE5clearEv
FN:416,_ZN3etl7ivectorIhE5clearEv
FN:416,_ZN3etl7ivectorIN5docan27DoCanPhysicalCanTransceiverINS1_21DoCanNormalAddressingIthtEEEEE5clearEv
FN:416,_ZN3etl7ivectorIN2io17MemoryQueueWriterINS1_11MemoryQueueILm20ELm8EtEEEEE5clearEv
FN:416,_ZN3etl7ivectorIN2io17MemoryQueueReaderINS1_11MemoryQueueILm20ELm8EtEEEEE5clearEv
FN:416,_ZN3etl7ivectorIN9lifecycle16LifecycleManager27ComponentTransitionExecutorEE5clearEv
FN:434,_ZN3etl7ivectorIN4util6memory18BuddyMemoryManager13AcquireResultEE9push_backERKS4_
FN:434,_ZN3etl7ivectorIhE9push_backERKh
FN:464,_ZN3etl7ivectorIN2io17MemoryQueueReaderINS1_11MemoryQueueILm20ELm8EtEEEEE12emplace_backIJRS4_EEERS5_DpOT_
FN:464,_ZN3etl7ivectorIN2io11MemoryQueueILm20ELm8EtEEE12emplace_backIJEEERS3_DpOT_
FN:464,_ZN3etl7ivectorIN9lifecycle16LifecycleManager27ComponentTransitionExecutorEE12emplace_backIJRNS1_19ILifecycleComponentERhRNS6_10Transition4TypeEEEERS3_DpOT_
FN:464,_ZN3etl7ivectorIN2io17MemoryQueueWriterINS1_11MemoryQueueILm20ELm8EtEEEEE12emplace_backIJRS4_EEERS5_DpOT_
FN:464,_ZN3etl7ivectorIN5docan27DoCanPhysicalCanTransceiverINS1_21DoCanNormalAddressingIthtEEEEE12emplace_backIJRN3can15ICanTransceiverERNS8_7IFilterERKNS1_22IDoCanAddressConverterINS1_18DoCanDataLinkLayerIjthLj4294967295EtEEEERKS4_EEERS5_DpOT_
FN:464,_ZN3etl7ivectorIN5docan19DoCanTransportLayerINS1_18DoCanDataLinkLayerIjthLj0EtEEEEE12emplace_backIJRKhNS_17reference_wrapperIS8_EENSA_INS1_22IDoCanAddressConverterIS4_EEEENSA_INS1_25IDoCanPhysicalTransceiverIS4_EEEENSA_INS1_19IDoCanTickGeneratorEEENSA_INS1_25DoCanTransportLayerConfigIS4_EEEES9_EEERS5_DpOT_
FN:977,_ZNK3etl7ivectorIhE4sizeEv
FN:977,_ZNK3etl7ivectorIN5docan27DoCanPhysicalCanTransceiverINS1_21DoCanNormalAddressingIthtEEEEE4sizeEv
FN:977,_ZNK3etl7ivectorIN2io17MemoryQueueWriterINS1_11MemoryQueueILm20ELm8EtEEEEE4sizeEv
FN:977,_ZNK3etl7ivectorIN5docan19DoCanTransportLayerINS1_18DoCanDataLinkLayerIjthLj0EtEEEEE4sizeEv
FN:977,_ZNK3etl7ivectorIN2io17MemoryQueueReaderINS1_11MemoryQueueILm20ELm8EtEEEEE4sizeEv
FN:986,_ZNK3etl7ivectorIN9lifecycle16LifecycleManager27ComponentTransitionExecutorEE5emptyEv
FN:1021,_ZN3etl7ivectorIN9lifecycle16LifecycleManager27ComponentTransitionExecutorEEC2EPS3_m
FN:1021,_ZN3etl7ivectorIN2io17MemoryQueueReaderINS1_11MemoryQueueILm20ELm8EtEEEEEC2EPS5_m
FN:1021,_ZN3etl7ivectorIN2io17MemoryQueueWriterINS1_11MemoryQueueILm20ELm8EtEEEEEC2EPS5_m
FN:1021,_ZN3etl7ivectorIhEC2EPhm
FN:1021,_ZN3etl7ivectorIN2io11MemoryQueueILm20ELm8EtEEEC2EPS3_m
FN:1021,_ZN3etl7ivectorIN4util6memory18BuddyMemoryManager13AcquireResultEEC2EPS4_m
FN:1021,_ZN3etl7ivectorIN5docan27DoCanPhysicalCanTransceiverINS1_21DoCanNormalAddressingIthtEEEEEC2EPS5_m
FN:1021,_ZN3etl7ivectorIN5docan19DoCanTransportLayerINS1_18DoCanDataLinkLayerIjthLj0EtEEEEEC2EPS5_m
FN:1031,_ZN3etl7ivectorIN5docan27DoCanPhysicalCanTransceiverINS1_21DoCanNormalAddressingIthtEEEEE10initialiseEv
FN:1031,_ZN3etl7ivectorIhE10initialiseEv
FN:1031,_ZN3etl7ivectorIN4util6memory18BuddyMemoryManager13AcquireResultEE10initialiseEv
FN:1031,_ZN3etl7ivectorIN2io17MemoryQueueReaderINS1_11MemoryQueueILm20ELm8EtEEEEE10initialiseEv
FN:1031,_ZN3etl7ivectorIN5docan19DoCanTransportLayerINS1_18DoCanDataLinkLayerIjthLj0EtEEEEE10initialiseEv
FN:1031,_ZN3etl7ivectorIN2io17MemoryQueueWriterINS1_11MemoryQueueILm20ELm8EtEEEEE10initialiseEv
FN:1031,_ZN3etl7ivectorIN2io11MemoryQueueILm20ELm8EtEEE10initialiseEv
FN:1031,_ZN3etl7ivectorIN9lifecycle16LifecycleManager27ComponentTransitionExecutorEE10initialiseEv
FN:1075,_ZN3etl7ivectorIN4util6memory18BuddyMemoryManager13AcquireResultEE11create_backERKS4_
FN:1075,_ZN3etl7ivectorIhE11create_backERKh
FN:1222,_ZN3etl6vectorIN2io17MemoryQueueReaderINS1_11MemoryQueueILm20ELm8EtEEEELm8EEC2Ev
FN:1222,_ZN3etl6vectorIN9lifecycle16LifecycleManager27ComponentTransitionExecutorELm4EEC2Ev
FN:1222,_ZN3etl6vectorIN2io11MemoryQueueILm20ELm8EtEELm8EEC2Ev
FN:1222,_ZN3etl6vectorIN5docan27DoCanPhysicalCanTransceiverINS1_21DoCanNormalAddressingIthtEEEELm2EEC2Ev
FN:1222,_ZN3etl6vectorIhLm6EEC2Ev
FN:1222,_ZN3etl6vectorIN9lifecycle16LifecycleManager27ComponentTransitionExecutorELm2EEC2Ev
FN:1222,_ZN3etl6vectorIN5docan19DoCanTransportLayerINS1_18DoCanDataLinkLayerIjthLj0EtEEEELm2EEC2Ev
FN:1222,_ZN3etl6vectorIN2io17MemoryQueueWriterINS1_11MemoryQueueILm20ELm8EtEEEELm8EEC2Ev
FN:1222,_ZN3etl6vectorIN4util6memory18BuddyMemoryManager13AcquireResultELm256EEC2Ev
FN:1222,_ZN3etl6vectorIN9lifecycle16LifecycleManager27ComponentTransitionExecutorELm14EEC2Ev
FN:1347,_ZN3etl6vectorIN5docan19DoCanTransportLayerINS1_18DoCanDataLinkLayerIjthLj0EtEEEELm2EED2Ev
FN:1347,_ZN3etl6vectorIN9lifecycle16LifecycleManager27ComponentTransitionExecutorELm4EED2Ev
FN:1347,_ZN3etl6vectorIN2io17MemoryQueueReaderINS1_11MemoryQueueILm20ELm8EtEEEELm8EED2Ev
FN:1347,_ZN3etl6vectorIN9lifecycle16LifecycleManager27ComponentTransitionExecutorELm14EED2Ev
FN:1347,_ZN3etl6vectorIN9lifecycle16LifecycleManager27ComponentTransitionExecutorELm2EED2Ev
FN:1347,_ZN3etl6vectorIN4util6memory18BuddyMemoryManager13AcquireResultELm256EED2Ev
FN:1347,_ZN3etl6vectorIN2io11MemoryQueueILm20ELm8EtEELm8EED2Ev
FN:1347,_ZN3etl6vectorIN5docan27DoCanPhysicalCanTransceiverINS1_21DoCanNormalAddressingIthtEEEELm2EED2Ev
FN:1347,_ZN3etl6vectorIhLm6EED2Ev
FN:1347,_ZN3etl6vectorIN2io17MemoryQueueWriterINS1_11MemoryQueueILm20ELm8EtEEEELm8EED2Ev
FNDA:16,_ZN3etl7ivectorIN2io17MemoryQueueReaderINS1_11MemoryQueueILm20ELm8EtEEEEE5clearEv
FNDA:9,_ZNK3etl7ivectorIN2io17MemoryQueueReaderINS1_11MemoryQueueILm20ELm8EtEEEEE4sizeEv
FNDA:2,_ZN3etl7ivectorIN5docan19DoCanTransportLayerINS1_18DoCanDataLinkLayerIjthLj0EtEEEEE12emplace_backIJRKhNS_17reference_wrapperIS8_EENSA_INS1_22IDoCanAddressConverterIS4_EEEENSA_INS1_25IDoCanPhysicalTransceiverIS4_EEEENSA_INS1_19IDoCanTickGeneratorEEENSA_INS1_25DoCanTransportLayerConfigIS4_EEEES9_EEERS5_DpOT_
FNDA:1,_ZN3etl7ivectorIN5docan27DoCanPhysicalCanTransceiverINS1_21DoCanNormalAddressingIthtEEEEEC2EPS5_m
FNDA:22,_ZN3etl7ivectorIN2io17MemoryQueueReaderINS1_11MemoryQueueILm20ELm8EtEEEEEixEm
FNDA:2,_ZN3etl7ivectorIN5docan19DoCanTransportLayerINS1_18DoCanDataLinkLayerIjthLj0EtEEEEE4backEv
FNDA:4,_ZN3etl7ivectorIN2io17MemoryQueueReaderINS1_11MemoryQueueILm20ELm8EtEEEEE5beginEv
FNDA:240,_ZN3etl6vectorIhLm6EED2Ev
FNDA:12,_ZN3etl7ivectorIN5docan27DoCanPhysicalCanTransceiverINS1_21DoCanNormalAddressingIthtEEEEE4dataEv
FNDA:1,_ZN3etl6vectorIN9lifecycle16LifecycleManager27ComponentTransitionExecutorELm14EEC2Ev
FNDA:1,_ZN3etl7ivectorIN5docan19DoCanTransportLayerINS1_18DoCanDataLinkLayerIjthLj0EtEEEEEC2EPS5_m
FNDA:2,_ZN3etl7ivectorIN5docan27DoCanPhysicalCanTransceiverINS1_21DoCanNormalAddressingIthtEEEEE4backEv
FNDA:16,_ZNK3etl7ivectorIN9lifecycle16LifecycleManager27ComponentTransitionExecutorEE5emptyEv
FNDA:6,_ZN3etl7ivectorIN5docan19DoCanTransportLayerINS1_18DoCanDataLinkLayerIjthLj0EtEEEEE3endEv
FNDA:9,_ZN3etl7ivectorIhE6resizeEm
FNDA:6,_ZN3etl7ivectorIN5docan19DoCanTransportLayerINS1_18DoCanDataLinkLayerIjthLj0EtEEEEE5beginEv
FNDA:2,_ZN3etl6vectorIN4util6memory18BuddyMemoryManager13AcquireResultELm256EEC2Ev
FNDA:22,_ZN3etl7ivectorIN9lifecycle16LifecycleManager27ComponentTransitionExecutorEE5clearEv
FNDA:29,_ZN3etl7ivectorIN9lifecycle16LifecycleManager27ComponentTransitionExecutorEE10initialiseEv
FNDA:106,_ZN3etl7ivectorIN2io17MemoryQueueWriterINS1_11MemoryQueueILm20ELm8EtEEEEEixEm
FNDA:16,_ZN3etl6vectorIN2io17MemoryQueueWriterINS1_11MemoryQueueILm20ELm8EtEEEELm8EED2Ev
FNDA:128,_ZN3etl7ivectorIN2io17MemoryQueueWriterINS1_11MemoryQueueILm20ELm8EtEEEEE12emplace_backIJRS4_EEERS5_DpOT_
FNDA:85,_ZN3etl7ivectorIhE9push_backERKh
FNDA:32,_ZN3etl7ivectorIN2io17MemoryQueueWriterINS1_11MemoryQueueILm20ELm8EtEEEEE10initialiseEv
FNDA:2,_ZN3etl6vectorIN4util6memory18BuddyMemoryManager13AcquireResultELm256EED2Ev
FNDA:2,_ZN3etl7ivectorIN5docan27DoCanPhysicalCanTransceiverINS1_21DoCanNormalAddressingIthtEEEEE12emplace_backIJRN3can15ICanTransceiverERNS8_7IFilterERKNS1_22IDoCanAddressConverterINS1_18DoCanDataLinkLayerIjthLj4294967295EtEEEERKS4_EEERS5_DpOT_
FNDA:16,_ZN3etl6vectorIN2io11MemoryQueueILm20ELm8EtEELm8EED2Ev
FNDA:31,_ZNK3etl7ivectorIhEixEm
FNDA:2,_ZN3etl7ivectorIN4util6memory18BuddyMemoryManager13AcquireResultEEC2EPS4_m
FNDA:246,_ZN3etl7ivectorIhE5clearEv
FNDA:2,_ZN3etl7ivectorIN5docan19DoCanTransportLayerINS1_18DoCanDataLinkLayerIjthLj0EtEEEEE10initialiseEv
FNDA:14,_ZN3etl7ivectorIN5docan19DoCanTransportLayerINS1_18DoCanDataLinkLayerIjthLj0EtEEEEE4dataEv
FNDA:128,_ZN3etl7ivectorIN2io17MemoryQueueReaderINS1_11MemoryQueueILm20ELm8EtEEEEE4backEv
FNDA:16,_ZN3etl7ivectorIN2io17MemoryQueueWriterINS1_11MemoryQueueILm20ELm8EtEEEEE5clearEv
FNDA:16,_ZN3etl6vectorIN2io17MemoryQueueWriterINS1_11MemoryQueueILm20ELm8EtEEEELm8EEC2Ev
FNDA:32,_ZN3etl7ivectorIN2io11MemoryQueueILm20ELm8EtEEE10initialiseEv
FNDA:1,_ZN3etl7ivectorIN5docan27DoCanPhysicalCanTransceiverINS1_21DoCanNormalAddressingIthtEEEEE5clearEv
FNDA:1,_ZN3etl6vectorIN5docan27DoCanPhysicalCanTransceiverINS1_21DoCanNormalAddressingIthtEEEELm2EED2Ev
FNDA:2,_ZN3etl7ivectorIN4util6memory18BuddyMemoryManager13AcquireResultEE3endEv
FNDA:9,_ZN3etl7ivectorIhE6resizeEmRKh
FNDA:1,_ZN3etl6vectorIN5docan19DoCanTransportLayerINS1_18DoCanDataLinkLayerIjthLj0EtEEEELm2EEC2Ev
FNDA:1,_ZN3etl7ivectorIN2io17MemoryQueueWriterINS1_11MemoryQueueILm20ELm8EtEEEEE5beginEv
FNDA:53,_ZN3etl7ivectorIN9lifecycle16LifecycleManager27ComponentTransitionExecutorEE4backEv
FNDA:7,_ZNK3etl7ivectorIN5docan19DoCanTransportLayerINS1_18DoCanDataLinkLayerIjthLj0EtEEEEE4sizeEv
FNDA:3,_ZN3etl6vectorIN9lifecycle16LifecycleManager27ComponentTransitionExecutorELm2EEC2Ev
FNDA:18,_ZN3etl7ivectorIN4util6memory18BuddyMemoryManager13AcquireResultEE11create_backERKS4_
FNDA:128,_ZN3etl7ivectorIN2io11MemoryQueueILm20ELm8EtEEE12emplace_backIJEEERS3_DpOT_
FNDA:1,_ZN3etl7ivectorIN2io17MemoryQueueWriterINS1_11MemoryQueueILm20ELm8EtEEEEE3endEv
FNDA:18,_ZN3etl7ivectorIN4util6memory18BuddyMemoryManager13AcquireResultEE9push_backERKS4_
FNDA:16,_ZN3etl6vectorIN2io11MemoryQueueILm20ELm8EtEELm8EEC2Ev
FNDA:18,_ZNK3etl7ivectorIN2io17MemoryQueueWriterINS1_11MemoryQueueILm20ELm8EtEEEEE4sizeEv
FNDA:1,_ZN3etl6vectorIN5docan27DoCanPhysicalCanTransceiverINS1_21DoCanNormalAddressingIthtEEEELm2EEC2Ev
FNDA:2,_ZN3etl7ivectorIN4util6memory18BuddyMemoryManager13AcquireResultEE5beginEv
FNDA:250,_ZN3etl6vectorIhLm6EEC2Ev
FNDA:1,_ZN3etl6vectorIN9lifecycle16LifecycleManager27ComponentTransitionExecutorELm14EED2Ev
FNDA:53,_ZN3etl7ivectorIN9lifecycle16LifecycleManager27ComponentTransitionExecutorEE12emplace_backIJRNS1_19ILifecycleComponentERhRNS6_10Transition4TypeEEEERS3_DpOT_
FNDA:85,_ZN3etl7ivectorIhE11create_backERKh
FNDA:1,_ZN3etl7ivectorIN5docan19DoCanTransportLayerINS1_18DoCanDataLinkLayerIjthLj0EtEEEEE5clearEv
FNDA:1515,_ZN3etl7ivectorIhEixEm
FNDA:3,_ZN3etl6vectorIN9lifecycle16LifecycleManager27ComponentTransitionExecutorELm2EED2Ev
FNDA:16,_ZN3etl7ivectorIN2io11MemoryQueueILm20ELm8EtEEEC2EPS3_m
FNDA:16,_ZN3etl7ivectorIN2io11MemoryQueueILm20ELm8EtEEE5clearEv
FNDA:2,_ZN3etl7ivectorIN4util6memory18BuddyMemoryManager13AcquireResultEE5clearEv
FNDA:6,_ZNK3etl7ivectorIN5docan27DoCanPhysicalCanTransceiverINS1_21DoCanNormalAddressingIthtEEEEE4sizeEv
FNDA:68,_ZN3etl7ivectorIN9lifecycle16LifecycleManager27ComponentTransitionExecutorEE5beginEv
FNDA:496,_ZN3etl7ivectorIhE10initialiseEv
FNDA:4,_ZN3etl7ivectorIN2io17MemoryQueueReaderINS1_11MemoryQueueILm20ELm8EtEEEEE3endEv
FNDA:128,_ZN3etl7ivectorIN2io17MemoryQueueWriterINS1_11MemoryQueueILm20ELm8EtEEEEE4backEv
FNDA:128,_ZN3etl7ivectorIN2io17MemoryQueueReaderINS1_11MemoryQueueILm20ELm8EtEEEEE12emplace_backIJRS4_EEERS5_DpOT_
FNDA:428,_ZNK3etl7ivectorIhE4sizeEv
FNDA:16,_ZN3etl6vectorIN2io17MemoryQueueReaderINS1_11MemoryQueueILm20ELm8EtEEEELm8EEC2Ev
FNDA:7,_ZN3etl7ivectorIN9lifecycle16LifecycleManager27ComponentTransitionExecutorEEC2EPS3_m
FNDA:2,_ZN3etl7ivectorIN5docan27DoCanPhysicalCanTransceiverINS1_21DoCanNormalAddressingIthtEEEEE10initialiseEv
FNDA:256,_ZN3etl7ivectorIN2io11MemoryQueueILm20ELm8EtEEEixEm
FNDA:16,_ZN3etl7ivectorIN2io17MemoryQueueWriterINS1_11MemoryQueueILm20ELm8EtEEEEEC2EPS5_m
FNDA:32,_ZN3etl7ivectorIN2io17MemoryQueueReaderINS1_11MemoryQueueILm20ELm8EtEEEEE10initialiseEv
FNDA:1,_ZN3etl6vectorIN5docan19DoCanTransportLayerINS1_18DoCanDataLinkLayerIjthLj0EtEEEELm2EED2Ev
FNDA:3,_ZN3etl6vectorIN9lifecycle16LifecycleManager27ComponentTransitionExecutorELm4EEC2Ev
FNDA:3,_ZN3etl6vectorIN9lifecycle16LifecycleManager27ComponentTransitionExecutorELm4EED2Ev
FNDA:68,_ZN3etl7ivectorIN9lifecycle16LifecycleManager27ComponentTransitionExecutorEE3endEv
FNDA:16,_ZN3etl6vectorIN2io17MemoryQueueReaderINS1_11MemoryQueueILm20ELm8EtEEEELm8EED2Ev
FNDA:250,_ZN3etl7ivectorIhEC2EPhm
FNDA:128,_ZN3etl7ivectorIN2io11MemoryQueueILm20ELm8EtEEE4backEv
FNDA:16,_ZN3etl7ivectorIN2io17MemoryQueueReaderINS1_11MemoryQueueILm20ELm8EtEEEEEC2EPS5_m
FNDA:4,_ZN3etl7ivectorIN4util6memory18BuddyMemoryManager13AcquireResultEE10initialiseEv
FNF:85
FNH:85
DA:99,81
DA:101,81
DA:117,81
DA:119,81
DA:209,9
DA:211,9
DA:212,9
DA:221,9
DA:223,9
DA:225,9
DA:226,9
DA:228,9
DA:230,1
DA:235,8
DA:239,9
DA:240,9
DA:280,1899
DA:282,1899
DA:290,31
DA:292,31
DA:341,441
DA:343,441
DA:359,26
DA:361,26
DA:416,320
DA:418,320
DA:419,320
DA:434,103
DA:439,103
DA:440,103
DA:464,441
DA:469,441
DA:470,441
DA:472,441
DA:977,468
DA:979,468
DA:986,16
DA:988,16
DA:1021,309
DA:1023,309
DA:1024,309
DA:1026,309
DA:1031,629
DA:1039,133
DA:1043,629
DA:1044,629
DA:1075,103
DA:1077,103
DA:1080,103
DA:1081,103
DA:1222,309
DA:1223,309
DA:1225,309
DA:1226,309
DA:1347,299
DA:1349,299
DA:1350,299
LF:57
LH:57
end_of_record
TN:
SF:/home/jenkins/libs/bsp/bspCharInputOutput/include/charInputOutput/bspIoStd.h
FN:31,do_div_hlp
FNDA:0,do_div_hlp
FNF:1
FNH:0
DA:31,0
DA:33,0
DA:35,0
DA:37,0
LF:4
LH:0
end_of_record
TN:
SF:/home/jenkins/libs/bsp/bspDynamicClient/include/io/DynamicClientCfg.h
FN:99,_ZN13dynamicClientItN17DynamicClientTest18IDynamicTestClientELi3ELi3ELi0EE17getClientInstanceEt
FN:104,_ZN13dynamicClientItN17DynamicClientTest18IDynamicTestClientELi3ELi3ELi0EE22getChannelInsideClientEt
FN:188,_ZN13dynamicClientItN17DynamicClientTest18IDynamicTestClientELi3ELi3ELi0EE16setDynamicClientEttPS1_
FNDA:3,_ZN13dynamicClientItN17DynamicClientTest18IDynamicTestClientELi3ELi3ELi0EE22getChannelInsideClientEt
FNDA:3,_ZN13dynamicClientItN17DynamicClientTest18IDynamicTestClientELi3ELi3ELi0EE16setDynamicClientEttPS1_
FNDA:3,_ZN13dynamicClientItN17DynamicClientTest18IDynamicTestClientELi3ELi3ELi0EE17getClientInstanceEt
FNF:3
FNH:3
DA:99,3
DA:101,3
DA:104,3
DA:106,3
DA:188,3
DA:192,3
DA:194,0
DA:197,3
DA:199,3
DA:200,3
DA:201,20
DA:203,17
DA:205,1
DA:207,17
DA:209,15
DA:211,2
DA:216,3
DA:218,2
DA:220,2
DA:224,0
DA:229,1
DA:232,3
DA:233,3
DA:234,3
DA:238,0
LF:25
LH:22
end_of_record
TN:
SF:/home/jenkins/libs/bsp/bspInterrupts/include/interrupts/SuspendResumeAllInterruptsLock.h
FN:16,_ZN10interrupts30SuspendResumeAllInterruptsLock7suspendEv
FN:25,_ZN10interrupts30SuspendResumeAllInterruptsLock6resumeEv
FNDA:1,_ZN10interrupts30SuspendResumeAllInterruptsLock6resumeEv
FNDA:1,_ZN10interrupts30SuspendResumeAllInterruptsLock7suspendEv
FNF:2
FNH:2
DA:16,1
DA:18,1
DA:19,1
DA:25,1
LF:4
LH:4
end_of_record
TN:
SF:/home/jenkins/libs/bsp/bspInterrupts/include/interrupts/SuspendResumeAllInterruptsScopedLock.h
FN:17,_ZN10interrupts36SuspendResumeAllInterruptsScopedLockC2Ev
FN:25,_ZN10interrupts36SuspendResumeAllInterruptsScopedLockD2Ev
FNDA:8374,_ZN10interrupts36SuspendResumeAllInterruptsScopedLockD2Ev
FNDA:8374,_ZN10interrupts36SuspendResumeAllInterruptsScopedLockC2Ev
FNF:2
FNH:2
DA:17,8374
DA:18,8374
DA:19,8374
DA:25,8374
LF:4
LH:4
end_of_record
TN:
SF:/home/jenkins/libs/bsw/async/include/async/util/Call.h
FN:48,_ZN5async4CallIN3etl7closureIFvPN3uds22IncomingDiagConnectionEPKhtEEEEC2ERKS9_
FN:48,_ZN5async4CallIN3etl7closureIFvtjEEEEC2ERKS4_
FN:48,_ZN5async4CallIN3etl8delegateIFvvEEEEC2ERKS4_
FN:48,_ZN5async4CallIN3etl7closureIFvtPN3uds15AbstractDiagJobEEEEEC2ERKS7_
FN:48,_ZN5async4CallIN3etl7closureIFvhPN3uds15AbstractDiagJobEEEEEC2ERKS7_
FN:48,_ZN5async4CallIN3etl7closureIFvPN9transport16TransportMessageENS3_34ITransportMessageProcessedListener16ProcessingResultEEEEEC2ERKS9_
FN:52,_ZN5async4CallIN3etl7closureIFvtPN3uds15AbstractDiagJobEEEEE7executeEv
FN:52,_ZN5async4CallIN3etl7closureIFvhPN3uds15AbstractDiagJobEEEEE7executeEv
FN:52,_ZN5async4CallIN3etl7closureIFvPN9transport16TransportMessageENS3_34ITransportMessageProcessedListener16ProcessingResultEEEEE7executeEv
FN:52,_ZN5async4CallIN3etl7closureIFvPN3uds22IncomingDiagConnectionEPKhtEEEE7executeEv
FN:52,_ZN5async4CallIN3etl7closureIFvtjEEEE7executeEv
FN:52,_ZN5async4CallIN3etl8delegateIFvvEEEE7executeEv
FNDA:9,_ZN5async4CallIN3etl7closureIFvPN3uds22IncomingDiagConnectionEPKhtEEEEC2ERKS9_
FNDA:1,_ZN5async4CallIN3etl7closureIFvtjEEEEC2ERKS4_
FNDA:20,_ZN5async4CallIN3etl7closureIFvtPN3uds15AbstractDiagJobEEEEE7executeEv
FNDA:270,_ZN5async4CallIN3etl7closureIFvtPN3uds15AbstractDiagJobEEEEEC2ERKS7_
FNDA:6,_ZN5async4CallIN3etl7closureIFvhPN3uds15AbstractDiagJobEEEEE7executeEv
FNDA:462,_ZN5async4CallIN3etl8delegateIFvvEEEEC2ERKS4_
FNDA:3,_ZN5async4CallIN3etl7closureIFvPN9transport16TransportMessageENS3_34ITransportMessageProcessedListener16ProcessingResultEEEEE7executeEv
FNDA:33,_ZN5async4CallIN3etl8delegateIFvvEEEE7executeEv
FNDA:1,_ZN5async4CallIN3etl7closureIFvtjEEEE7executeEv
FNDA:2,_ZN5async4CallIN3etl7closureIFvPN3uds22IncomingDiagConnectionEPKhtEEEE7executeEv
FNDA:253,_ZN5async4CallIN3etl7closureIFvPN9transport16TransportMessageENS3_34ITransportMessageProcessedListener16ProcessingResultEEEEEC2ERKS9_
FNDA:256,_ZN5async4CallIN3etl7closureIFvhPN3uds15AbstractDiagJobEEEEEC2ERKS7_
FNF:12
FNH:12
DA:48,1251
DA:49,1251
DA:52,65
DA:54,65
DA:55,65
LF:5
LH:5
end_of_record
TN:
SF:/home/jenkins/libs/bsw/async/include/async/util/MemberCall.h
FN:26,_ZN5async10MemberCallIN5docan19DoCanTransportLayerINS1_18DoCanDataLinkLayerIjthLj4294967295EtEEEEXadL_ZNS5_15processShutdownEvEEEC2ERS5_
FN:26,_ZN5async10MemberCallIN5docan13DoCanReceiverINS1_18DoCanDataLinkLayerIjthLj0EtEEEEXadL_ZNS5_23processMessageReceiversEvEEEC2ERS5_
FN:26,_ZN5async10MemberCallIN5docan13DoCanReceiverINS1_18DoCanDataLinkLayerIjthLj4294967295EtEEEEXadL_ZNS5_23processMessageReceiversEvEEEC2ERS5_
FN:26,_ZN5async10MemberCallIN5docan16DoCanTransmitterIN12_GLOBAL__N_128SmallFrameIndexDataLinkLayerEEEXadL_ZNS5_26processMessageTransmittersEvEEEC2ERS5_
FN:26,_ZN5async10MemberCallIN5docan19DoCanTransportLayerINS1_18DoCanDataLinkLayerIjthLj0EtEEEEXadL_ZNS5_15processShutdownEvEEEC2ERS5_
FN:26,_ZN5async10MemberCallIN5docan16DoCanTransmitterINS1_18DoCanDataLinkLayerIjthLj0EtEEEEXadL_ZNS5_26processMessageTransmittersEvEEEC2ERS5_
FN:26,_ZN5async10MemberCallIN5docan16DoCanTransmitterINS1_18DoCanDataLinkLayerIjthLj4294967295EtEEEEXadL_ZNS5_26processMessageTransmittersEvEEEC2ERS5_
FN:26,_ZN5async10MemberCallIN5docan16DoCanTransmitterIN12_GLOBAL__N_113DataLinkLayerEEEXadL_ZNS5_26processMessageTransmittersEvEEEC2ERS5_
FN:26,_ZN5async10MemberCallIN5docan13DoCanReceiverIN12_GLOBAL__N_113DataLinkLayerEEEXadL_ZNS5_23processMessageReceiversEvEEEC2ERS5_
FN:29,_ZN5async10MemberCallIN5docan13DoCanReceiverINS1_18DoCanDataLinkLayerIjthLj4294967295EtEEEEXadL_ZNS5_23processMessageReceiversEvEEE7executeEv
FN:29,_ZN5async10MemberCallIN5docan16DoCanTransmitterINS1_18DoCanDataLinkLayerIjthLj0EtEEEEXadL_ZNS5_26processMessageTransmittersEvEEE7executeEv
FN:29,_ZN5async10MemberCallIN5docan19DoCanTransportLayerINS1_18DoCanDataLinkLayerIjthLj0EtEEEEXadL_ZNS5_15processShutdownEvEEE7executeEv
FN:29,_ZN5async10MemberCallIN5docan13DoCanReceiverINS1_18DoCanDataLinkLayerIjthLj0EtEEEEXadL_ZNS5_23processMessageReceiversEvEEE7executeEv
FN:29,_ZN5async10MemberCallIN5docan16DoCanTransmitterIN12_GLOBAL__N_128SmallFrameIndexDataLinkLayerEEEXadL_ZNS5_26processMessageTransmittersEvEEE7executeEv
FN:29,_ZN5async10MemberCallIN5docan16DoCanTransmitterINS1_18DoCanDataLinkLayerIjthLj4294967295EtEEEEXadL_ZNS5_26processMessageTransmittersEvEEE7executeEv
FN:29,_ZN5async10MemberCallIN5docan16DoCanTransmitterIN12_GLOBAL__N_113DataLinkLayerEEEXadL_ZNS5_26processMessageTransmittersEvEEE7executeEv
FN:29,_ZN5async10MemberCallIN5docan13DoCanReceiverIN12_GLOBAL__N_113DataLinkLayerEEEXadL_ZNS5_23processMessageReceiversEvEEE7executeEv
FN:29,_ZN5async10MemberCallIN5docan19DoCanTransportLayerINS1_18DoCanDataLinkLayerIjthLj4294967295EtEEEEXadL_ZNS5_15processShutdownEvEEE7executeEv
FNDA:1,_ZN5async10MemberCallIN5docan16DoCanTransmitterINS1_18DoCanDataLinkLayerIjthLj4294967295EtEEEEXadL_ZNS5_26processMessageTransmittersEvEEEC2ERS5_
FNDA:5,_ZN5async10MemberCallIN5docan13DoCanReceiverIN12_GLOBAL__N_113DataLinkLayerEEEXadL_ZNS5_23processMessageReceiversEvEEE7executeEv
FNDA:23,_ZN5async10MemberCallIN5docan16DoCanTransmitterIN12_GLOBAL__N_113DataLinkLayerEEEXadL_ZNS5_26processMessageTransmittersEvEEEC2ERS5_
FNDA:24,_ZN5async10MemberCallIN5docan13DoCanReceiverIN12_GLOBAL__N_113DataLinkLayerEEEXadL_ZNS5_23processMessageReceiversEvEEEC2ERS5_
FNDA:0,_ZN5async10MemberCallIN5docan19DoCanTransportLayerINS1_18DoCanDataLinkLayerIjthLj4294967295EtEEEEXadL_ZNS5_15processShutdownEvEEE7executeEv
FNDA:3,_ZN5async10MemberCallIN5docan13DoCanReceiverINS1_18DoCanDataLinkLayerIjthLj0EtEEEEXadL_ZNS5_23processMessageReceiversEvEEE7executeEv
FNDA:0,_ZN5async10MemberCallIN5docan16DoCanTransmitterIN12_GLOBAL__N_128SmallFrameIndexDataLinkLayerEEEXadL_ZNS5_26processMessageTransmittersEvEEE7executeEv
FNDA:0,_ZN5async10MemberCallIN5docan16DoCanTransmitterINS1_18DoCanDataLinkLayerIjthLj4294967295EtEEEEXadL_ZNS5_26processMessageTransmittersEvEEE7executeEv
FNDA:55,_ZN5async10MemberCallIN5docan16DoCanTransmitterIN12_GLOBAL__N_113DataLinkLayerEEEXadL_ZNS5_26processMessageTransmittersEvEEE7executeEv
FNDA:4,_ZN5async10MemberCallIN5docan19DoCanTransportLayerINS1_18DoCanDataLinkLayerIjthLj0EtEEEEXadL_ZNS5_15processShutdownEvEEE7executeEv
FNDA:4,_ZN5async10MemberCallIN5docan13DoCanReceiverINS1_18DoCanDataLinkLayerIjthLj0EtEEEEXadL_ZNS5_23processMessageReceiversEvEEEC2ERS5_
FNDA:1,_ZN5async10MemberCallIN5docan13DoCanReceiverINS1_18DoCanDataLinkLayerIjthLj4294967295EtEEEEXadL_ZNS5_23processMessageReceiversEvEEEC2ERS5_
FNDA:1,_ZN5async10MemberCallIN5docan16DoCanTransmitterIN12_GLOBAL__N_128SmallFrameIndexDataLinkLayerEEEXadL_ZNS5_26processMessageTransmittersEvEEEC2ERS5_
FNDA:4,_ZN5async10MemberCallIN5docan19DoCanTransportLayerINS1_18DoCanDataLinkLayerIjthLj0EtEEEEXadL_ZNS5_15processShutdownEvEEEC2ERS5_
FNDA:4,_ZN5async10MemberCallIN5docan16DoCanTransmitterINS1_18DoCanDataLinkLayerIjthLj0EtEEEEXadL_ZNS5_26processMessageTransmittersEvEEEC2ERS5_
FNDA:1,_ZN5async10MemberCallIN5docan19DoCanTransportLayerINS1_18DoCanDataLinkLayerIjthLj4294967295EtEEEEXadL_ZNS5_15processShutdownEvEEEC2ERS5_
FNDA:0,_ZN5async10MemberCallIN5docan13DoCanReceiverINS1_18DoCanDataLinkLayerIjthLj4294967295EtEEEEXadL_ZNS5_23processMessageReceiversEvEEE7executeEv
FNDA:4,_ZN5async10MemberCallIN5docan16DoCanTransmitterINS1_18DoCanDataLinkLayerIjthLj0EtEEEEXadL_ZNS5_26processMessageTransmittersEvEEE7executeEv
FNF:18
FNH:14
DA:26,63
DA:29,71
LF:2
LH:2
end_of_record
TN:
SF:/home/jenkins/libs/bsw/asyncConsole/src/console/AsyncCommandWrapper.cpp
FN:11,_ZN7console19AsyncCommandWrapperC2ERN4util7command8ICommandEh
FN:18,_ZNK7console19AsyncCommandWrapper5getIdEv
FN:20,_ZNK7console19AsyncCommandWrapper7getHelpERN4util7command8ICommand13IHelpCallbackE
FN:25,_ZN7console19AsyncCommandWrapper7executeERKN4util6string11ConstStringEPNS1_6stream19ISharedOutputStreamE
FN:37,_ZN7console19AsyncCommandWrapper7executeEv
FNDA:0,_ZN7console19AsyncCommandWrapper7executeERKN4util6string11ConstStringEPNS1_6stream19ISharedOutputStreamE
FNDA:0,_ZNK7console19AsyncCommandWrapper7getHelpERN4util7command8ICommand13IHelpCallbackE
FNDA:1,_ZN7console19AsyncCommandWrapperC2ERN4util7command8ICommandEh
FNDA:0,_ZN7console19AsyncCommandWrapper7executeEv
FNDA:1,_ZNK7console19AsyncCommandWrapper5getIdEv
FNF:5
FNH:2
DA:11,1
DA:12,1
DA:13,1
DA:15,1
DA:16,1
DA:18,1
DA:20,0
DA:22,0
DA:23,0
DA:25,0
DA:29,0
DA:30,0
DA:32,0
DA:34,0
DA:37,0
DA:40,0
DA:41,0
DA:42,0
LF:18
LH:6
end_of_record
TN:
SF:/home/jenkins/libs/bsw/asyncConsole/src/console/AsyncConsole.cpp
FN:16,_ZN12_GLOBAL__N_116getParentCommandEv
FN:28,_ZN7console12AsyncConsoleC2Ev
FN:35,_ZN7console12AsyncConsole10addCommandERN4util7command8ICommandE
FN:40,_ZN7console12AsyncConsole15commandExecutedEN4util7command8ICommand13ExecuteResultE
FN:45,_ZN7console12AsyncConsole14onLineReceivedERN4util6stream19ISharedOutputStreamERKN3etl13ibasic_stringIcEERKNS5_8delegateIFvvEEE
FN:72,_ZN7console12AsyncConsole9terminateEN4util7command8ICommand13ExecuteResultE
FNDA:0,_ZN7console12AsyncConsole9terminateEN4util7command8ICommand13ExecuteResultE
FNDA:1,_ZN12_GLOBAL__N_116getParentCommandEv
FNDA:0,_ZN7console12AsyncConsoleC2Ev
FNDA:0,_ZN7console12AsyncConsole15commandExecutedEN4util7command8ICommand13ExecuteResultE
FNDA:1,_ZN7console12AsyncConsole10addCommandERN4util7command8ICommandE
FNDA:0,_ZN7console12AsyncConsole14onLineReceivedERN4util6stream19ISharedOutputStreamERKN3etl13ibasic_stringIcEERKNS5_8delegateIFvvEEE
FNF:6
FNH:2
DA:16,1
DA:18,1
DA:19,1
DA:28,0
DA:29,0
DA:31,0
DA:32,0
DA:33,0
DA:35,1
DA:37,1
DA:38,1
DA:40,0
DA:42,0
DA:43,0
DA:45,0
DA:50,0
DA:51,0
DA:53,0
DA:54,0
DA:57,0
DA:59,0
DA:61,0
DA:64,0
DA:66,0
DA:67,0
DA:69,0
DA:70,0
DA:72,0
DA:74,0
DA:76,0
DA:78,0
DA:80,0
DA:82,0
DA:83,0
DA:84,0
DA:86,0
DA:88,0
DA:89,0
DA:90,0
DA:93,0
DA:96,0
DA:97,0
DA:98,0
DA:99,0
LF:44
LH:6
end_of_record
TN:
SF:/home/jenkins/libs/bsw/asyncConsole/src/console/SyncCommandWrapper.cpp
FN:9,_ZN7console18SyncCommandWrapperC2ERN4util7command8ICommandE
FN:14,_ZNK7console18SyncCommandWrapper5getIdEv
FN:16,_ZNK7console18SyncCommandWrapper7getHelpERN4util7command8ICommand13IHelpCallbackE
FN:21,_ZN7console18SyncCommandWrapper7executeERKN4util6string11ConstStringEPNS1_6stream19ISharedOutputStreamE
FNDA:0,_ZN7console18SyncCommandWrapper7executeERKN4util6string11ConstStringEPNS1_6stream19ISharedOutputStreamE
FNDA:0,_ZNK7console18SyncCommandWrapper7getHelpERN4util7command8ICommand13IHelpCallbackE
FNDA:0,_ZNK7console18SyncCommandWrapper5getIdEv
FNDA:0,_ZN7console18SyncCommandWrapperC2ERN4util7command8ICommandE
FNF:4
FNH:0
DA:9,0
DA:11,0
DA:12,0
DA:14,0
DA:16,0
DA:18,0
DA:19,0
DA:21,0
DA:26,0
DA:27,0
DA:28,0
LF:11
LH:0
end_of_record
TN:
SF:/home/jenkins/libs/bsw/asyncFreeRtos/include/async/FreeRtosAdapter.h
FN:259,_ZN5async15FreeRtosAdapterINS_12AsyncBindingEE13getTaskMemoryILh0EEEvPP12StaticTask_tPPmPj
FN:259,_ZN5async15FreeRtosAdapterINS_12AsyncBindingEE13getTaskMemoryILh3EEEvPP12StaticTask_tPPmPj
FN:276,_ZN5async15FreeRtosAdapterIN12_GLOBAL__N_111TestBindingEE11getTaskNameEm
FN:276,_ZN5async15FreeRtosAdapterINS_12AsyncBindingEE11getTaskNameEm
FN:282,_ZN5async15FreeRtosAdapterINS_12AsyncBindingEE13getTaskHandleEm
FN:289,_ZN5async15FreeRtosAdapterINS_12AsyncBindingEE13getTaskConfigEm
FN:295,_ZN5async15FreeRtosAdapterINS_12AsyncBindingEE21getCurrentTaskContextEv
FN:295,_ZN5async15FreeRtosAdapterIN12_GLOBAL__N_111TestBindingEE21getCurrentTaskContextEv
FN:305,_ZN5async15FreeRtosAdapterINS_12AsyncBindingEE8initTaskERNS_8internal15TaskInitializerIS2_EE
FN:305,_ZN5async15FreeRtosAdapterIN12_GLOBAL__N_111TestBindingEE8initTaskERNS_8internal15TaskInitializerIS3_EE
FN:338,_ZN5async15FreeRtosAdapterINS_12AsyncBindingEE3runEN3etl8delegateIFvvEEE
FN:338,_ZN5async15FreeRtosAdapterIN12_GLOBAL__N_111TestBindingEE3runEN3etl8delegateIFvvEEE
FN:346,_ZN5async15FreeRtosAdapterINS_12AsyncBindingEE11runningHookEv
FN:353,_ZN5async15FreeRtosAdapterIN12_GLOBAL__N_111TestBindingEE13getStackUsageEmRNS3_10StackUsageE
FN:369,_ZN5async15FreeRtosAdapterINS_12AsyncBindingEE20callIdleTaskFunctionEv
FN:375,_ZN5async15FreeRtosAdapterINS_12AsyncBindingEE7executeEhRNS_9IRunnableE
FN:375,_ZN5async15FreeRtosAdapterIN12_GLOBAL__N_111TestBindingEE7executeEhRNS_9IRunnableE
FN:381,_ZN5async15FreeRtosAdapterINS_12AsyncBindingEE8scheduleEhRNS_9IRunnableERNS_11TimeoutTypeEjNS_8TimeUnit4TypeE
FN:381,_ZN5async15FreeRtosAdapterIN12_GLOBAL__N_111TestBindingEE8scheduleEhRNS_9IRunnableERNS_11TimeoutTypeEjNS_8TimeUnit4TypeE
FN:392,_ZN5async15FreeRtosAdapterIN12_GLOBAL__N_111TestBindingEE19scheduleAtFixedRateEhRNS_9IRunnableERNS_11TimeoutTypeEjNS_8TimeUnit4TypeE
FN:392,_ZN5async15FreeRtosAdapterINS_12AsyncBindingEE19scheduleAtFixedRateEhRNS_9IRunnableERNS_11TimeoutTypeEjNS_8TimeUnit4TypeE
FN:403,_ZN5async15FreeRtosAdapterINS_12AsyncBindingEE6cancelERNS_11TimeoutTypeE
FN:403,_ZN5async15FreeRtosAdapterIN12_GLOBAL__N_111TestBindingEE6cancelERNS_11TimeoutTypeE
FN:415,_ZN5async15FreeRtosAdapterINS_12AsyncBindingEE26getHigherPriorityTaskWokenEv
FN:415,_ZN5async15FreeRtosAdapterIN12_GLOBAL__N_111TestBindingEE26getHigherPriorityTaskWokenEv
FN:421,_ZN5async15FreeRtosAdapterINS_12AsyncBindingEE8enterIsrEv
FN:421,_ZN5async15FreeRtosAdapterIN12_GLOBAL__N_111TestBindingEE8enterIsrEv
FN:429,_ZN5async15FreeRtosAdapterIN12_GLOBAL__N_111TestBindingEE8leaveIsrEv
FN:429,_ZN5async15FreeRtosAdapterINS_12AsyncBindingEE8leaveIsrEv
FN:445,_ZN5async15FreeRtosAdapterINS_12AsyncBindingEE15leaveIsrNoYieldEv
FN:445,_ZN5async15FreeRtosAdapterIN12_GLOBAL__N_111TestBindingEE15leaveIsrNoYieldEv
FN:462,_ZN5async15FreeRtosAdapterIN12_GLOBAL__N_111TestBindingEE10StackUsageC2Ev
FN:471,_ZN5async8internal16TaskConfigHolderILm4EiE13setTaskConfigEmRKi
FN:478,_ZN5async8internal16TaskConfigHolderILm4EiE13getTaskConfigEm
FN:484,_ZN5async8internal16TaskConfigHolderILm4EvE13setTaskConfigEmRKNS2_14TaskConfigTypeE
FN:491,_ZN5async8internal16TaskConfigHolderILm4EvE13getTaskConfigEm
FNDA:2,_ZN5async15FreeRtosAdapterIN12_GLOBAL__N_111TestBindingEE11getTaskNameEm
FNDA:1,_ZN5async15FreeRtosAdapterIN12_GLOBAL__N_111TestBindingEE10StackUsageC2Ev
FNDA:4,_ZN5async15FreeRtosAdapterINS_12AsyncBindingEE8enterIsrEv
FNDA:1,_ZN5async15FreeRtosAdapterINS_12AsyncBindingEE19scheduleAtFixedRateEhRNS_9IRunnableERNS_11TimeoutTypeEjNS_8TimeUnit4TypeE
FNDA:6,_ZN5async15FreeRtosAdapterINS_12AsyncBindingEE21getCurrentTaskContextEv
FNDA:3,_ZN5async15FreeRtosAdapterIN12_GLOBAL__N_111TestBindingEE13getStackUsageEmRNS3_10StackUsageE
FNDA:1,_ZN5async8internal16TaskConfigHolderILm4EiE13setTaskConfigEmRKi
FNDA:1,_ZN5async15FreeRtosAdapterINS_12AsyncBindingEE8scheduleEhRNS_9IRunnableERNS_11TimeoutTypeEjNS_8TimeUnit4TypeE
FNDA:1,_ZN5async15FreeRtosAdapterIN12_GLOBAL__N_111TestBindingEE19scheduleAtFixedRateEhRNS_9IRunnableERNS_11TimeoutTypeEjNS_8TimeUnit4TypeE
FNDA:6,_ZN5async15FreeRtosAdapterIN12_GLOBAL__N_111TestBindingEE8enterIsrEv
FNDA:2,_ZN5async15FreeRtosAdapterINS_12AsyncBindingEE6cancelERNS_11TimeoutTypeE
FNDA:5,_ZN5async15FreeRtosAdapterIN12_GLOBAL__N_111TestBindingEE3runEN3etl8delegateIFvvEEE
FNDA:3,_ZN5async15FreeRtosAdapterIN12_GLOBAL__N_111TestBindingEE8leaveIsrEv
FNDA:3,_ZN5async15FreeRtosAdapterINS_12AsyncBindingEE3runEN3etl8delegateIFvvEEE
FNDA:9,_ZN5async15FreeRtosAdapterINS_12AsyncBindingEE26getHigherPriorityTaskWokenEv
FNDA:1,_ZN5async15FreeRtosAdapterIN12_GLOBAL__N_111TestBindingEE7executeEhRNS_9IRunnableE
FNDA:2,_ZN5async15FreeRtosAdapterINS_12AsyncBindingEE15leaveIsrNoYieldEv
FNDA:1,_ZN5async15FreeRtosAdapterINS_12AsyncBindingEE7executeEhRNS_9IRunnableE
FNDA:1,_ZN5async15FreeRtosAdapterINS_12AsyncBindingEE13getTaskMemoryILh0EEEvPP12StaticTask_tPPmPj
FNDA:1,_ZN5async15FreeRtosAdapterIN12_GLOBAL__N_111TestBindingEE8scheduleEhRNS_9IRunnableERNS_11TimeoutTypeEjNS_8TimeUnit4TypeE
FNDA:1,_ZN5async15FreeRtosAdapterINS_12AsyncBindingEE13getTaskHandleEm
FNDA:1,_ZN5async15FreeRtosAdapterINS_12AsyncBindingEE20callIdleTaskFunctionEv
FNDA:3,_ZN5async15FreeRtosAdapterIN12_GLOBAL__N_111TestBindingEE15leaveIsrNoYieldEv
FNDA:3,_ZN5async15FreeRtosAdapterIN12_GLOBAL__N_111TestBindingEE6cancelERNS_11TimeoutTypeE
FNDA:8,_ZN5async8internal16TaskConfigHolderILm4EvE13setTaskConfigEmRKNS2_14TaskConfigTypeE
FNDA:1,_ZN5async15FreeRtosAdapterINS_12AsyncBindingEE13getTaskMemoryILh3EEEvPP12StaticTask_tPPmPj
FNDA:1,_ZN5async8internal16TaskConfigHolderILm4EvE13getTaskConfigEm
FNDA:2,_ZN5async15FreeRtosAdapterINS_12AsyncBindingEE11getTaskNameEm
FNDA:25,_ZN5async15FreeRtosAdapterIN12_GLOBAL__N_111TestBindingEE26getHigherPriorityTaskWokenEv
FNDA:2,_ZN5async15FreeRtosAdapterINS_12AsyncBindingEE8leaveIsrEv
FNDA:1,_ZN5async15FreeRtosAdapterIN12_GLOBAL__N_111TestBindingEE21getCurrentTaskContextEv
FNDA:1,_ZN5async8internal16TaskConfigHolderILm4EiE13getTaskConfigEm
FNDA:3,_ZN5async15FreeRtosAdapterINS_12AsyncBindingEE8initTaskERNS_8internal15TaskInitializerIS2_EE
FNDA:5,_ZN5async15FreeRtosAdapterIN12_GLOBAL__N_111TestBindingEE8initTaskERNS_8internal15TaskInitializerIS3_EE
FNDA:1,_ZN5async15FreeRtosAdapterINS_12AsyncBindingEE11runningHookEv
FNDA:1,_ZN5async15FreeRtosAdapterINS_12AsyncBindingEE13getTaskConfigEm
FNF:36
FNH:36
DA:259,2
DA:264,2
DA:266,2
DA:267,2
DA:268,2
DA:269,2
DA:270,2
DA:272,2
DA:273,2
DA:276,4
DA:278,4
DA:282,1
DA:284,1
DA:289,1
DA:291,1
DA:295,7
DA:297,7
DA:299,6
DA:301,1
DA:305,8
DA:307,8
DA:308,8
DA:309,8
DA:310,8
DA:311,8
DA:313,2
DA:314,2
DA:318,6
DA:319,6
DA:321,1
DA:322,1
DA:326,5
DA:328,5
DA:331,5
DA:335,8
DA:338,8
DA:340,8
DA:341,8
DA:342,8
DA:343,8
DA:346,1
DA:348,1
DA:349,1
DA:350,1
DA:353,3
DA:355,3
DA:357,2
DA:358,2
DA:360,2
DA:361,1
DA:362,2
DA:363,2
DA:365,1
DA:369,1
DA:371,1
DA:372,1
DA:375,2
DA:377,2
DA:378,2
DA:381,2
DA:388,2
DA:389,2
DA:392,2
DA:399,2
DA:400,2
DA:403,5
DA:405,5
DA:406,5
DA:407,5
DA:409,4
DA:410,4
DA:412,5
DA:415,34
DA:417,34
DA:421,10
DA:423,10
DA:424,10
DA:425,10
DA:426,10
DA:429,5
DA:431,5
DA:432,5
DA:433,5
DA:435,4
DA:436,4
DA:438,1
DA:439,1
DA:442,5
DA:445,5
DA:447,5
DA:448,5
DA:449,5
DA:451,4
DA:452,4
DA:454,2
DA:455,2
DA:458,3
DA:459,5
DA:462,1
DA:463,1
DA:471,1
DA:474,1
DA:475,1
DA:478,1
DA:480,1
DA:484,8
DA:487,8
DA:491,1
DA:493,1
LF:109
LH:109
end_of_record
TN:
SF:/home/jenkins/libs/bsw/asyncFreeRtos/include/async/Lock.h
FN:33,_ZN5async4LockC2Ev
FN:37,_ZN5async4LockD2Ev
FNDA:459,_ZN5async4LockC2Ev
FNDA:459,_ZN5async4LockD2Ev
FNF:2
FNH:2
DA:33,459
DA:34,459
DA:35,459
DA:37,459
LF:4
LH:4
end_of_record
TN:
SF:/home/jenkins/libs/bsw/asyncFreeRtos/include/async/ModifiableLock.h
FN:40,_ZN5async14ModifiableLockC2Ev
FN:44,_ZN5async14ModifiableLockD2Ev
FN:52,_ZN5async14ModifiableLock6unlockEv
FN:61,_ZN5async14ModifiableLock4lockEv
FNDA:2,_ZN5async14ModifiableLock4lockEv
FNDA:3,_ZN5async14ModifiableLock6unlockEv
FNDA:3,_ZN5async14ModifiableLockD2Ev
FNDA:3,_ZN5async14ModifiableLockC2Ev
FNF:4
FNH:4
DA:40,3
DA:41,3
DA:42,3
DA:44,3
DA:46,3
DA:48,2
DA:50,3
DA:52,3
DA:54,3
DA:56,2
DA:57,2
DA:59,3
DA:61,2
DA:63,2
DA:65,1
DA:66,1
DA:68,2
LF:17
LH:17
end_of_record
TN:
SF:/home/jenkins/libs/bsw/asyncFreeRtos/include/async/StaticRunnable.h
FN:43,_ZN5async14StaticRunnableINS_8internal15TaskInitializerIN12_GLOBAL__N_111AdapterMockEEEEC2Ev
FN:43,_ZN5async14StaticRunnableIN12_GLOBAL__N_112TestRunnableEEC2Ev
FN:43,_ZN5async14StaticRunnableINS_8internal15TaskInitializerINS_15FreeRtosAdapterIN12_GLOBAL__N_111TestBindingEEEEEEC2Ev
FN:43,_ZN5async14StaticRunnableINS_8internal15TaskInitializerINS_15FreeRtosAdapterINS_12AsyncBindingEEEEEEC2Ev
FN:49,_ZN5async14StaticRunnableINS_8internal15TaskInitializerINS_15FreeRtosAdapterIN12_GLOBAL__N_111TestBindingEEEEEE3runEv
FN:49,_ZN5async14StaticRunnableIN12_GLOBAL__N_112TestRunnableEE3runEv
FN:49,_ZN5async14StaticRunnableINS_8internal15TaskInitializerINS_15FreeRtosAdapterINS_12AsyncBindingEEEEEE3runEv
FN:49,_ZN5async14StaticRunnableINS_8internal15TaskInitializerIN12_GLOBAL__N_111AdapterMockEEEE3runEv
FNDA:2,_ZN5async14StaticRunnableIN12_GLOBAL__N_112TestRunnableEEC2Ev
FNDA:2,_ZN5async14StaticRunnableIN12_GLOBAL__N_112TestRunnableEE3runEv
FNDA:10,_ZN5async14StaticRunnableINS_8internal15TaskInitializerIN12_GLOBAL__N_111AdapterMockEEEEC2Ev
FNDA:5,_ZN5async14StaticRunnableINS_8internal15TaskInitializerINS_15FreeRtosAdapterIN12_GLOBAL__N_111TestBindingEEEEEE3runEv
FNDA:10,_ZN5async14StaticRunnableINS_8internal15TaskInitializerIN12_GLOBAL__N_111AdapterMockEEEE3runEv
FNDA:3,_ZN5async14StaticRunnableINS_8internal15TaskInitializerINS_15FreeRtosAdapterINS_12AsyncBindingEEEEEEC2Ev
FNDA:3,_ZN5async14StaticRunnableINS_8internal15TaskInitializerINS_15FreeRtosAdapterINS_12AsyncBindingEEEEEE3runEv
FNDA:5,_ZN5async14StaticRunnableINS_8internal15TaskInitializerINS_15FreeRtosAdapterIN12_GLOBAL__N_111TestBindingEEEEEEC2Ev
FNF:8
FNH:8
DA:43,20
DA:45,20
DA:46,20
DA:49,20
DA:51,40
DA:53,20
DA:54,20
DA:55,20
DA:57,20
LF:9
LH:9
end_of_record
TN:
SF:/home/jenkins/libs/bsw/asyncFreeRtos/include/async/TaskContext.h
FN:174,_ZN5async11TaskContextINS_15FreeRtosAdapterIN12_GLOBAL__N_111TestBindingEEEEC2Ev
FN:174,_ZN5async11TaskContextINS_15FreeRtosAdapterINS_12AsyncBindingEEEEC2Ev
FN:174,_ZN5async11TaskContextIN12_GLOBAL__N_115TestBindingMockEEC2Ev
FN:188,_ZN5async11TaskContextINS_15FreeRtosAdapterINS_12AsyncBindingEEEE8initTaskEhPKcN3etl8delegateIFvRS4_EEE
FN:188,_ZN5async11TaskContextINS_15FreeRtosAdapterIN12_GLOBAL__N_111TestBindingEEEE8initTaskEhPKcN3etl8delegateIFvRS5_EEE
FN:199,_ZN5async11TaskContextINS_15FreeRtosAdapterINS_12AsyncBindingEEEE14initTaskHandleEPj
FN:205,_ZN5async11TaskContextINS_15FreeRtosAdapterINS_12AsyncBindingEEEE10createTaskEhR12StaticTask_tPKcjRKN3etl4spanImLm18446744073709551615EEENS9_8delegateIFvRS4_EEE
FN:205,_ZN5async11TaskContextIN12_GLOBAL__N_115TestBindingMockEE10createTaskEhR12StaticTask_tPKcjRKN3etl4spanImLm18446744073709551615EEENS8_8delegateIFvRS3_EEE
FN:205,_ZN5async11TaskContextINS_15FreeRtosAdapterIN12_GLOBAL__N_111TestBindingEEEE10createTaskEhR12StaticTask_tPKcjRKN3etl4spanImLm18446744073709551615EEENSA_8delegateIFvRS5_EEE
FN:229,_ZNK5async11TaskContextINS_15FreeRtosAdapterIN12_GLOBAL__N_111TestBindingEEEE7getNameEv
FN:229,_ZNK5async11TaskContextINS_15FreeRtosAdapterINS_12AsyncBindingEEEE7getNameEv
FN:235,_ZNK5async11TaskContextINS_15FreeRtosAdapterINS_12AsyncBindingEEEE13getTaskHandleEv
FN:241,_ZNK5async11TaskContextIN12_GLOBAL__N_115TestBindingMockEE18getUnusedStackSizeEv
FN:241,_ZNK5async11TaskContextINS_15FreeRtosAdapterIN12_GLOBAL__N_111TestBindingEEEE18getUnusedStackSizeEv
FN:247,_ZN5async11TaskContextINS_15FreeRtosAdapterINS_12AsyncBindingEEEE7executeERNS_9IRunnableE
FN:247,_ZN5async11TaskContextINS_15FreeRtosAdapterIN12_GLOBAL__N_111TestBindingEEEE7executeERNS_9IRunnableE
FN:247,_ZN5async11TaskContextIN12_GLOBAL__N_115TestBindingMockEE7executeERNS_9IRunnableE
FN:253,_ZN5async11TaskContextINS_15FreeRtosAdapterINS_12AsyncBindingEEEE8scheduleERNS_9IRunnableERNS_11TimeoutTypeEjNS_8TimeUnit4TypeE
FN:253,_ZN5async11TaskContextINS_15FreeRtosAdapterIN12_GLOBAL__N_111TestBindingEEEE8scheduleERNS_9IRunnableERNS_11TimeoutTypeEjNS_8TimeUnit4TypeE
FN:253,_ZN5async11TaskContextIN12_GLOBAL__N_115TestBindingMockEE8scheduleERNS_9IRunnableERNS_11TimeoutTypeEjNS_8TimeUnit4TypeE
FN:268,_ZN5async11TaskContextIN12_GLOBAL__N_115TestBindingMockEE19scheduleAtFixedRateERNS_9IRunnableERNS_11TimeoutTypeEjNS_8TimeUnit4TypeE
FN:268,_ZN5async11TaskContextINS_15FreeRtosAdapterINS_12AsyncBindingEEEE19scheduleAtFixedRateERNS_9IRunnableERNS_11TimeoutTypeEjNS_8TimeUnit4TypeE
FN:268,_ZN5async11TaskContextINS_15FreeRtosAdapterIN12_GLOBAL__N_111TestBindingEEEE19scheduleAtFixedRateERNS_9IRunnableERNS_11TimeoutTypeEjNS_8TimeUnit4TypeE
FN:283,_ZN5async11TaskContextINS_15FreeRtosAdapterINS_12AsyncBindingEEEE6cancelERNS_11TimeoutTypeE
FN:283,_ZN5async11TaskContextINS_15FreeRtosAdapterIN12_GLOBAL__N_111TestBindingEEEE6cancelERNS_11TimeoutTypeE
FN:283,_ZN5async11TaskContextIN12_GLOBAL__N_115TestBindingMockEE6cancelERNS_11TimeoutTypeE
FN:289,_ZN5async11TaskContextIN12_GLOBAL__N_115TestBindingMockEE9setEventsEj
FN:289,_ZN5async11TaskContextINS_15FreeRtosAdapterINS_12AsyncBindingEEEE9setEventsEj
FN:289,_ZN5async11TaskContextINS_15FreeRtosAdapterIN12_GLOBAL__N_111TestBindingEEEE9setEventsEj
FN:303,_ZN5async11TaskContextINS_15FreeRtosAdapterINS_12AsyncBindingEEEE10waitEventsEv
FN:303,_ZN5async11TaskContextINS_15FreeRtosAdapterIN12_GLOBAL__N_111TestBindingEEEE10waitEventsEv
FN:303,_ZN5async11TaskContextIN12_GLOBAL__N_115TestBindingMockEE10waitEventsEv
FN:328,_ZN5async11TaskContextINS_15FreeRtosAdapterIN12_GLOBAL__N_111TestBindingEEEE10peekEventsEv
FN:328,_ZN5async11TaskContextINS_15FreeRtosAdapterINS_12AsyncBindingEEEE10peekEventsEv
FN:328,_ZN5async11TaskContextIN12_GLOBAL__N_115TestBindingMockEE10peekEventsEv
FN:336,_ZN5async11TaskContextINS_15FreeRtosAdapterIN12_GLOBAL__N_111TestBindingEEEE16callTaskFunctionEv
FN:336,_ZN5async11TaskContextIN12_GLOBAL__N_115TestBindingMockEE16callTaskFunctionEv
FN:336,_ZN5async11TaskContextINS_15FreeRtosAdapterINS_12AsyncBindingEEEE16callTaskFunctionEv
FN:342,_ZN5async11TaskContextIN12_GLOBAL__N_115TestBindingMockEE8dispatchEv
FN:342,_ZN5async11TaskContextINS_15FreeRtosAdapterIN12_GLOBAL__N_111TestBindingEEEE8dispatchEv
FN:342,_ZN5async11TaskContextINS_15FreeRtosAdapterINS_12AsyncBindingEEEE8dispatchEv
FN:353,_ZN5async11TaskContextIN12_GLOBAL__N_115TestBindingMockEE12stopDispatchEv
FN:359,_ZN5async11TaskContextINS_15FreeRtosAdapterIN12_GLOBAL__N_111TestBindingEEEE17dispatchWhileWorkEv
FN:359,_ZN5async11TaskContextIN12_GLOBAL__N_115TestBindingMockEE17dispatchWhileWorkEv
FN:359,_ZN5async11TaskContextINS_15FreeRtosAdapterINS_12AsyncBindingEEEE17dispatchWhileWorkEv
FN:377,_ZN5async11TaskContextIN12_GLOBAL__N_115TestBindingMockEE18getUnusedStackSizeEPj
FN:377,_ZN5async11TaskContextINS_15FreeRtosAdapterIN12_GLOBAL__N_111TestBindingEEEE18getUnusedStackSizeEPj
FN:384,_ZN5async11TaskContextINS_15FreeRtosAdapterIN12_GLOBAL__N_111TestBindingEEEE19defaultTaskFunctionERS5_
FN:384,_ZN5async11TaskContextINS_15FreeRtosAdapterINS_12AsyncBindingEEEE19defaultTaskFunctionERS4_
FN:384,_ZN5async11TaskContextIN12_GLOBAL__N_115TestBindingMockEE19defaultTaskFunctionERS3_
FN:390,_ZN5async11TaskContextINS_15FreeRtosAdapterIN12_GLOBAL__N_111TestBindingEEEE19defaultIdleFunctionERS5_
FN:390,_ZN5async11TaskContextINS_15FreeRtosAdapterINS_12AsyncBindingEEEE19defaultIdleFunctionERS4_
FN:396,_ZN5async11TaskContextINS_15FreeRtosAdapterIN12_GLOBAL__N_111TestBindingEEEE13handleTimeoutEv
FN:396,_ZN5async11TaskContextIN12_GLOBAL__N_115TestBindingMockEE13handleTimeoutEv
FN:396,_ZN5async11TaskContextINS_15FreeRtosAdapterINS_12AsyncBindingEEEE13handleTimeoutEv
FN:402,_ZN5async11TaskContextINS_15FreeRtosAdapterINS_12AsyncBindingEEEE18staticTaskFunctionEPv
FN:402,_ZN5async11TaskContextIN12_GLOBAL__N_115TestBindingMockEE18staticTaskFunctionEPv
FN:402,_ZN5async11TaskContextINS_15FreeRtosAdapterIN12_GLOBAL__N_111TestBindingEEEE18staticTaskFunctionEPv
FNDA:16,_ZN5async11TaskContextIN12_GLOBAL__N_115TestBindingMockEE9setEventsEj
FNDA:1,_ZN5async11TaskContextINS_15FreeRtosAdapterIN12_GLOBAL__N_111TestBindingEEEE19scheduleAtFixedRateERNS_9IRunnableERNS_11TimeoutTypeEjNS_8TimeUnit4TypeE
FNDA:1,_ZNK5async11TaskContextINS_15FreeRtosAdapterINS_12AsyncBindingEEEE7getNameEv
FNDA:8,_ZN5async11TaskContextIN12_GLOBAL__N_115TestBindingMockEE10createTaskEhR12StaticTask_tPKcjRKN3etl4spanImLm18446744073709551615EEENS8_8delegateIFvRS3_EEE
FNDA:1,_ZN5async11TaskContextINS_15FreeRtosAdapterIN12_GLOBAL__N_111TestBindingEEEE8scheduleERNS_9IRunnableERNS_11TimeoutTypeEjNS_8TimeUnit4TypeE
FNDA:2,_ZN5async11TaskContextINS_15FreeRtosAdapterIN12_GLOBAL__N_111TestBindingEEEE6cancelERNS_11TimeoutTypeE
FNDA:87,_ZN5async11TaskContextINS_15FreeRtosAdapterIN12_GLOBAL__N_111TestBindingEEEEC2Ev
FNDA:8,_ZN5async11TaskContextIN12_GLOBAL__N_115TestBindingMockEE19defaultTaskFunctionERS3_
FNDA:1,_ZNK5async11TaskContextIN12_GLOBAL__N_115TestBindingMockEE18getUnusedStackSizeEv
FNDA:0,_ZN5async11TaskContextINS_15FreeRtosAdapterIN12_GLOBAL__N_111TestBindingEEEE13handleTimeoutEv
FNDA:0,_ZN5async11TaskContextINS_15FreeRtosAdapterINS_12AsyncBindingEEEE19defaultIdleFunctionERS4_
FNDA:0,_ZN5async11TaskContextINS_15FreeRtosAdapterINS_12AsyncBindingEEEE17dispatchWhileWorkEv
FNDA:9,_ZN5async11TaskContextIN12_GLOBAL__N_115TestBindingMockEE18staticTaskFunctionEPv
FNDA:25,_ZN5async11TaskContextIN12_GLOBAL__N_115TestBindingMockEE10waitEventsEv
FNDA:3,_ZN5async11TaskContextINS_15FreeRtosAdapterINS_12AsyncBindingEEEE9setEventsEj
FNDA:0,_ZN5async11TaskContextINS_15FreeRtosAdapterINS_12AsyncBindingEEEE8dispatchEv
FNDA:4,_ZN5async11TaskContextIN12_GLOBAL__N_115TestBindingMockEE8scheduleERNS_9IRunnableERNS_11TimeoutTypeEjNS_8TimeUnit4TypeE
FNDA:1,_ZNK5async11TaskContextINS_15FreeRtosAdapterIN12_GLOBAL__N_111TestBindingEEEE18getUnusedStackSizeEv
FNDA:7,_ZN5async11TaskContextIN12_GLOBAL__N_115TestBindingMockEEC2Ev
FNDA:2,_ZN5async11TaskContextINS_15FreeRtosAdapterIN12_GLOBAL__N_111TestBindingEEEE18getUnusedStackSizeEPj
FNDA:87,_ZN5async11TaskContextINS_15FreeRtosAdapterINS_12AsyncBindingEEEEC2Ev
FNDA:0,_ZN5async11TaskContextINS_15FreeRtosAdapterINS_12AsyncBindingEEEE13handleTimeoutEv
FNDA:3,_ZN5async11TaskContextIN12_GLOBAL__N_115TestBindingMockEE7executeERNS_9IRunnableE
FNDA:0,_ZN5async11TaskContextINS_15FreeRtosAdapterIN12_GLOBAL__N_111TestBindingEEEE18staticTaskFunctionEPv
FNDA:4,_ZN5async11TaskContextINS_15FreeRtosAdapterIN12_GLOBAL__N_111TestBindingEEEE10createTaskEhR12StaticTask_tPKcjRKN3etl4spanImLm18446744073709551615EEENSA_8delegateIFvRS5_EEE
FNDA:12,_ZN5async11TaskContextIN12_GLOBAL__N_115TestBindingMockEE13handleTimeoutEv
FNDA:0,_ZN5async11TaskContextINS_15FreeRtosAdapterIN12_GLOBAL__N_111TestBindingEEEE8initTaskEhPKcN3etl8delegateIFvRS5_EEE
FNDA:2,_ZN5async11TaskContextIN12_GLOBAL__N_115TestBindingMockEE6cancelERNS_11TimeoutTypeE
FNDA:3,_ZN5async11TaskContextINS_15FreeRtosAdapterIN12_GLOBAL__N_111TestBindingEEEE9setEventsEj
FNDA:0,_ZN5async11TaskContextINS_15FreeRtosAdapterIN12_GLOBAL__N_111TestBindingEEEE19defaultTaskFunctionERS5_
FNDA:1,_ZN5async11TaskContextINS_15FreeRtosAdapterINS_12AsyncBindingEEEE8initTaskEhPKcN3etl8delegateIFvRS4_EEE
FNDA:0,_ZN5async11TaskContextINS_15FreeRtosAdapterIN12_GLOBAL__N_111TestBindingEEEE16callTaskFunctionEv
FNDA:0,_ZN5async11TaskContextINS_15FreeRtosAdapterIN12_GLOBAL__N_111TestBindingEEEE10peekEventsEv
FNDA:1,_ZN5async11TaskContextINS_15FreeRtosAdapterINS_12AsyncBindingEEEE8scheduleERNS_9IRunnableERNS_11TimeoutTypeEjNS_8TimeUnit4TypeE
FNDA:2,_ZN5async11TaskContextIN12_GLOBAL__N_115TestBindingMockEE18getUnusedStackSizeEPj
FNDA:2,_ZNK5async11TaskContextINS_15FreeRtosAdapterIN12_GLOBAL__N_111TestBindingEEEE7getNameEv
FNDA:1,_ZN5async11TaskContextINS_15FreeRtosAdapterINS_12AsyncBindingEEEE14initTaskHandleEPj
FNDA:8,_ZN5async11TaskContextIN12_GLOBAL__N_115TestBindingMockEE8dispatchEv
FNDA:5,_ZN5async11TaskContextIN12_GLOBAL__N_115TestBindingMockEE19scheduleAtFixedRateERNS_9IRunnableERNS_11TimeoutTypeEjNS_8TimeUnit4TypeE
FNDA:0,_ZN5async11TaskContextINS_15FreeRtosAdapterINS_12AsyncBindingEEEE10waitEventsEv
FNDA:0,_ZN5async11TaskContextINS_15FreeRtosAdapterINS_12AsyncBindingEEEE18staticTaskFunctionEPv
FNDA:0,_ZN5async11TaskContextINS_15FreeRtosAdapterIN12_GLOBAL__N_111TestBindingEEEE19defaultIdleFunctionERS5_
FNDA:9,_ZN5async11TaskContextIN12_GLOBAL__N_115TestBindingMockEE16callTaskFunctionEv
FNDA:8,_ZN5async11TaskContextIN12_GLOBAL__N_115TestBindingMockEE12stopDispatchEv
FNDA:0,_ZN5async11TaskContextINS_15FreeRtosAdapterINS_12AsyncBindingEEEE19defaultTaskFunctionERS4_
FNDA:2,_ZN5async11TaskContextIN12_GLOBAL__N_115TestBindingMockEE10peekEventsEv
FNDA:1,_ZN5async11TaskContextINS_15FreeRtosAdapterINS_12AsyncBindingEEEE19scheduleAtFixedRateERNS_9IRunnableERNS_11TimeoutTypeEjNS_8TimeUnit4TypeE
FNDA:0,_ZN5async11TaskContextINS_15FreeRtosAdapterINS_12AsyncBindingEEEE10peekEventsEv
FNDA:1,_ZNK5async11TaskContextINS_15FreeRtosAdapterINS_12AsyncBindingEEEE13getTaskHandleEv
FNDA:1,_ZN5async11TaskContextINS_15FreeRtosAdapterINS_12AsyncBindingEEEE10createTaskEhR12StaticTask_tPKcjRKN3etl4spanImLm18446744073709551615EEENS9_8delegateIFvRS4_EEE
FNDA:1,_ZN5async11TaskContextINS_15FreeRtosAdapterINS_12AsyncBindingEEEE16callTaskFunctionEv
FNDA:0,_ZN5async11TaskContextINS_15FreeRtosAdapterIN12_GLOBAL__N_111TestBindingEEEE8dispatchEv
FNDA:0,_ZN5async11TaskContextINS_15FreeRtosAdapterIN12_GLOBAL__N_111TestBindingEEEE10waitEventsEv
FNDA:2,_ZN5async11TaskContextINS_15FreeRtosAdapterINS_12AsyncBindingEEEE6cancelERNS_11TimeoutTypeE
FNDA:1,_ZN5async11TaskContextINS_15FreeRtosAdapterINS_12AsyncBindingEEEE7executeERNS_9IRunnableE
FNDA:1,_ZN5async11TaskContextINS_15FreeRtosAdapterIN12_GLOBAL__N_111TestBindingEEEE7executeERNS_9IRunnableE
FNDA:1,_ZN5async11TaskContextIN12_GLOBAL__N_115TestBindingMockEE17dispatchWhileWorkEv
FNDA:0,_ZN5async11TaskContextINS_15FreeRtosAdapterIN12_GLOBAL__N_111TestBindingEEEE17dispatchWhileWorkEv
FNF:58
FNH:40
DA:174,181
DA:175,181
DA:176,181
DA:177,181
DA:178,181
DA:179,181
DA:180,362
DA:182,181
DA:184,181
DA:185,181
DA:188,1
DA:191,1
DA:192,1
DA:193,1
DA:195,0
DA:196,1
DA:199,1
DA:201,1
DA:202,1
DA:205,13
DA:213,13
DA:214,13
DA:215,13
DA:217,18
DA:218,26
DA:221,13
DA:226,13
DA:229,3
DA:231,3
DA:235,1
DA:237,1
DA:241,2
DA:243,2
DA:247,5
DA:249,5
DA:250,5
DA:253,6
DA:256,6
DA:258,5
DA:259,5
DA:260,5
DA:262,4
DA:265,6
DA:268,7
DA:271,7
DA:273,6
DA:274,6
DA:275,6
DA:277,5
DA:280,7
DA:283,6
DA:285,6
DA:286,6
DA:289,22
DA:291,22
DA:292,22
DA:294,1
DA:298,21
DA:300,22
DA:303,25
DA:305,25
DA:306,25
DA:308,25
DA:309,25
DA:311,14
DA:313,25
DA:315,14
DA:317,11
DA:319,6
DA:323,5
DA:328,2
DA:330,2
DA:331,2
DA:332,2
DA:336,10
DA:338,10
DA:339,10
DA:342,8
DA:344,8
DA:345,33
DA:347,25
DA:348,25
DA:350,8
DA:353,8
DA:355,8
DA:356,8
DA:359,2
DA:361,1
DA:363,2
DA:364,2
DA:365,2
DA:367,1
DA:371,1
DA:374,1
DA:377,4
DA:379,4
DA:380,4
DA:384,8
DA:386,8
DA:387,8
DA:390,0
DA:392,0
DA:393,0
DA:396,12
DA:398,16
DA:399,12
DA:402,9
DA:404,9
DA:405,9
DA:406,9
LF:110
LH:106
end_of_record
TN:
SF:/home/jenkins/libs/bsw/asyncFreeRtos/include/async/TaskInitializer.h
FN:22,_ZN5async8internal15adjustStackSizeEm
FN:31,_ZN5async8internal5alignEmRN3etl4spanIhLm18446744073709551615EEE
FN:257,_ZN5async8internal15TaskInitializerINS_15FreeRtosAdapterINS_12AsyncBindingEEEE6createIN3etl5arrayImLm48EEEEEvhPKcR12StaticTask_tRT_NS7_8delegateIFvRNS_11TaskContextIS4_EEEEERKNS0_16TaskConfigHolderILm4EvE14TaskConfigTypeE
FN:257,_ZN5async8internal15TaskInitializerINS_15FreeRtosAdapterIN12_GLOBAL__N_111TestBindingEEEE6createIN3etl5arrayImLm64EEEEEvhPKcR12StaticTask_tRT_NS8_8delegateIFvRNS_11TaskContextIS5_EEEEERKNS0_16TaskConfigHolderILm4EvE14TaskConfigTypeE
FN:257,_ZN5async8internal15TaskInitializerINS_15FreeRtosAdapterINS_12AsyncBindingEEEE6createIN3etl5arrayImLm32EEEEEvhPKcR12StaticTask_tRT_NS7_8delegateIFvRNS_11TaskContextIS4_EEEEERKNS0_16TaskConfigHolderILm4EvE14TaskConfigTypeE
FN:257,_ZN5async8internal15TaskInitializerINS_15FreeRtosAdapterIN12_GLOBAL__N_111TestBindingEEEE6createIN3etl5arrayImLm32EEEEEvhPKcR12StaticTask_tRT_NS8_8delegateIFvRNS_11TaskContextIS5_EEEEERKNS0_16TaskConfigHolderILm4EvE14TaskConfigTypeE
FN:257,_ZN5async8internal15TaskInitializerINS_15FreeRtosAdapterIN12_GLOBAL__N_111TestBindingEEEE6createIN3etl5arrayImLm1EEEEEvhPKcR12StaticTask_tRT_NS8_8delegateIFvRNS_11TaskContextIS5_EEEEERKNS0_16TaskConfigHolderILm4EvE14TaskConfigTypeE
FN:257,_ZN5async8internal15TaskInitializerIN12_GLOBAL__N_111AdapterMockEE6createIN3etl5arrayImLm32EEEEEvhPKcR12StaticTask_tRT_NS6_8delegateIFvvEEERKj
FN:257,_ZN5async8internal15TaskInitializerINS_15FreeRtosAdapterIN12_GLOBAL__N_111TestBindingEEEE6createIN3etl5arrayImLm16EEEEEvhPKcR12StaticTask_tRT_NS8_8delegateIFvRNS_11TaskContextIS5_EEEEERKNS0_16TaskConfigHolderILm4EvE14TaskConfigTypeE
FN:257,_ZN5async8internal15TaskInitializerIN12_GLOBAL__N_111AdapterMockEE6createIN3etl5arrayImLm49EEEEEvhPKcR12StaticTask_tRT_NS6_8delegateIFvvEEERKj
FN:257,_ZN5async8internal15TaskInitializerIN12_GLOBAL__N_111AdapterMockEE6createIN3etl5arrayImLm64EEEEEvhPKcR12StaticTask_tRT_NS6_8delegateIFvvEEERKj
FN:257,_ZN5async8internal15TaskInitializerINS_15FreeRtosAdapterINS_12AsyncBindingEEEE6createIN3etl5arrayImLm96EEEEEvhPKcR12StaticTask_tRT_NS7_8delegateIFvRNS_11TaskContextIS4_EEEEERKNS0_16TaskConfigHolderILm4EvE14TaskConfigTypeE
FN:273,_ZN5async8internal15TaskInitializerINS_15FreeRtosAdapterIN12_GLOBAL__N_111TestBindingEEEEC2EhPKcR12StaticTask_tRKN3etl4spanImLm18446744073709551615EEENSB_8delegateIFvRNS_11TaskContextIS5_EEEEERKNS0_16TaskConfigHolderILm4EvE14TaskConfigTypeE
FN:273,_ZN5async8internal15TaskInitializerINS_15FreeRtosAdapterINS_12AsyncBindingEEEEC2EhPKcR12StaticTask_tRKN3etl4spanImLm18446744073709551615EEENSA_8delegateIFvRNS_11TaskContextIS4_EEEEERKNS0_16TaskConfigHolderILm4EvE14TaskConfigTypeE
FN:273,_ZN5async8internal15TaskInitializerIN12_GLOBAL__N_111AdapterMockEEC2EhPKcR12StaticTask_tRKN3etl4spanImLm18446744073709551615EEENS9_8delegateIFvvEEERKj
FN:289,_ZN5async8internal15TaskInitializerIN12_GLOBAL__N_111AdapterMockEE7executeEv
FN:289,_ZN5async8internal15TaskInitializerINS_15FreeRtosAdapterINS_12AsyncBindingEEEE7executeEv
FN:289,_ZN5async8internal15TaskInitializerINS_15FreeRtosAdapterIN12_GLOBAL__N_111TestBindingEEEE7executeEv
FN:295,_ZN5async8internal8TaskImplINS_15FreeRtosAdapterIN12_GLOBAL__N_111TestBindingEEELh1ELm256EEC2EPKcN3etl8delegateIFvRNS_11TaskContextIS5_EEEEERKNS0_16TaskConfigHolderILm4EvE14TaskConfigTypeE
FN:295,_ZN5async8internal8TaskImplINS_15FreeRtosAdapterIN12_GLOBAL__N_111TestBindingEEELh2ELm128EEC2EPKcN3etl8delegateIFvRNS_11TaskContextIS5_EEEEERKNS0_16TaskConfigHolderILm4EvE14TaskConfigTypeE
FN:295,_ZN5async8internal8TaskImplINS_15FreeRtosAdapterINS_12AsyncBindingEEELh0ELm384EEC2EPKcN3etl8delegateIFvRNS_11TaskContextIS4_EEEEERKNS0_16TaskConfigHolderILm4EvE14TaskConfigTypeE
FN:295,_ZN5async8internal8TaskImplIN12_GLOBAL__N_111AdapterMockELh5ELm512EEC2EPKcN3etl8delegateIFvvEEERKj
FN:295,_ZN5async8internal8TaskImplIN12_GLOBAL__N_111AdapterMockELh0ELm256EEC2EPKcN3etl8delegateIFvvEEERKj
FN:295,_ZN5async8internal8TaskImplINS_15FreeRtosAdapterINS_12AsyncBindingEEELh3ELm768EEC2EPKcN3etl8delegateIFvRNS_11TaskContextIS4_EEEEERKNS0_16TaskConfigHolderILm4EvE14TaskConfigTypeE
FN:295,_ZN5async8internal8TaskImplIN12_GLOBAL__N_111AdapterMockELh10ELm512EEC2EPKcN3etl8delegateIFvvEEERKj
FN:295,_ZN5async8internal8TaskImplINS_15FreeRtosAdapterIN12_GLOBAL__N_111TestBindingEEELh3ELm512EEC2EPKcN3etl8delegateIFvRNS_11TaskContextIS5_EEEEERKNS0_16TaskConfigHolderILm4EvE14TaskConfigTypeE
FN:295,_ZN5async8internal8TaskImplINS_15FreeRtosAdapterINS_12AsyncBindingEEELh1ELm256EEC2EPKcN3etl8delegateIFvRNS_11TaskContextIS4_EEEEERKNS0_16TaskConfigHolderILm4EvE14TaskConfigTypeE
FN:295,_ZN5async8internal8TaskImplINS_15FreeRtosAdapterIN12_GLOBAL__N_111TestBindingEEELh1ELm4EEC2EPKcN3etl8delegateIFvRNS_11TaskContextIS5_EEEEERKNS0_16TaskConfigHolderILm4EvE14TaskConfigTypeE
FN:295,_ZN5async8internal8TaskImplINS_15FreeRtosAdapterIN12_GLOBAL__N_111TestBindingEEELh2ELm512EEC2EPKcN3etl8delegateIFvRNS_11TaskContextIS5_EEEEERKNS0_16TaskConfigHolderILm4EvE14TaskConfigTypeE
FN:303,_ZN5async8internal8TaskImplIN12_GLOBAL__N_111AdapterMockELh10ELm0EEC2IN3etl5arrayImLm49EEEEEPKcRT_NS6_8delegateIFvvEEERKj
FN:303,_ZN5async8internal8TaskImplIN12_GLOBAL__N_111AdapterMockELh6ELm0EEC2IN3etl5arrayImLm49EEEEEPKcRT_NS6_8delegateIFvvEEERKj
FN:303,_ZN5async8internal8TaskImplIN12_GLOBAL__N_111AdapterMockELh0ELm0EEC2IN3etl5arrayImLm32EEEEEPKcRT_NS6_8delegateIFvvEEERKj
FN:313,_ZN5async8internal8IdleTaskIN12_GLOBAL__N_111AdapterMockELm256EEC2EPKcRKj
FN:318,_ZN5async8internal8IdleTaskINS_15FreeRtosAdapterINS_12AsyncBindingEEELm384EEC2EPKcN3etl8delegateIFvRNS_11TaskContextIS4_EEEEERKNS0_16TaskConfigHolderILm4EvE14TaskConfigTypeE
FN:318,_ZN5async8internal8IdleTaskIN12_GLOBAL__N_111AdapterMockELm256EEC2EPKcN3etl8delegateIFvvEEERKj
FN:325,_ZN5async8internal8IdleTaskIN12_GLOBAL__N_111AdapterMockELm0EEC2IN3etl5arrayImLm32EEEEEPKcRT_RKj
FN:331,_ZN5async8internal8IdleTaskIN12_GLOBAL__N_111AdapterMockELm0EEC2IN3etl5arrayImLm32EEEEEPKcRT_NS6_8delegateIFvvEEERKj
FN:340,_ZN5async8internal9TimerTaskIN12_GLOBAL__N_111AdapterMockELm512EEC2EPKcRKj
FN:340,_ZN5async8internal9TimerTaskINS_15FreeRtosAdapterINS_12AsyncBindingEEELm768EEC2EPKcRKNS0_16TaskConfigHolderILm4EvE14TaskConfigTypeE
FN:347,_ZN5async8internal9TimerTaskIN12_GLOBAL__N_111AdapterMockELm0EEC2IN3etl5arrayImLm49EEEEEPKcRT_RKj
FN:354,_ZN5async8internal4TaskIN12_GLOBAL__N_111AdapterMockELh5ELm512EEC2EPKcRKj
FN:354,_ZN5async8internal4TaskINS_15FreeRtosAdapterINS_12AsyncBindingEEELh1ELm256EEC2EPKcRKNS0_16TaskConfigHolderILm4EvE14TaskConfigTypeE
FN:354,_ZN5async8internal4TaskINS_15FreeRtosAdapterIN12_GLOBAL__N_111TestBindingEEELh1ELm256EEC2EPKcRKNS0_16TaskConfigHolderILm4EvE14TaskConfigTypeE
FN:354,_ZN5async8internal4TaskINS_15FreeRtosAdapterIN12_GLOBAL__N_111TestBindingEEELh1ELm4EEC2EPKcRKNS0_16TaskConfigHolderILm4EvE14TaskConfigTypeE
FN:359,_ZN5async8internal4TaskIN12_GLOBAL__N_111AdapterMockELh5ELm512EEC2EPKcN3etl8delegateIFvvEEERKj
FN:359,_ZN5async8internal4TaskINS_15FreeRtosAdapterIN12_GLOBAL__N_111TestBindingEEELh2ELm128EEC2EPKcN3etl8delegateIFvRNS_11TaskContextIS5_EEEEERKNS0_16TaskConfigHolderILm4EvE14TaskConfigTypeE
FN:359,_ZN5async8internal4TaskINS_15FreeRtosAdapterIN12_GLOBAL__N_111TestBindingEEELh3ELm512EEC2EPKcN3etl8delegateIFvRNS_11TaskContextIS5_EEEEERKNS0_16TaskConfigHolderILm4EvE14TaskConfigTypeE
FN:359,_ZN5async8internal4TaskINS_15FreeRtosAdapterIN12_GLOBAL__N_111TestBindingEEELh2ELm512EEC2EPKcN3etl8delegateIFvRNS_11TaskContextIS5_EEEEERKNS0_16TaskConfigHolderILm4EvE14TaskConfigTypeE
FN:366,_ZN5async8internal4TaskIN12_GLOBAL__N_111AdapterMockELh6ELm0EEC2IN3etl5arrayImLm49EEEEEPKcRT_RKj
FN:372,_ZN5async8internal4TaskIN12_GLOBAL__N_111AdapterMockELh6ELm0EEC2IN3etl5arrayImLm49EEEEEPKcRT_NS6_8delegateIFvvEEERKj
FNDA:1,_ZN5async8internal4TaskINS_15FreeRtosAdapterIN12_GLOBAL__N_111TestBindingEEELh2ELm512EEC2EPKcN3etl8delegateIFvRNS_11TaskContextIS5_EEEEERKNS0_16TaskConfigHolderILm4EvE14TaskConfigTypeE
FNDA:1,_ZN5async8internal8TaskImplINS_15FreeRtosAdapterIN12_GLOBAL__N_111TestBindingEEELh2ELm512EEC2EPKcN3etl8delegateIFvRNS_11TaskContextIS5_EEEEERKNS0_16TaskConfigHolderILm4EvE14TaskConfigTypeE
FNDA:1,_ZN5async8internal4TaskINS_15FreeRtosAdapterIN12_GLOBAL__N_111TestBindingEEELh1ELm4EEC2EPKcRKNS0_16TaskConfigHolderILm4EvE14TaskConfigTypeE
FNDA:2,_ZN5async8internal8TaskImplIN12_GLOBAL__N_111AdapterMockELh0ELm0EEC2IN3etl5arrayImLm32EEEEEPKcRT_NS6_8delegateIFvvEEERKj
FNDA:1,_ZN5async8internal15TaskInitializerINS_15FreeRtosAdapterINS_12AsyncBindingEEEE6createIN3etl5arrayImLm96EEEEEvhPKcR12StaticTask_tRT_NS7_8delegateIFvRNS_11TaskContextIS4_EEEEERKNS0_16TaskConfigHolderILm4EvE14TaskConfigTypeE
FNDA:10,_ZN5async8internal15TaskInitializerIN12_GLOBAL__N_111AdapterMockEEC2EhPKcR12StaticTask_tRKN3etl4spanImLm18446744073709551615EEENS9_8delegateIFvvEEERKj
FNDA:1,_ZN5async8internal8IdleTaskIN12_GLOBAL__N_111AdapterMockELm256EEC2EPKcN3etl8delegateIFvvEEERKj
FNDA:3,_ZN5async8internal15TaskInitializerIN12_GLOBAL__N_111AdapterMockEE6createIN3etl5arrayImLm49EEEEEvhPKcR12StaticTask_tRT_NS6_8delegateIFvvEEERKj
FNDA:5,_ZN5async8internal15TaskInitializerINS_15FreeRtosAdapterIN12_GLOBAL__N_111TestBindingEEEE7executeEv
FNDA:3,_ZN5async8internal15TaskInitializerINS_15FreeRtosAdapterINS_12AsyncBindingEEEEC2EhPKcR12StaticTask_tRKN3etl4spanImLm18446744073709551615EEENSA_8delegateIFvRNS_11TaskContextIS4_EEEEERKNS0_16TaskConfigHolderILm4EvE14TaskConfigTypeE
FNDA:3,_ZN5async8internal15TaskInitializerINS_15FreeRtosAdapterINS_12AsyncBindingEEEE7executeEv
FNDA:2,_ZN5async8internal8TaskImplIN12_GLOBAL__N_111AdapterMockELh6ELm0EEC2IN3etl5arrayImLm49EEEEEPKcRT_NS6_8delegateIFvvEEERKj
FNDA:3,_ZN5async8internal15TaskInitializerIN12_GLOBAL__N_111AdapterMockEE6createIN3etl5arrayImLm64EEEEEvhPKcR12StaticTask_tRT_NS6_8delegateIFvvEEERKj
FNDA:1,_ZN5async8internal8IdleTaskIN12_GLOBAL__N_111AdapterMockELm256EEC2EPKcRKj
FNDA:1,_ZN5async8internal4TaskIN12_GLOBAL__N_111AdapterMockELh6ELm0EEC2IN3etl5arrayImLm49EEEEEPKcRT_NS6_8delegateIFvvEEERKj
FNDA:1,_ZN5async8internal8TaskImplINS_15FreeRtosAdapterIN12_GLOBAL__N_111TestBindingEEELh1ELm4EEC2EPKcN3etl8delegateIFvRNS_11TaskContextIS5_EEEEERKNS0_16TaskConfigHolderILm4EvE14TaskConfigTypeE
FNDA:10,_ZN5async8internal15TaskInitializerIN12_GLOBAL__N_111AdapterMockEE7executeEv
FNDA:1,_ZN5async8internal8TaskImplINS_15FreeRtosAdapterINS_12AsyncBindingEEELh1ELm256EEC2EPKcN3etl8delegateIFvRNS_11TaskContextIS4_EEEEERKNS0_16TaskConfigHolderILm4EvE14TaskConfigTypeE
FNDA:4,_ZN5async8internal15TaskInitializerIN12_GLOBAL__N_111AdapterMockEE6createIN3etl5arrayImLm32EEEEEvhPKcR12StaticTask_tRT_NS6_8delegateIFvvEEERKj
FNDA:1,_ZN5async8internal15TaskInitializerINS_15FreeRtosAdapterIN12_GLOBAL__N_111TestBindingEEEE6createIN3etl5arrayImLm1EEEEEvhPKcR12StaticTask_tRT_NS8_8delegateIFvRNS_11TaskContextIS5_EEEEERKNS0_16TaskConfigHolderILm4EvE14TaskConfigTypeE
FNDA:1,_ZN5async8internal15TaskInitializerINS_15FreeRtosAdapterIN12_GLOBAL__N_111TestBindingEEEE6createIN3etl5arrayImLm16EEEEEvhPKcR12StaticTask_tRT_NS8_8delegateIFvRNS_11TaskContextIS5_EEEEERKNS0_16TaskConfigHolderILm4EvE14TaskConfigTypeE
FNDA:1,_ZN5async8internal8IdleTaskIN12_GLOBAL__N_111AdapterMockELm0EEC2IN3etl5arrayImLm32EEEEEPKcRT_NS6_8delegateIFvvEEERKj
FNDA:1,_ZN5async8internal8IdleTaskINS_15FreeRtosAdapterINS_12AsyncBindingEEELm384EEC2EPKcN3etl8delegateIFvRNS_11TaskContextIS4_EEEEERKNS0_16TaskConfigHolderILm4EvE14TaskConfigTypeE
FNDA:1,_ZN5async8internal8TaskImplINS_15FreeRtosAdapterIN12_GLOBAL__N_111TestBindingEEELh3ELm512EEC2EPKcN3etl8delegateIFvRNS_11TaskContextIS5_EEEEERKNS0_16TaskConfigHolderILm4EvE14TaskConfigTypeE
FNDA:1,_ZN5async8internal4TaskIN12_GLOBAL__N_111AdapterMockELh5ELm512EEC2EPKcRKj
FNDA:1,_ZN5async8internal4TaskINS_15FreeRtosAdapterINS_12AsyncBindingEEELh1ELm256EEC2EPKcRKNS0_16TaskConfigHolderILm4EvE14TaskConfigTypeE
FNDA:2,_ZN5async8internal4TaskINS_15FreeRtosAdapterIN12_GLOBAL__N_111TestBindingEEELh1ELm256EEC2EPKcRKNS0_16TaskConfigHolderILm4EvE14TaskConfigTypeE
FNDA:2,_ZN5async8internal15TaskInitializerINS_15FreeRtosAdapterIN12_GLOBAL__N_111TestBindingEEEE6createIN3etl5arrayImLm32EEEEEvhPKcR12StaticTask_tRT_NS8_8delegateIFvRNS_11TaskContextIS5_EEEEERKNS0_16TaskConfigHolderILm4EvE14TaskConfigTypeE
FNDA:1,_ZN5async8internal8TaskImplIN12_GLOBAL__N_111AdapterMockELh10ELm0EEC2IN3etl5arrayImLm49EEEEEPKcRT_NS6_8delegateIFvvEEERKj
FNDA:19,_ZN5async8internal5alignEmRN3etl4spanIhLm18446744073709551615EEE
FNDA:5,_ZN5async8internal15TaskInitializerINS_15FreeRtosAdapterIN12_GLOBAL__N_111TestBindingEEEEC2EhPKcR12StaticTask_tRKN3etl4spanImLm18446744073709551615EEENSB_8delegateIFvRNS_11TaskContextIS5_EEEEERKNS0_16TaskConfigHolderILm4EvE14TaskConfigTypeE
FNDA:1,_ZN5async8internal8TaskImplIN12_GLOBAL__N_111AdapterMockELh10ELm512EEC2EPKcN3etl8delegateIFvvEEERKj
FNDA:1,_ZN5async8internal15TaskInitializerINS_15FreeRtosAdapterINS_12AsyncBindingEEEE6createIN3etl5arrayImLm32EEEEEvhPKcR12StaticTask_tRT_NS7_8delegateIFvRNS_11TaskContextIS4_EEEEERKNS0_16TaskConfigHolderILm4EvE14TaskConfigTypeE
FNDA:1,_ZN5async8internal4TaskINS_15FreeRtosAdapterIN12_GLOBAL__N_111TestBindingEEELh3ELm512EEC2EPKcN3etl8delegateIFvRNS_11TaskContextIS5_EEEEERKNS0_16TaskConfigHolderILm4EvE14TaskConfigTypeE
FNDA:1,_ZN5async8internal15TaskInitializerINS_15FreeRtosAdapterINS_12AsyncBindingEEEE6createIN3etl5arrayImLm48EEEEEvhPKcR12StaticTask_tRT_NS7_8delegateIFvRNS_11TaskContextIS4_EEEEERKNS0_16TaskConfigHolderILm4EvE14TaskConfigTypeE
FNDA:2,_ZN5async8internal8TaskImplIN12_GLOBAL__N_111AdapterMockELh0ELm256EEC2EPKcN3etl8delegateIFvvEEERKj
FNDA:1,_ZN5async8internal8TaskImplINS_15FreeRtosAdapterINS_12AsyncBindingEEELh3ELm768EEC2EPKcN3etl8delegateIFvRNS_11TaskContextIS4_EEEEERKNS0_16TaskConfigHolderILm4EvE14TaskConfigTypeE
FNDA:1,_ZN5async8internal4TaskINS_15FreeRtosAdapterIN12_GLOBAL__N_111TestBindingEEELh2ELm128EEC2EPKcN3etl8delegateIFvRNS_11TaskContextIS5_EEEEERKNS0_16TaskConfigHolderILm4EvE14TaskConfigTypeE
FNDA:1,_ZN5async8internal9TimerTaskINS_15FreeRtosAdapterINS_12AsyncBindingEEELm768EEC2EPKcRKNS0_16TaskConfigHolderILm4EvE14TaskConfigTypeE
FNDA:1,_ZN5async8internal4TaskIN12_GLOBAL__N_111AdapterMockELh5ELm512EEC2EPKcN3etl8delegateIFvvEEERKj
FNDA:2,_ZN5async8internal15TaskInitializerINS_15FreeRtosAdapterIN12_GLOBAL__N_111TestBindingEEEE6createIN3etl5arrayImLm64EEEEEvhPKcR12StaticTask_tRT_NS8_8delegateIFvRNS_11TaskContextIS5_EEEEERKNS0_16TaskConfigHolderILm4EvE14TaskConfigTypeE
FNDA:1,_ZN5async8internal4TaskIN12_GLOBAL__N_111AdapterMockELh6ELm0EEC2IN3etl5arrayImLm49EEEEEPKcRT_RKj
FNDA:1,_ZN5async8internal8TaskImplINS_15FreeRtosAdapterIN12_GLOBAL__N_111TestBindingEEELh2ELm128EEC2EPKcN3etl8delegateIFvRNS_11TaskContextIS5_EEEEERKNS0_16TaskConfigHolderILm4EvE14TaskConfigTypeE
FNDA:2,_ZN5async8internal8TaskImplINS_15FreeRtosAdapterIN12_GLOBAL__N_111TestBindingEEELh1ELm256EEC2EPKcN3etl8delegateIFvRNS_11TaskContextIS5_EEEEERKNS0_16TaskConfigHolderILm4EvE14TaskConfigTypeE
FNDA:1,_ZN5async8internal9TimerTaskIN12_GLOBAL__N_111AdapterMockELm0EEC2IN3etl5arrayImLm49EEEEEPKcRT_RKj
FNDA:1,_ZN5async8internal9TimerTaskIN12_GLOBAL__N_111AdapterMockELm512EEC2EPKcRKj
FNDA:2,_ZN5async8internal8TaskImplIN12_GLOBAL__N_111AdapterMockELh5ELm512EEC2EPKcN3etl8delegateIFvvEEERKj
FNDA:1,_ZN5async8internal8IdleTaskIN12_GLOBAL__N_111AdapterMockELm0EEC2IN3etl5arrayImLm32EEEEEPKcRT_RKj
FNDA:4,_ZN5async8internal15adjustStackSizeEm
FNDA:1,_ZN5async8internal8TaskImplINS_15FreeRtosAdapterINS_12AsyncBindingEEELh0ELm384EEC2EPKcN3etl8delegateIFvRNS_11TaskContextIS4_EEEEERKNS0_16TaskConfigHolderILm4EvE14TaskConfigTypeE
FNF:50
FNH:50
DA:22,4
DA:25,4
DA:31,19
DA:33,19
DA:34,19
DA:36,0
DA:38,19
DA:257,19
DA:265,19
DA:266,19
DA:267,19
DA:268,19
DA:269,18
DA:270,18
DA:273,18
DA:280,18
DA:281,18
DA:282,18
DA:283,18
DA:284,18
DA:285,18
DA:286,18
DA:289,18
DA:291,18
DA:292,18
DA:295,14
DA:298,14
DA:299,13
DA:303,5
DA:309,5
DA:310,5
DA:313,1
DA:314,1
DA:315,1
DA:318,2
DA:320,2
DA:321,2
DA:325,1
DA:326,1
DA:327,1
DA:331,1
DA:336,1
DA:337,1
DA:340,2
DA:342,2
DA:343,2
DA:347,1
DA:350,1
DA:351,1
DA:354,5
DA:355,5
DA:356,4
DA:359,4
DA:361,4
DA:362,4
DA:366,1
DA:367,1
DA:368,1
DA:372,1
DA:377,1
DA:378,1
LF:61
LH:60
end_of_record
TN:
SF:/home/jenkins/libs/bsw/asyncFreeRtos/src/async/Async.cpp
FN:9,_ZN5async7executeEhRNS_9IRunnableE
FN:14,_ZN5async8scheduleEhRNS_9IRunnableERNS_11TimeoutTypeEjNS_8TimeUnit4TypeE
FN:24,_ZN5async19scheduleAtFixedRateEhRNS_9IRunnableERNS_11TimeoutTypeEjNS_8TimeUnit4TypeE
FN:38,vApplicationIdleHook
FN:40,vApplicationGetIdleTaskMemory
FN:49,vApplicationGetTimerTaskMemory
FNDA:1,_ZN5async7executeEhRNS_9IRunnableE
FNDA:1,vApplicationGetIdleTaskMemory
FNDA:1,_ZN5async8scheduleEhRNS_9IRunnableERNS_11TimeoutTypeEjNS_8TimeUnit4TypeE
FNDA:1,vApplicationIdleHook
FNDA:1,vApplicationGetTimerTaskMemory
FNDA:1,_ZN5async19scheduleAtFixedRateEhRNS_9IRunnableERNS_11TimeoutTypeEjNS_8TimeUnit4TypeE
FNF:6
FNH:6
DA:9,1
DA:11,1
DA:12,1
DA:14,1
DA:21,1
DA:22,1
DA:24,1
DA:31,1
DA:32,1
DA:38,1
DA:40,1
DA:45,1
DA:47,1
DA:49,1
DA:54,1
DA:56,1
LF:16
LH:16
end_of_record
TN:
SF:/home/jenkins/libs/bsw/asyncFreeRtos/src/async/FutureSupport.cpp
FN:11,_ZN5async13FutureSupportC2Eh
FN:16,_ZN5async13FutureSupport4waitEv
FN:33,_ZN5async13FutureSupport6notifyEv
FN:48,_ZN5async13FutureSupport17assertTaskContextEv
FN:50,_ZN5async13FutureSupport17verifyTaskContextEv
FNDA:2,_ZN5async13FutureSupport6notifyEv
FNDA:4,_ZN5async13FutureSupport17verifyTaskContextEv
FNDA:2,_ZN5async13FutureSupport17assertTaskContextEv
FNDA:2,_ZN5async13FutureSupport4waitEv
FNDA:1,_ZN5async13FutureSupportC2Eh
FNF:5
FNH:5
DA:11,1
DA:13,1
DA:14,1
DA:16,2
DA:18,2
DA:20,2
DA:21,2
DA:24,4
DA:26,4
DA:28,2
DA:33,2
DA:36,2
DA:37,2
DA:39,1
DA:43,1
DA:46,2
DA:48,2
DA:50,4
DA:52,4
LF:19
LH:19
end_of_record
TN:
SF:/home/jenkins/libs/bsw/asyncFreeRtos/src/async/Hook.cpp
FN:17,asyncInitialized
FN:19,asyncGetTaskConfig
FN:21,asyncEnterTask
FN:23,asyncLeaveTask
FN:25,asyncEnterIsrGroup
FN:31,asyncLeaveIsrGroup
FN:38,asyncTickHook
FNDA:1,asyncLeaveIsrGroup
FNDA:1,asyncGetTaskConfig
FNDA:1,asyncEnterIsrGroup
FNDA:1,asyncLeaveTask
FNDA:2,asyncTickHook
FNDA:1,asyncInitialized
FNDA:1,asyncEnterTask
FNF:7
FNH:7
DA:17,1
DA:19,1
DA:21,1
DA:23,1
DA:25,1
DA:27,1
DA:28,1
DA:29,1
DA:31,1
DA:33,1
DA:34,1
DA:35,1
DA:38,2
DA:40,2
DA:41,2
DA:42,2
LF:16
LH:16
end_of_record
TN:
SF:/home/jenkins/libs/bsw/asyncFreeRtos/src/async/Types.cpp
FN:7,_ZN5async11TimeoutTypeC2Ev
FN:9,_ZN5async11TimeoutType6cancelEv
FN:11,_ZN5async11TimeoutType7expiredEv
FNDA:5,_ZN5async11TimeoutType7expiredEv
FNDA:26,_ZN5async11TimeoutTypeC2Ev
FNDA:2,_ZN5async11TimeoutType6cancelEv
FNF:3
FNH:3
DA:7,26
DA:9,2
DA:11,5
DA:13,5
DA:14,5
DA:16,4
DA:18,5
LF:7
LH:7
end_of_record
TN:
SF:/home/jenkins/libs/bsw/asyncImpl/include/async/EventDispatcher.h
FN:64,_ZN5async15EventDispatcherILm2ENS_4LockEE15setEventHandlerEmN3etl8delegateIFvvEEE
FN:64,_ZN5async15EventDispatcherILm3EN12_GLOBAL__N_18TestLockEE15setEventHandlerEmN3etl8delegateIFvvEEE
FN:72,_ZN5async15EventDispatcherILm3EN12_GLOBAL__N_18TestLockEE18removeEventHandlerEm
FN:79,_ZNK5async15EventDispatcherILm3EN12_GLOBAL__N_18TestLockEE12handleEventsEj
FN:79,_ZNK5async15EventDispatcherILm2ENS_4LockEE12handleEventsEj
FN:86,_ZN5async15EventDispatcherILm3EN12_GLOBAL__N_18TestLockEE19EventDispatcherImplILm0ELb1EE12handleEventsERKN3etl5arrayINS6_8delegateIFvvEEELm3EEEj
FN:86,_ZN5async15EventDispatcherILm3EN12_GLOBAL__N_18TestLockEE19EventDispatcherImplILm2ELb1EE12handleEventsERKN3etl5arrayINS6_8delegateIFvvEEELm3EEEj
FN:86,_ZN5async15EventDispatcherILm2ENS_4LockEE19EventDispatcherImplILm1ELb1EE12handleEventsERKN3etl5arrayINS5_8delegateIFvvEEELm2EEEj
FN:86,_ZN5async15EventDispatcherILm2ENS_4LockEE19EventDispatcherImplILm0ELb1EE12handleEventsERKN3etl5arrayINS5_8delegateIFvvEEELm2EEEj
FN:86,_ZN5async15EventDispatcherILm3EN12_GLOBAL__N_18TestLockEE19EventDispatcherImplILm1ELb1EE12handleEventsERKN3etl5arrayINS6_8delegateIFvvEEELm3EEEj
FN:98,_ZN5async15EventDispatcherILm2ENS_4LockEE19EventDispatcherImplILm2ELb0EE12handleEventsERKN3etl5arrayINS5_8delegateIFvvEEELm2EEEj
FN:98,_ZN5async15EventDispatcherILm3EN12_GLOBAL__N_18TestLockEE19EventDispatcherImplILm3ELb0EE12handleEventsERKN3etl5arrayINS6_8delegateIFvvEEELm3EEEj
FNDA:4,_ZN5async15EventDispatcherILm3EN12_GLOBAL__N_18TestLockEE19EventDispatcherImplILm1ELb1EE12handleEventsERKN3etl5arrayINS6_8delegateIFvvEEELm3EEEj
FNDA:26,_ZN5async15EventDispatcherILm2ENS_4LockEE19EventDispatcherImplILm0ELb1EE12handleEventsERKN3etl5arrayINS5_8delegateIFvvEEELm2EEEj
FNDA:26,_ZNK5async15EventDispatcherILm2ENS_4LockEE12handleEventsEj
FNDA:4,_ZNK5async15EventDispatcherILm3EN12_GLOBAL__N_18TestLockEE12handleEventsEj
FNDA:26,_ZN5async15EventDispatcherILm2ENS_4LockEE19EventDispatcherImplILm1ELb1EE12handleEventsERKN3etl5arrayINS5_8delegateIFvvEEELm2EEEj
FNDA:4,_ZN5async15EventDispatcherILm3EN12_GLOBAL__N_18TestLockEE19EventDispatcherImplILm3ELb0EE12handleEventsERKN3etl5arrayINS6_8delegateIFvvEEELm3EEEj
FNDA:3,_ZN5async15EventDispatcherILm3EN12_GLOBAL__N_18TestLockEE15setEventHandlerEmN3etl8delegateIFvvEEE
FNDA:1,_ZN5async15EventDispatcherILm3EN12_GLOBAL__N_18TestLockEE18removeEventHandlerEm
FNDA:362,_ZN5async15EventDispatcherILm2ENS_4LockEE15setEventHandlerEmN3etl8delegateIFvvEEE
FNDA:4,_ZN5async15EventDispatcherILm3EN12_GLOBAL__N_18TestLockEE19EventDispatcherImplILm2ELb1EE12handleEventsERKN3etl5arrayINS6_8delegateIFvvEEELm3EEEj
FNDA:4,_ZN5async15EventDispatcherILm3EN12_GLOBAL__N_18TestLockEE19EventDispatcherImplILm0ELb1EE12handleEventsERKN3etl5arrayINS6_8delegateIFvvEEELm3EEEj
FNDA:26,_ZN5async15EventDispatcherILm2ENS_4LockEE19EventDispatcherImplILm2ELb0EE12handleEventsERKN3etl5arrayINS5_8delegateIFvvEEELm2EEEj
FNF:12
FNH:12
DA:64,365
DA:67,365
DA:68,365
DA:69,365
DA:72,1
DA:74,1
DA:75,1
DA:76,1
DA:79,30
DA:81,30
DA:82,30
DA:86,64
DA:89,64
DA:91,21
DA:93,64
DA:94,64
DA:98,30
DA:100,30
LF:18
LH:18
end_of_record
TN:
SF:/home/jenkins/libs/bsw/asyncImpl/include/async/EventPolicy.h
FN:43,_ZN5async11EventPolicyIN12_GLOBAL__N_120RunnableExecutorTestELm2EEC2ERS2_
FN:43,_ZN5async11EventPolicyINS_11TaskContextINS_15FreeRtosAdapterINS_12AsyncBindingEEEEELm0EEC2ERS5_
FN:43,_ZN5async11EventPolicyINS_11TaskContextIN12_GLOBAL__N_115TestBindingMockEEELm0EEC2ERS4_
FN:43,_ZN5async11EventPolicyINS_11TaskContextINS_15FreeRtosAdapterIN12_GLOBAL__N_111TestBindingEEEEELm0EEC2ERS6_
FN:43,_ZN5async11EventPolicyINS_11TaskContextIN12_GLOBAL__N_115TestBindingMockEEELm1EEC2ERS4_
FN:43,_ZN5async11EventPolicyINS_11TaskContextINS_15FreeRtosAdapterINS_12AsyncBindingEEEEELm1EEC2ERS5_
FN:43,_ZN5async11EventPolicyIN12_GLOBAL__N_115EventPolicyTestELm1EEC2ERS2_
FN:43,_ZN5async11EventPolicyINS_11TaskContextINS_15FreeRtosAdapterIN12_GLOBAL__N_111TestBindingEEEEELm1EEC2ERS6_
FN:49,_ZN5async11EventPolicyINS_11TaskContextINS_15FreeRtosAdapterIN12_GLOBAL__N_111TestBindingEEEEELm1EE15setEventHandlerEN3etl8delegateIFvvEEE
FN:49,_ZN5async11EventPolicyINS_11TaskContextIN12_GLOBAL__N_115TestBindingMockEEELm0EE15setEventHandlerEN3etl8delegateIFvvEEE
FN:49,_ZN5async11EventPolicyIN12_GLOBAL__N_120RunnableExecutorTestELm2EE15setEventHandlerEN3etl8delegateIFvvEEE
FN:49,_ZN5async11EventPolicyIN12_GLOBAL__N_115EventPolicyTestELm1EE15setEventHandlerEN3etl8delegateIFvvEEE
FN:49,_ZN5async11EventPolicyINS_11TaskContextINS_15FreeRtosAdapterIN12_GLOBAL__N_111TestBindingEEEEELm0EE15setEventHandlerEN3etl8delegateIFvvEEE
FN:49,_ZN5async11EventPolicyINS_11TaskContextINS_15FreeRtosAdapterINS_12AsyncBindingEEEEELm0EE15setEventHandlerEN3etl8delegateIFvvEEE
FN:49,_ZN5async11EventPolicyINS_11TaskContextINS_15FreeRtosAdapterINS_12AsyncBindingEEEEELm1EE15setEventHandlerEN3etl8delegateIFvvEEE
FN:49,_ZN5async11EventPolicyINS_11TaskContextIN12_GLOBAL__N_115TestBindingMockEEELm1EE15setEventHandlerEN3etl8delegateIFvvEEE
FN:55,_ZN5async11EventPolicyIN12_GLOBAL__N_120RunnableExecutorTestELm2EE18removeEventHandlerEv
FN:55,_ZN5async11EventPolicyIN12_GLOBAL__N_115EventPolicyTestELm1EE18removeEventHandlerEv
FN:61,_ZN5async11EventPolicyINS_11TaskContextIN12_GLOBAL__N_115TestBindingMockEEELm0EE8setEventEv
FN:61,_ZN5async11EventPolicyINS_11TaskContextINS_15FreeRtosAdapterINS_12AsyncBindingEEEEELm0EE8setEventEv
FN:61,_ZN5async11EventPolicyINS_11TaskContextINS_15FreeRtosAdapterIN12_GLOBAL__N_111TestBindingEEEEELm1EE8setEventEv
FN:61,_ZN5async11EventPolicyIN12_GLOBAL__N_120RunnableExecutorTestELm2EE8setEventEv
FN:61,_ZN5async11EventPolicyINS_11TaskContextINS_15FreeRtosAdapterIN12_GLOBAL__N_111TestBindingEEEEELm0EE8setEventEv
FN:61,_ZN5async11EventPolicyINS_11TaskContextIN12_GLOBAL__N_115TestBindingMockEEELm1EE8setEventEv
FN:61,_ZN5async11EventPolicyIN12_GLOBAL__N_115EventPolicyTestELm1EE8setEventEv
FN:61,_ZN5async11EventPolicyINS_11TaskContextINS_15FreeRtosAdapterINS_12AsyncBindingEEEEELm1EE8setEventEv
FNDA:1,_ZN5async11EventPolicyIN12_GLOBAL__N_120RunnableExecutorTestELm2EE15setEventHandlerEN3etl8delegateIFvvEEE
FNDA:1,_ZN5async11EventPolicyIN12_GLOBAL__N_120RunnableExecutorTestELm2EE18removeEventHandlerEv
FNDA:7,_ZN5async11EventPolicyINS_11TaskContextIN12_GLOBAL__N_115TestBindingMockEEELm0EEC2ERS4_
FNDA:87,_ZN5async11EventPolicyINS_11TaskContextINS_15FreeRtosAdapterIN12_GLOBAL__N_111TestBindingEEEEELm0EEC2ERS6_
FNDA:1,_ZN5async11EventPolicyIN12_GLOBAL__N_115EventPolicyTestELm1EE15setEventHandlerEN3etl8delegateIFvvEEE
FNDA:1,_ZN5async11EventPolicyINS_11TaskContextINS_15FreeRtosAdapterIN12_GLOBAL__N_111TestBindingEEEEELm0EE8setEventEv
FNDA:87,_ZN5async11EventPolicyINS_11TaskContextINS_15FreeRtosAdapterIN12_GLOBAL__N_111TestBindingEEEEELm0EE15setEventHandlerEN3etl8delegateIFvvEEE
FNDA:5,_ZN5async11EventPolicyINS_11TaskContextIN12_GLOBAL__N_115TestBindingMockEEELm1EE8setEventEv
FNDA:3,_ZN5async11EventPolicyINS_11TaskContextIN12_GLOBAL__N_115TestBindingMockEEELm0EE8setEventEv
FNDA:87,_ZN5async11EventPolicyINS_11TaskContextINS_15FreeRtosAdapterIN12_GLOBAL__N_111TestBindingEEEEELm1EE15setEventHandlerEN3etl8delegateIFvvEEE
FNDA:1,_ZN5async11EventPolicyINS_11TaskContextINS_15FreeRtosAdapterINS_12AsyncBindingEEEEELm0EE8setEventEv
FNDA:7,_ZN5async11EventPolicyINS_11TaskContextIN12_GLOBAL__N_115TestBindingMockEEELm0EE15setEventHandlerEN3etl8delegateIFvvEEE
FNDA:2,_ZN5async11EventPolicyINS_11TaskContextINS_15FreeRtosAdapterIN12_GLOBAL__N_111TestBindingEEEEELm1EE8setEventEv
FNDA:87,_ZN5async11EventPolicyINS_11TaskContextINS_15FreeRtosAdapterINS_12AsyncBindingEEEEELm0EEC2ERS5_
FNDA:4,_ZN5async11EventPolicyIN12_GLOBAL__N_120RunnableExecutorTestELm2EE8setEventEv
FNDA:1,_ZN5async11EventPolicyIN12_GLOBAL__N_120RunnableExecutorTestELm2EEC2ERS2_
FNDA:1,_ZN5async11EventPolicyIN12_GLOBAL__N_115EventPolicyTestELm1EEC2ERS2_
FNDA:87,_ZN5async11EventPolicyINS_11TaskContextINS_15FreeRtosAdapterIN12_GLOBAL__N_111TestBindingEEEEELm1EEC2ERS6_
FNDA:7,_ZN5async11EventPolicyINS_11TaskContextIN12_GLOBAL__N_115TestBindingMockEEELm1EEC2ERS4_
FNDA:1,_ZN5async11EventPolicyIN12_GLOBAL__N_115EventPolicyTestELm1EE8setEventEv
FNDA:1,_ZN5async11EventPolicyIN12_GLOBAL__N_115EventPolicyTestELm1EE18removeEventHandlerEv
FNDA:87,_ZN5async11EventPolicyINS_11TaskContextINS_15FreeRtosAdapterINS_12AsyncBindingEEEEELm1EEC2ERS5_
FNDA:7,_ZN5async11EventPolicyINS_11TaskContextIN12_GLOBAL__N_115TestBindingMockEEELm1EE15setEventHandlerEN3etl8delegateIFvvEEE
FNDA:87,_ZN5async11EventPolicyINS_11TaskContextINS_15FreeRtosAdapterINS_12AsyncBindingEEEEELm0EE15setEventHandlerEN3etl8delegateIFvvEEE
FNDA:87,_ZN5async11EventPolicyINS_11TaskContextINS_15FreeRtosAdapterINS_12AsyncBindingEEEEELm1EE15setEventHandlerEN3etl8delegateIFvvEEE
FNDA:2,_ZN5async11EventPolicyINS_11TaskContextINS_15FreeRtosAdapterINS_12AsyncBindingEEEEELm1EE8setEventEv
FNF:26
FNH:26
DA:43,364
DA:44,364
DA:45,364
DA:49,364
DA:51,364
DA:52,364
DA:55,2
DA:57,2
DA:58,2
DA:61,19
DA:63,19
DA:64,19
LF:12
LH:12
end_of_record
TN:
SF:/home/jenkins/libs/bsw/asyncImpl/include/async/Queue.h
FN:31,_ZN5async5QueueIN12_GLOBAL__N_18TestNodeEEC2Ev
FN:31,_ZN5async5QueueINS_9IRunnableEEC2Ev
FN:35,_ZN5async5QueueIN12_GLOBAL__N_18TestNodeEE7enqueueERS2_
FN:35,_ZN5async5QueueINS_9IRunnableEE7enqueueERS1_
FN:50,_ZN5async5QueueIN12_GLOBAL__N_18TestNodeEE7dequeueEv
FN:50,_ZN5async5QueueINS_9IRunnableEE7dequeueEv
FN:66,_ZN5async5QueueIN12_GLOBAL__N_18TestNodeEE5clearEv
FN:76,_ZN5async5QueueIN12_GLOBAL__N_18TestNodeEE6removeERS2_
FNDA:4,_ZN5async5QueueIN12_GLOBAL__N_18TestNodeEE6removeERS2_
FNDA:15,_ZN5async5QueueIN12_GLOBAL__N_18TestNodeEE7dequeueEv
FNDA:13,_ZN5async5QueueIN12_GLOBAL__N_18TestNodeEE7enqueueERS2_
FNDA:1,_ZN5async5QueueIN12_GLOBAL__N_18TestNodeEEC2Ev
FNDA:11,_ZN5async5QueueINS_9IRunnableEE7dequeueEv
FNDA:1,_ZN5async5QueueIN12_GLOBAL__N_18TestNodeEE5clearEv
FNDA:182,_ZN5async5QueueINS_9IRunnableEEC2Ev
FNDA:8,_ZN5async5QueueINS_9IRunnableEE7enqueueERS1_
FNF:8
FNH:8
DA:31,183
DA:32,183
DA:35,21
DA:37,21
DA:38,21
DA:40,9
DA:44,12
DA:46,21
DA:47,21
DA:50,26
DA:52,26
DA:54,14
DA:55,14
DA:57,9
DA:59,14
DA:60,14
DA:62,12
DA:66,1
DA:68,3
DA:70,2
DA:72,1
DA:73,1
DA:76,4
DA:78,4
DA:79,4
DA:80,6
DA:82,5
DA:84,3
DA:86,2
DA:90,1
DA:92,3
DA:94,1
DA:96,3
DA:98,2
DA:99,2
DA:101,4
LF:36
LH:36
end_of_record
TN:
SF:/home/jenkins/libs/bsw/asyncImpl/include/async/QueueNode.h
FN:32,_ZN5async9QueueNodeIN12_GLOBAL__N_18TestNodeEEC2Ev
FN:32,_ZN5async9QueueNodeINS_9IRunnableEEC2Ev
FN:36,_ZNK5async9QueueNodeINS_9IRunnableEE10isEnqueuedEv
FN:36,_ZNK5async9QueueNodeIN12_GLOBAL__N_18TestNodeEE10isEnqueuedEv
FN:42,_ZNK5async9QueueNodeIN12_GLOBAL__N_18TestNodeEE7getNextEv
FN:48,_ZN5async9QueueNodeINS_9IRunnableEE7setNextEPS1_
FN:48,_ZN5async9QueueNodeIN12_GLOBAL__N_18TestNodeEE7setNextEPS2_
FN:54,_ZN5async9QueueNodeINS_9IRunnableEE7enqueueEv
FN:54,_ZN5async9QueueNodeIN12_GLOBAL__N_18TestNodeEE7enqueueEv
FN:60,_ZN5async9QueueNodeIN12_GLOBAL__N_18TestNodeEE7dequeueEv
FN:60,_ZN5async9QueueNodeINS_9IRunnableEE7dequeueEv
FNDA:2,_ZN5async9QueueNodeINS_9IRunnableEE7setNextEPS1_
FNDA:6,_ZN5async9QueueNodeIN12_GLOBAL__N_18TestNodeEEC2Ev
FNDA:8,_ZN5async9QueueNodeINS_9IRunnableEE7enqueueEv
FNDA:15,_ZN5async9QueueNodeIN12_GLOBAL__N_18TestNodeEE7dequeueEv
FNDA:16,_ZN5async9QueueNodeIN12_GLOBAL__N_18TestNodeEE7enqueueEv
FNDA:12,_ZN5async9QueueNodeIN12_GLOBAL__N_18TestNodeEE7setNextEPS2_
FNDA:34,_ZNK5async9QueueNodeIN12_GLOBAL__N_18TestNodeEE10isEnqueuedEv
FNDA:6,_ZN5async9QueueNodeINS_9IRunnableEE7dequeueEv
FNDA:9,_ZNK5async9QueueNodeINS_9IRunnableEE10isEnqueuedEv
FNDA:29,_ZN5async9QueueNodeINS_9IRunnableEEC2Ev
FNDA:7,_ZNK5async9QueueNodeIN12_GLOBAL__N_18TestNodeEE7getNextEv
FNF:11
FNH:11
DA:32,35
DA:33,35
DA:36,43
DA:38,43
DA:42,7
DA:44,7
DA:48,14
DA:50,14
DA:51,14
DA:54,24
DA:56,24
DA:57,24
DA:60,21
DA:62,21
DA:63,21
DA:64,21
LF:16
LH:16
end_of_record
TN:
SF:/home/jenkins/libs/bsw/asyncImpl/include/async/RunnableExecutor.h
FN:50,_ZN5async16RunnableExecutorINS_9IRunnableENS_11EventPolicyINS_11TaskContextIN12_GLOBAL__N_115TestBindingMockEEELm0EEENS_4LockEEC2ERS6_
FN:50,_ZN5async16RunnableExecutorINS_9IRunnableENS_11EventPolicyINS_11TaskContextINS_15FreeRtosAdapterIN12_GLOBAL__N_111TestBindingEEEEELm0EEENS_4LockEEC2ERS8_
FN:50,_ZN5async16RunnableExecutorINS_9IRunnableENS_11EventPolicyINS_11TaskContextINS_15FreeRtosAdapterINS_12AsyncBindingEEEEELm0EEENS_4LockEEC2ERS7_
FN:50,_ZN5async16RunnableExecutorINS_9IRunnableENS_11EventPolicyIN12_GLOBAL__N_120RunnableExecutorTestELm2EEENS3_8TestLockEEC2ERS4_
FN:56,_ZN5async16RunnableExecutorINS_9IRunnableENS_11EventPolicyIN12_GLOBAL__N_120RunnableExecutorTestELm2EEENS3_8TestLockEE4initEv
FN:56,_ZN5async16RunnableExecutorINS_9IRunnableENS_11EventPolicyINS_11TaskContextINS_15FreeRtosAdapterINS_12AsyncBindingEEEEELm0EEENS_4LockEE4initEv
FN:56,_ZN5async16RunnableExecutorINS_9IRunnableENS_11EventPolicyINS_11TaskContextINS_15FreeRtosAdapterIN12_GLOBAL__N_111TestBindingEEEEELm0EEENS_4LockEE4initEv
FN:56,_ZN5async16RunnableExecutorINS_9IRunnableENS_11EventPolicyINS_11TaskContextIN12_GLOBAL__N_115TestBindingMockEEELm0EEENS_4LockEE4initEv
FN:64,_ZN5async16RunnableExecutorINS_9IRunnableENS_11EventPolicyIN12_GLOBAL__N_120RunnableExecutorTestELm2EEENS3_8TestLockEE8shutdownEv
FN:70,_ZN5async16RunnableExecutorINS_9IRunnableENS_11EventPolicyIN12_GLOBAL__N_120RunnableExecutorTestELm2EEENS3_8TestLockEE7enqueueERS1_
FN:70,_ZN5async16RunnableExecutorINS_9IRunnableENS_11EventPolicyINS_11TaskContextINS_15FreeRtosAdapterINS_12AsyncBindingEEEEELm0EEENS_4LockEE7enqueueERS1_
FN:70,_ZN5async16RunnableExecutorINS_9IRunnableENS_11EventPolicyINS_11TaskContextINS_15FreeRtosAdapterIN12_GLOBAL__N_111TestBindingEEEEELm0EEENS_4LockEE7enqueueERS1_
FN:70,_ZN5async16RunnableExecutorINS_9IRunnableENS_11EventPolicyINS_11TaskContextIN12_GLOBAL__N_115TestBindingMockEEELm0EEENS_4LockEE7enqueueERS1_
FN:83,_ZN5async16RunnableExecutorINS_9IRunnableENS_11EventPolicyINS_11TaskContextINS_15FreeRtosAdapterIN12_GLOBAL__N_111TestBindingEEEEELm0EEENS_4LockEE11handleEventEv
FN:83,_ZN5async16RunnableExecutorINS_9IRunnableENS_11EventPolicyINS_11TaskContextIN12_GLOBAL__N_115TestBindingMockEEELm0EEENS_4LockEE11handleEventEv
FN:83,_ZN5async16RunnableExecutorINS_9IRunnableENS_11EventPolicyIN12_GLOBAL__N_120RunnableExecutorTestELm2EEENS3_8TestLockEE11handleEventEv
FN:83,_ZN5async16RunnableExecutorINS_9IRunnableENS_11EventPolicyINS_11TaskContextINS_15FreeRtosAdapterINS_12AsyncBindingEEEEELm0EEENS_4LockEE11handleEventEv
FNDA:1,_ZN5async16RunnableExecutorINS_9IRunnableENS_11EventPolicyINS_11TaskContextINS_15FreeRtosAdapterINS_12AsyncBindingEEEEELm0EEENS_4LockEE7enqueueERS1_
FNDA:7,_ZN5async16RunnableExecutorINS_9IRunnableENS_11EventPolicyINS_11TaskContextIN12_GLOBAL__N_115TestBindingMockEEELm0EEENS_4LockEE4initEv
FNDA:1,_ZN5async16RunnableExecutorINS_9IRunnableENS_11EventPolicyINS_11TaskContextINS_15FreeRtosAdapterIN12_GLOBAL__N_111TestBindingEEEEELm0EEENS_4LockEE7enqueueERS1_
FNDA:87,_ZN5async16RunnableExecutorINS_9IRunnableENS_11EventPolicyINS_11TaskContextINS_15FreeRtosAdapterIN12_GLOBAL__N_111TestBindingEEEEELm0EEENS_4LockEEC2ERS8_
FNDA:3,_ZN5async16RunnableExecutorINS_9IRunnableENS_11EventPolicyINS_11TaskContextIN12_GLOBAL__N_115TestBindingMockEEELm0EEENS_4LockEE7enqueueERS1_
FNDA:87,_ZN5async16RunnableExecutorINS_9IRunnableENS_11EventPolicyINS_11TaskContextINS_15FreeRtosAdapterINS_12AsyncBindingEEEEELm0EEENS_4LockEEC2ERS7_
FNDA:0,_ZN5async16RunnableExecutorINS_9IRunnableENS_11EventPolicyINS_11TaskContextINS_15FreeRtosAdapterINS_12AsyncBindingEEEEELm0EEENS_4LockEE11handleEventEv
FNDA:1,_ZN5async16RunnableExecutorINS_9IRunnableENS_11EventPolicyIN12_GLOBAL__N_120RunnableExecutorTestELm2EEENS3_8TestLockEEC2ERS4_
FNDA:2,_ZN5async16RunnableExecutorINS_9IRunnableENS_11EventPolicyIN12_GLOBAL__N_120RunnableExecutorTestELm2EEENS3_8TestLockEE11handleEventEv
FNDA:7,_ZN5async16RunnableExecutorINS_9IRunnableENS_11EventPolicyINS_11TaskContextIN12_GLOBAL__N_115TestBindingMockEEELm0EEENS_4LockEEC2ERS6_
FNDA:1,_ZN5async16RunnableExecutorINS_9IRunnableENS_11EventPolicyIN12_GLOBAL__N_120RunnableExecutorTestELm2EEENS3_8TestLockEE4initEv
FNDA:1,_ZN5async16RunnableExecutorINS_9IRunnableENS_11EventPolicyIN12_GLOBAL__N_120RunnableExecutorTestELm2EEENS3_8TestLockEE8shutdownEv
FNDA:4,_ZN5async16RunnableExecutorINS_9IRunnableENS_11EventPolicyIN12_GLOBAL__N_120RunnableExecutorTestELm2EEENS3_8TestLockEE7enqueueERS1_
FNDA:0,_ZN5async16RunnableExecutorINS_9IRunnableENS_11EventPolicyINS_11TaskContextINS_15FreeRtosAdapterIN12_GLOBAL__N_111TestBindingEEEEELm0EEENS_4LockEE11handleEventEv
FNDA:87,_ZN5async16RunnableExecutorINS_9IRunnableENS_11EventPolicyINS_11TaskContextINS_15FreeRtosAdapterINS_12AsyncBindingEEEEELm0EEENS_4LockEE4initEv
FNDA:3,_ZN5async16RunnableExecutorINS_9IRunnableENS_11EventPolicyINS_11TaskContextIN12_GLOBAL__N_115TestBindingMockEEELm0EEENS_4LockEE11handleEventEv
FNDA:87,_ZN5async16RunnableExecutorINS_9IRunnableENS_11EventPolicyINS_11TaskContextINS_15FreeRtosAdapterIN12_GLOBAL__N_111TestBindingEEEEELm0EEENS_4LockEE4initEv
FNF:17
FNH:15
DA:50,182
DA:52,182
DA:53,182
DA:56,182
DA:58,182
DA:61,182
DA:64,1
DA:66,1
DA:67,1
DA:70,9
DA:73,9
DA:74,9
DA:76,8
DA:78,9
DA:79,9
DA:80,9
DA:83,11
DA:85,6
DA:89,11
DA:90,11
DA:91,11
DA:92,11
DA:94,6
DA:98,5
DA:101,5
LF:25
LH:25
end_of_record
TN:
SF:/home/jenkins/libs/bsw/bsp/include/bsp/can/canTransceiver/CanPhy.h
FN:44,_ZN4bios6CanPhy7getModeEj
FN:49,_ZN4bios11CanPhyDummy11getInstanceEv
FN:60,_ZN4bios11CanPhyDummy4initEj
FN:62,_ZN4bios11CanPhyDummy7setModeENS_6CanPhy4ModeEj
FN:68,_ZN4bios11CanPhyDummy17getPhyErrorStatusEj
FNDA:1,_ZN4bios11CanPhyDummy7setModeENS_6CanPhy4ModeEj
FNDA:1,_ZN4bios11CanPhyDummy11getInstanceEv
FNDA:1,_ZN4bios11CanPhyDummy4initEj
FNDA:1,_ZN4bios6CanPhy7getModeEj
FNDA:1,_ZN4bios11CanPhyDummy17getPhyErrorStatusEj
FNF:5
FNH:5
DA:44,1
DA:49,1
DA:52,1
DA:60,1
DA:62,1
DA:64,1
DA:65,1
DA:68,1
DA:70,1
LF:9
LH:9
end_of_record
TN:
SF:/home/jenkins/libs/bsw/bsp/include/bsp/timer/isEqualAfterTimeout.h
FN:22,_ZN3bsp19isEqualAfterTimeoutIjEEbPKT_S1_S1_j
FNDA:2,_ZN3bsp19isEqualAfterTimeoutIjEEbPKT_S1_S1_j
FNF:1
FNH:1
DA:22,2
DA:24,2
DA:26,3
DA:27,2
LF:4
LH:4
end_of_record
TN:
SF:/home/jenkins/libs/bsw/common/include/util/Mask.h
FN:24,_ZN4MaskIN3uds11DiagSessionEhEC2ERKS2_
FN:58,_ZN4MaskIN3uds11DiagSessionEhE5clearEv
FN:62,_ZNK4MaskIN3uds11DiagSessionEhE5matchERKS1_
FN:74,_ZN4MaskIN3uds11DiagSessionEhElsERKS1_
FN:88,_ZN4MaskIN3uds11DiagSessionEhE11getOpenMaskEv
FN:90,_ZN4MaskIN3uds11DiagSessionEhE11getInstanceEv
FN:106,_ZN4MaskIN3uds11DiagSessionEhEC2Eh
FNDA:447,_ZN4MaskIN3uds11DiagSessionEhE5clearEv
FNDA:127,_ZNK4MaskIN3uds11DiagSessionEhE5matchERKS1_
FNDA:508,_ZN4MaskIN3uds11DiagSessionEhEC2Eh
FNDA:2566,_ZN4MaskIN3uds11DiagSessionEhEC2ERKS2_
FNDA:229,_ZN4MaskIN3uds11DiagSessionEhE11getOpenMaskEv
FNDA:377,_ZN4MaskIN3uds11DiagSessionEhElsERKS1_
FNDA:447,_ZN4MaskIN3uds11DiagSessionEhE11getInstanceEv
FNF:7
FNH:7
DA:24,2566
DA:58,447
DA:62,127
DA:64,127
DA:65,127
DA:74,377
DA:76,377
DA:77,377
DA:78,377
DA:88,229
DA:90,447
DA:92,447
DA:93,447
DA:94,447
DA:106,508
DA:107,508
LF:16
LH:16
end_of_record
TN:
SF:/home/jenkins/libs/bsw/common/include/util/concurrent/IFutureSupport.h
FN:17,_ZN2os14IFutureSupportC2Ev
FNDA:1,_ZN2os14IFutureSupportC2Ev
FNF:1
FNH:1
DA:17,1
LF:1
LH:1
end_of_record
TN:
SF:/home/jenkins/libs/bsw/cpp2can/include/can/canframes/CANFrame.h
FN:88,_ZNK3can8CANFrame5getIdEv
FN:95,_ZN3can8CANFrame10getPayloadEv
FN:100,_ZNK3can8CANFrame10getPayloadEv
FN:127,_ZNK3can8CANFrame16getPayloadLengthEv
FN:129,_ZN3can8CANFrame19getMaxPayloadLengthEv
FN:143,_ZNK3can8CANFrame9timestampEv
FN:173,_ZN3can8CANFrame5setIdEj
FN:179,_ZN3can8CANFrame10setPayloadEPKhh
FN:187,_ZN3can8CANFrame12setTimestampEj
FNDA:6,_ZN3can8CANFrame12setTimestampEj
FNDA:94,_ZN3can8CANFrame10getPayloadEv
FNDA:23,_ZN3can8CANFrame5setIdEj
FNDA:4,_ZNK3can8CANFrame9timestampEv
FNDA:31,_ZN3can8CANFrame10setPayloadEPKhh
FNDA:51,_ZNK3can8CANFrame10getPayloadEv
FNDA:13,_ZN3can8CANFrame19getMaxPayloadLengthEv
FNDA:30,_ZNK3can8CANFrame5getIdEv
FNDA:31,_ZNK3can8CANFrame16getPayloadLengthEv
FNF:9
FNH:9
DA:88,30
DA:95,94
DA:100,51
DA:127,31
DA:129,13
DA:143,4
DA:173,23
DA:179,31
DA:181,31
DA:183,30
DA:184,30
DA:185,30
DA:187,6
LF:13
LH:13
end_of_record
TN:
SF:/home/jenkins/libs/bsw/cpp2can/include/can/canframes/CanId.h
FN:196,_ZN3can5CanId4baseEt
FN:198,_ZN3can5CanId8extendedEj
FN:203,_ZN3can5CanId9forceNoFdEj
FN:205,_ZN3can5CanId2idEjb
FN:210,_ZN3can5CanId2idEjbb
FN:216,_ZN3can5CanId5rawIdEj
FN:221,_ZN3can5CanId7isValidEj
FN:223,_ZN3can5CanId6isBaseEj
FN:225,_ZN3can5CanId10isExtendedEj
FN:230,_ZN3can5CanId11isForceNoFdEj
FNDA:2,_ZN3can5CanId11isForceNoFdEj
FNDA:3,_ZN3can5CanId2idEjbb
FNDA:3,_ZN3can5CanId5rawIdEj
FNDA:54,_ZN3can5CanId7isValidEj
FNDA:1,_ZN3can5CanId9forceNoFdEj
FNDA:74,_ZN3can5CanId6isBaseEj
FNDA:1,_ZN3can5CanId8extendedEj
FNDA:1,_ZN3can5CanId4baseEt
FNDA:10,_ZN3can5CanId2idEjb
FNDA:2,_ZN3can5CanId10isExtendedEj
FNF:10
FNH:10
DA:196,1
DA:198,1
DA:200,1
DA:203,1
DA:205,10
DA:207,10
DA:210,3
DA:212,3
DA:213,3
DA:216,3
DA:218,3
DA:221,54
DA:223,74
DA:225,2
DA:227,2
DA:230,2
DA:232,2
LF:17
LH:17
end_of_record
TN:
SF:/home/jenkins/libs/bsw/cpp2can/include/can/canframes/ICANFrameSentListener.h
FN:22,_ZN3can21ICANFrameSentListenerC2Ev
FNDA:22,_ZN3can21ICANFrameSentListenerC2Ev
FNF:1
FNH:1
DA:22,22
LF:1
LH:1
end_of_record
TN:
SF:/home/jenkins/libs/bsw/cpp2can/include/can/filter/AbstractStaticBitFieldFilter.h
FN:42,_ZN3can28AbstractStaticBitFieldFilterC2Ev
FN:47,_ZN3can28AbstractStaticBitFieldFilter3addEj
FN:55,_ZN3can28AbstractStaticBitFieldFilter3addEjj
FN:71,_ZN3can28AbstractStaticBitFieldFilter5clearEv
FN:79,_ZN3can28AbstractStaticBitFieldFilter4openEv
FN:87,_ZN3can28AbstractStaticBitFieldFilter12acceptMergerERNS_7IMergerE
FN:111,_ZN3caneqERKNS_28AbstractStaticBitFieldFilterES2_
FNDA:1,_ZN3can28AbstractStaticBitFieldFilter4openEv
FNDA:4,_ZN3can28AbstractStaticBitFieldFilter3addEj
FNDA:4,_ZN3can28AbstractStaticBitFieldFilterC2Ev
FNDA:4,_ZN3can28AbstractStaticBitFieldFilter5clearEv
FNDA:1,_ZN3can28AbstractStaticBitFieldFilter12acceptMergerERNS_7IMergerE
FNDA:2,_ZN3caneqERKNS_28AbstractStaticBitFieldFilterES2_
FNDA:1,_ZN3can28AbstractStaticBitFieldFilter3addEjj
FNF:7
FNH:7
DA:42,4
DA:47,4
DA:50,4
DA:55,1
DA:58,1
DA:71,4
DA:74,4
DA:79,1
DA:82,1
DA:87,1
DA:111,2
DA:113,258
DA:115,257
DA:117,1
DA:120,1
LF:15
LH:15
end_of_record
TN:
SF:/home/jenkins/libs/bsw/cpp2can/include/can/filter/BitFieldFilter.h
FN:81,_ZN3can14BitFieldFilter5clearEv
FN:86,_ZN3can14BitFieldFilter4openEv
FN:91,_ZN3can14BitFieldFilter12acceptMergerERNS_7IMergerE
FN:97,_ZN3can14BitFieldFilter17mergeWithBitFieldERKS0_
FN:109,_ZN3can14BitFieldFilter23mergeWithStaticBitFieldERKNS_28AbstractStaticBitFieldFilterE
FN:121,_ZN3can14BitFieldFilter17mergeWithIntervalERKNS_14IntervalFilterE
FN:131,_ZNK3can14BitFieldFilter14getRawBitFieldEv
FN:148,_ZN3caneqERKNS_14BitFieldFilterES2_
FNDA:9,_ZN3can14BitFieldFilter17mergeWithIntervalERKNS_14IntervalFilterE
FNDA:2,_ZN3caneqERKNS_14BitFieldFilterES2_
FNDA:2,_ZN3can14BitFieldFilter4openEv
FNDA:5,_ZN3can14BitFieldFilter17mergeWithBitFieldERKS0_
FNDA:1,_ZN3can14BitFieldFilter23mergeWithStaticBitFieldERKNS_28AbstractStaticBitFieldFilterE
FNDA:4,_ZN3can14BitFieldFilter12acceptMergerERNS_7IMergerE
FNDA:88,_ZN3can14BitFieldFilter5clearEv
FNDA:2,_ZNK3can14BitFieldFilter14getRawBitFieldEv
FNF:8
FNH:8
DA:81,88
DA:86,2
DA:91,4
DA:97,5
DA:99,1285
DA:101,1280
DA:103,5
DA:109,1
DA:111,257
DA:113,256
DA:115,1
DA:121,9
DA:123,9
DA:126,5
DA:127,5
DA:129,9
DA:131,2
DA:148,2
DA:150,396
DA:152,395
DA:154,1
DA:157,1
LF:22
LH:22
end_of_record
TN:
SF:/home/jenkins/libs/bsw/cpp2can/include/can/filter/IFilter.h
FN:23,_ZN3can7IFilterC2Ev
FNDA:109,_ZN3can7IFilterC2Ev
FNF:1
FNH:1
DA:23,109
LF:1
LH:1
end_of_record
TN:
SF:/home/jenkins/libs/bsw/cpp2can/include/can/filter/IMerger.h
FN:28,_ZN3can7IMergerC2Ev
FNDA:78,_ZN3can7IMergerC2Ev
FNF:1
FNH:1
DA:28,78
LF:1
LH:1
end_of_record
TN:
SF:/home/jenkins/libs/bsw/cpp2can/include/can/filter/IntervalFilter.h
FN:90,_ZN3can14IntervalFilter12acceptMergerERNS_7IMergerE
FN:105,_ZNK3can14IntervalFilter13getLowerBoundEv
FN:110,_ZNK3can14IntervalFilter13getUpperBoundEv
FNDA:27,_ZNK3can14IntervalFilter13getLowerBoundEv
FNDA:30,_ZNK3can14IntervalFilter13getUpperBoundEv
FNDA:6,_ZN3can14IntervalFilter12acceptMergerERNS_7IMergerE
FNF:3
FNH:3
DA:90,6
DA:105,27
DA:110,30
LF:3
LH:3
end_of_record
TN:
SF:/home/jenkins/libs/bsw/cpp2can/include/can/framemgmt/AbstractBitFieldFilteredCANFrameListener.h
FN:38,_ZN3can40AbstractBitFieldFilteredCANFrameListenerC2Ev
FN:43,_ZN3can40AbstractBitFieldFilteredCANFrameListener9getFilterEv
FNDA:11,_ZN3can40AbstractBitFieldFilteredCANFrameListener9getFilterEv
FNDA:3,_ZN3can40AbstractBitFieldFilteredCANFrameListenerC2Ev
FNF:2
FNH:2
DA:38,3
DA:39,3
DA:40,3
DA:43,11
LF:4
LH:4
end_of_record
TN:
SF:/home/jenkins/libs/bsw/cpp2can/include/can/framemgmt/AbstractIntervalFilteredCANFrameListener.h
FN:38,_ZN3can40AbstractIntervalFilteredCANFrameListenerC2Ev
FN:43,_ZN3can40AbstractIntervalFilteredCANFrameListener9getFilterEv
FNDA:4,_ZN3can40AbstractIntervalFilteredCANFrameListenerC2Ev
FNDA:14,_ZN3can40AbstractIntervalFilteredCANFrameListener9getFilterEv
FNF:2
FNH:2
DA:38,4
DA:39,4
DA:40,4
DA:43,14
LF:4
LH:4
end_of_record
TN:
SF:/home/jenkins/libs/bsw/cpp2can/include/can/framemgmt/ICANFrameListener.h
FN:45,_ZN3can17ICANFrameListenerC2Ev
FNDA:19,_ZN3can17ICANFrameListenerC2Ev
FNF:1
FNH:1
DA:45,19
LF:1
LH:1
end_of_record
TN:
SF:/home/jenkins/libs/bsw/cpp2can/include/can/framemgmt/IFilteredCANFrameSentListener.h
FN:41,_ZN3can29IFilteredCANFrameSentListenerC2Ev
FNDA:5,_ZN3can29IFilteredCANFrameSentListenerC2Ev
FNF:1
FNH:1
DA:41,5
LF:1
LH:1
end_of_record
TN:
SF:/home/jenkins/libs/bsw/cpp2can/include/can/transceiver/AbstractCANTransceiver.h
FN:122,_ZNK3can22AbstractCANTransceiver8getBusIdEv
FN:128,_ZNK3can22AbstractCANTransceiver22getCANTransceiverStateEv
FN:138,_ZN3can22AbstractCANTransceiver16setStateListenerERNS_28ICANTransceiverStateListenerE
FN:143,_ZN3can22AbstractCANTransceiver19removeStateListenerEv
FN:161,_ZN3can22AbstractCANTransceiver31notifyStateListenerWithPhyErrorEv
FN:191,_ZNK3can22AbstractCANTransceiver8getStateEv
FN:193,_ZN3can22AbstractCANTransceiver8setStateENS_15ICanTransceiver5StateE
FN:198,_ZNK3can22AbstractCANTransceiver9isInStateENS_15ICanTransceiver5StateE
FN:203,_ZN3can22AbstractCANTransceiver28notifyStateListenerWithStateENS_28ICANTransceiverStateListener19CANTransceiverStateE
FNDA:6,_ZN3can22AbstractCANTransceiver28notifyStateListenerWithStateENS_28ICANTransceiverStateListener19CANTransceiverStateE
FNDA:6,_ZNK3can22AbstractCANTransceiver8getStateEv
FNDA:1,_ZNK3can22AbstractCANTransceiver22getCANTransceiverStateEv
FNDA:3,_ZN3can22AbstractCANTransceiver31notifyStateListenerWithPhyErrorEv
FNDA:2,_ZNK3can22AbstractCANTransceiver9isInStateENS_15ICanTransceiver5StateE
FNDA:2,_ZN3can22AbstractCANTransceiver8setStateENS_15ICanTransceiver5StateE
FNDA:1,_ZN3can22AbstractCANTransceiver19removeStateListenerEv
FNDA:1,_ZN3can22AbstractCANTransceiver16setStateListenerERNS_28ICANTransceiverStateListenerE
FNDA:1,_ZNK3can22AbstractCANTransceiver8getBusIdEv
FNF:9
FNH:9
DA:122,1
DA:128,1
DA:130,1
DA:138,1
DA:140,1
DA:141,1
DA:143,1
DA:161,3
DA:163,3
DA:165,1
DA:167,3
DA:191,6
DA:193,2
DA:195,2
DA:196,2
DA:198,2
DA:200,2
DA:203,6
DA:206,6
DA:208,1
DA:210,6
LF:21
LH:21
end_of_record
TN:
SF:/home/jenkins/libs/bsw/cpp2can/include/can/transceiver/ICanTransceiver.h
FN:59,_ZN3can15ICanTransceiverC2Ev
FNDA:58,_ZN3can15ICanTransceiverC2Ev
FNF:1
FNH:1
DA:59,58
LF:1
LH:1
end_of_record
TN:
SF:/home/jenkins/libs/bsw/cpp2can/src/can/canframes/CANFrame.cpp
FN:24,_ZN3can8CANFrameC2Ev
FN:29,_ZN3can8CANFrameC2Ej
FN:34,_ZN3can8CANFrameC2ERKS0_
FN:40,_ZN3can8CANFrameC2EjPKhh
FN:47,_ZN3can8CANFrameC2EjPKhhb
FN:59,_ZN3can8CANFrameaSERKS0_
FN:71,_ZN3can8CANFrame16setPayloadLengthEh
FN:80,_ZN3caneqERKNS_8CANFrameES2_
FNDA:13,_ZN3can8CANFrameC2ERKS0_
FNDA:1,_ZN3can8CANFrameC2Ej
FNDA:6,_ZN3can8CANFrameC2EjPKhhb
FNDA:13,_ZN3can8CANFrameaSERKS0_
FNDA:29,_ZN3caneqERKNS_8CANFrameES2_
FNDA:15,_ZN3can8CANFrameC2EjPKhh
FNDA:59,_ZN3can8CANFrameC2Ev
FNDA:25,_ZN3can8CANFrame16setPayloadLengthEh
FNF:8
FNH:8
DA:24,59
DA:26,59
DA:27,59
DA:29,1
DA:31,1
DA:32,1
DA:34,13
DA:35,13
DA:37,13
DA:38,13
DA:40,15
DA:41,15
DA:43,15
DA:44,14
DA:45,14
DA:47,6
DA:51,6
DA:52,6
DA:54,6
DA:55,5
DA:56,4
DA:57,4
DA:59,13
DA:61,13
DA:63,12
DA:64,12
DA:65,12
DA:66,12
DA:68,13
DA:71,25
DA:74,25
DA:76,24
DA:78,25
DA:80,29
DA:82,29
DA:84,2
DA:86,27
DA:88,2
DA:90,145
DA:92,121
DA:94,1
DA:97,24
LF:42
LH:42
end_of_record
TN:
SF:/home/jenkins/libs/bsw/cpp2can/src/can/filter/AbstractStaticBitFieldFilter.cpp
FN:8,_ZNK3can28AbstractStaticBitFieldFilter5matchEj
FNDA:3,_ZNK3can28AbstractStaticBitFieldFilter5matchEj
FNF:1
FNH:1
DA:8,3
DA:10,3
DA:12,2
DA:14,2
DA:15,2
DA:17,1
LF:6
LH:6
end_of_record
TN:
SF:/home/jenkins/libs/bsw/cpp2can/src/can/filter/BitFieldFilter.cpp
FN:13,_ZN3can14BitFieldFilterC2Ev
FN:16,_ZN3can14BitFieldFilter3addEj
FN:28,_ZN3can14BitFieldFilter3addEjj
FN:37,_ZNK3can14BitFieldFilter5matchEj
FNDA:10696,_ZN3can14BitFieldFilter3addEj
FNDA:14890,_ZNK3can14BitFieldFilter5matchEj
FNDA:6,_ZN3can14BitFieldFilter3addEjj
FNDA:78,_ZN3can14BitFieldFilterC2Ev
FNF:4
FNH:4
DA:13,78
DA:16,10696
DA:18,10696
DA:20,10694
DA:22,10694
DA:23,10694
DA:25,10696
DA:28,6
DA:30,10555
DA:32,10549
DA:34,6
DA:37,14890
DA:39,14890
DA:41,14884
DA:43,14884
DA:44,14884
DA:46,6
LF:17
LH:17
end_of_record
TN:
SF:/home/jenkins/libs/bsw/cpp2can/src/can/filter/IntervalFilter.cpp
FN:10,_ZN3can14IntervalFilterC2Ev
FN:12,_ZN3can14IntervalFilterC2Ejj
FN:18,_ZN3can14IntervalFilter3addEj
FN:20,_ZN3can14IntervalFilter3addEjj
FN:42,_ZNK3can14IntervalFilter5matchEj
FN:47,_ZN3can14IntervalFilter5clearEv
FN:53,_ZN3can14IntervalFilter4openEv
FNDA:1,_ZN3can14IntervalFilter4openEv
FNDA:26,_ZN3can14IntervalFilter3addEjj
FNDA:37138,_ZNK3can14IntervalFilter5matchEj
FNDA:6,_ZN3can14IntervalFilter3addEj
FNDA:17,_ZN3can14IntervalFilterC2Ev
FNDA:4,_ZN3can14IntervalFilterC2Ejj
FNDA:11,_ZN3can14IntervalFilter5clearEv
FNF:7
FNH:7
DA:10,17
DA:12,4
DA:14,4
DA:15,4
DA:18,6
DA:20,26
DA:22,26
DA:24,1
DA:26,26
DA:28,2
DA:31,26
DA:33,1
DA:36,26
DA:38,26
DA:39,26
DA:42,37138
DA:44,37138
DA:47,11
DA:49,11
DA:50,11
DA:51,11
DA:53,1
DA:55,1
DA:56,1
DA:57,1
LF:25
LH:25
end_of_record
TN:
SF:/home/jenkins/libs/bsw/cpp2can/src/can/transceiver/AbstractCANTransceiver.cpp
FN:16,_ZN3can22AbstractCANTransceiverC2Eh
FN:28,_ZN3can22AbstractCANTransceiver19addCANFrameListenerERNS_17ICANFrameListenerE
FN:38,_ZN3can22AbstractCANTransceiver22addVIPCANFrameListenerERNS_17ICANFrameListenerE
FN:48,_ZN3can22AbstractCANTransceiver22removeCANFrameListenerERNS_17ICANFrameListenerE
FN:54,_ZN3can22AbstractCANTransceiver23addCANFrameSentListenerERNS_29IFilteredCANFrameSentListenerE
FN:60,_ZN3can22AbstractCANTransceiver26removeCANFrameSentListenerERNS_29IFilteredCANFrameSentListenerE
FN:66,_ZN3can22AbstractCANTransceiver15notifyListenersERKNS_8CANFrameE
FN:82,_ZN3can22AbstractCANTransceiver19notifySentListenersERKNS_8CANFrameE
FNDA:5,_ZN3can22AbstractCANTransceiver23addCANFrameSentListenerERNS_29IFilteredCANFrameSentListenerE
FNDA:3,_ZN3can22AbstractCANTransceiver22addVIPCANFrameListenerERNS_17ICANFrameListenerE
FNDA:5,_ZN3can22AbstractCANTransceiver15notifyListenersERKNS_8CANFrameE
FNDA:48,_ZN3can22AbstractCANTransceiverC2Eh
FNDA:13,_ZN3can22AbstractCANTransceiver19addCANFrameListenerERNS_17ICANFrameListenerE
FNDA:22,_ZN3can22AbstractCANTransceiver19notifySentListenersERKNS_8CANFrameE
FNDA:5,_ZN3can22AbstractCANTransceiver26removeCANFrameSentListenerERNS_29IFilteredCANFrameSentListenerE
FNDA:12,_ZN3can22AbstractCANTransceiver22removeCANFrameListenerERNS_17ICANFrameListenerE
FNF:8
FNH:8
DA:16,48
DA:17,48
DA:18,48
DA:19,48
DA:20,48
DA:21,48
DA:22,48
DA:23,48
DA:24,48
DA:25,48
DA:26,48
DA:28,13
DA:30,13
DA:31,13
DA:33,10
DA:34,10
DA:36,13
DA:38,3
DA:40,3
DA:41,3
DA:43,2
DA:44,2
DA:46,3
DA:48,12
DA:50,12
DA:51,12
DA:52,12
DA:54,5
DA:56,5
DA:57,5
DA:58,5
DA:60,5
DA:62,5
DA:63,5
DA:64,5
DA:66,5
DA:68,5
DA:70,1
DA:73,19
DA:75,15
DA:77,7
DA:82,22
DA:84,22
DA:86,18
DA:89,4
DA:90,9
DA:92,5
LF:47
LH:47
end_of_record
TN:
SF:/home/jenkins/libs/bsw/cpp2ethernet/include/ip/IPAddress.h
FN:33,_ZNK2ip9IPAddress12be_uint32_atEm
FN:38,_ZN2ip9IPAddress12be_uint32_atEm
FN:103,_ZN2ip8make_ip4Ej
FN:120,_ZN2ip8make_ip4Ehhhh
FN:133,_ZN2ip8make_ip4ERKN3etl4spanIKhLm18446744073709551615EEE
FN:174,_ZN2ip8make_ip6EPKj
FN:195,_ZN2ip8make_ip6ERKN3etl4spanIKhLm18446744073709551615EEE
FN:205,_ZN2ip9ip4_bytesERKNS_9IPAddressE
FN:211,_ZN2ip9ip6_bytesERKNS_9IPAddressE
FN:216,_ZN2ip6packedERKNS_9IPAddressE
FN:225,_ZN2ip10ip4_to_u32ERKNS_9IPAddressE
FN:231,_ZN2ip10ip6_to_u32ERKNS_9IPAddressEm
FN:238,_ZN2ip13isUnspecifiedERKNS_9IPAddressE
FN:255,_ZN2ip12isIp4AddressERKNS_9IPAddressE
FN:260,_ZN2ip12isIp6AddressERKNS_9IPAddressE
FN:265,_ZN2ip18isMulticastAddressERKNS_9IPAddressE
FN:282,_ZN2ip18isLinkLocalAddressERKNS_9IPAddressE
FN:301,_ZN2ip17isLoopbackAddressERKNS_9IPAddressE
FN:320,_ZN2ip14isNetworkLocalERKNS_9IPAddressES2_h
FN:359,_ZN2ip15addressFamilyOfERKNS_9IPAddressE
FN:374,_ZN2ipeqERKNS_9IPAddressES2_
FN:386,_ZN2ipneERKNS_9IPAddressES2_
FN:389,_ZNK2ip20IPAddressCompareLessclERKNS_9IPAddressES3_
FNDA:5,_ZN2ip10ip6_to_u32ERKNS_9IPAddressEm
FNDA:55,_ZN2ipeqERKNS_9IPAddressES2_
FNDA:2746,_ZNK2ip9IPAddress12be_uint32_atEm
FNDA:30,_ZN2ip8make_ip4Ej
FNDA:8,_ZN2ip10ip4_to_u32ERKNS_9IPAddressE
FNDA:4,_ZN2ip18isMulticastAddressERKNS_9IPAddressE
FNDA:2,_ZN2ip6packedERKNS_9IPAddressE
FNDA:2,_ZN2ip12isIp4AddressERKNS_9IPAddressE
FNDA:16,_ZN2ip8make_ip6EPKj
FNDA:2,_ZN2ip9ip6_bytesERKNS_9IPAddressE
FNDA:343,_ZN2ip13isUnspecifiedERKNS_9IPAddressE
FNDA:6,_ZN2ip9IPAddress12be_uint32_atEm
FNDA:9,_ZNK2ip20IPAddressCompareLessclERKNS_9IPAddressES3_
FNDA:254,_ZN2ip8make_ip4Ehhhh
FNDA:172,_ZN2ip14isNetworkLocalERKNS_9IPAddressES2_h
FNDA:2,_ZN2ip12isIp6AddressERKNS_9IPAddressE
FNDA:6,_ZN2ip18isLinkLocalAddressERKNS_9IPAddressE
FNDA:1,_ZN2ipneERKNS_9IPAddressES2_
FNDA:1000,_ZN2ip15addressFamilyOfERKNS_9IPAddressE
FNDA:6,_ZN2ip8make_ip4ERKN3etl4spanIKhLm18446744073709551615EEE
FNDA:2,_ZN2ip9ip4_bytesERKNS_9IPAddressE
FNDA:259,_ZN2ip17isLoopbackAddressERKNS_9IPAddressE
FNDA:9,_ZN2ip8make_ip6ERKN3etl4spanIKhLm18446744073709551615EEE
FNF:23
FNH:23
DA:33,2746
DA:35,2746
DA:38,6
DA:40,6
DA:103,30
DA:112,30
DA:113,30
DA:114,30
DA:115,30
DA:120,254
DA:129,254
DA:133,6
DA:135,6
DA:138,5
DA:144,5
DA:145,5
DA:148,5
DA:174,16
DA:177,16
DA:178,16
DA:179,16
DA:180,16
DA:181,16
DA:182,16
DA:183,16
DA:184,16
DA:185,16
DA:186,16
DA:187,16
DA:188,16
DA:189,16
DA:190,16
DA:191,16
DA:192,16
DA:195,9
DA:197,9
DA:200,8
DA:201,8
DA:205,2
DA:208,2
DA:211,2
DA:213,2
DA:216,2
DA:218,2
DA:220,1
DA:222,1
DA:225,8
DA:227,8
DA:231,5
DA:233,5
DA:234,4
DA:238,343
DA:240,343
DA:242,77
DA:245,329
DA:247,326
DA:249,263
DA:252,3
DA:255,2
DA:257,2
DA:260,2
DA:262,2
DA:265,4
DA:267,4
DA:269,4
DA:271,2
DA:272,2
DA:276,2
DA:277,2
DA:278,2
DA:279,2
DA:282,6
DA:284,6
DA:286,6
DA:288,3
DA:289,3
DA:290,3
DA:291,3
DA:295,3
DA:296,3
DA:297,3
DA:298,3
DA:301,259
DA:303,259
DA:305,259
DA:307,6
DA:308,6
DA:312,256
DA:313,256
DA:314,256
DA:315,256
DA:316,256
DA:320,172
DA:322,172
DA:323,172
DA:325,172
DA:327,5
DA:330,167
DA:332,4
DA:335,163
DA:336,163
DA:337,163
DA:339,163
DA:341,2
DA:344,161
DA:345,161
DA:347,1
DA:350,160
DA:351,160
DA:353,20
DA:356,140
DA:359,1000
DA:362,1000
DA:364,1000
DA:365,451
DA:366,1451
DA:368,1000
DA:374,55
DA:378,106
DA:379,51
DA:380,106
DA:386,1
DA:389,9
DA:391,9
DA:392,9
DA:394,9
DA:396,2
DA:399,24
DA:401,22
DA:403,5
DA:407,2
LF:131
LH:131
end_of_record
TN:
SF:/home/jenkins/libs/bsw/cpp2ethernet/include/ip/IPEndpoint.h
FN:16,_ZN2ip10IPEndpointC2Ev
FN:18,_ZN2ip10IPEndpointC2ERKNS_9IPAddressEt
FN:24,_ZNK2ip10IPEndpoint5isSetEv
FN:30,_ZN2ip10IPEndpoint5clearEv
FN:37,_ZNK2ip10IPEndpoint10getAddressEv
FN:39,_ZN2ip10IPEndpoint10setAddressERKNS_9IPAddressE
FN:41,_ZNK2ip10IPEndpoint7getPortEv
FN:43,_ZN2ip10IPEndpoint7setPortEt
FN:63,_ZN2ipeqERKNS_10IPEndpointES2_
FN:68,_ZN2ipneERKNS_10IPEndpointES2_
FN:70,_ZN2ipltERKNS_10IPEndpointES2_
FNDA:9,_ZNK2ip10IPEndpoint7getPortEv
FNDA:12,_ZNK2ip10IPEndpoint10getAddressEv
FNDA:3,_ZN2ip10IPEndpointC2Ev
FNDA:9,_ZN2ipeqERKNS_10IPEndpointES2_
FNDA:4,_ZN2ip10IPEndpoint10setAddressERKNS_9IPAddressE
FNDA:3,_ZN2ipltERKNS_10IPEndpointES2_
FNDA:4,_ZN2ip10IPEndpoint7setPortEt
FNDA:2,_ZN2ip10IPEndpoint5clearEv
FNDA:10,_ZNK2ip10IPEndpoint5isSetEv
FNDA:13,_ZN2ip10IPEndpointC2ERKNS_9IPAddressEt
FNDA:1,_ZN2ipneERKNS_10IPEndpointES2_
FNF:11
FNH:11
DA:16,3
DA:18,13
DA:19,13
DA:20,13
DA:24,10
DA:26,10
DA:27,10
DA:30,2
DA:32,2
DA:33,2
DA:34,2
DA:35,2
DA:37,12
DA:39,4
DA:41,9
DA:43,4
DA:45,4
DA:46,4
DA:47,4
DA:63,9
DA:65,9
DA:68,1
DA:70,3
DA:72,3
DA:74,1
DA:77,2
DA:79,1
DA:82,1
LF:28
LH:28
end_of_record
TN:
SF:/home/jenkins/libs/bsw/cpp2ethernet/include/ip/NetworkInterfaceConfig.h
FN:117,_ZNK2ip22NetworkInterfaceConfig7isValidEv
FN:122,_ZNK2ip22NetworkInterfaceConfig8ipFamilyEv
FN:124,_ZN2ipneERKNS_22NetworkInterfaceConfigES2_
FNDA:10,_ZNK2ip22NetworkInterfaceConfig8ipFamilyEv
FNDA:10,_ZNK2ip22NetworkInterfaceConfig7isValidEv
FNDA:11,_ZN2ipneERKNS_22NetworkInterfaceConfigES2_
FNF:3
FNH:3
DA:117,10
DA:119,10
DA:122,10
DA:124,11
DA:126,11
LF:5
LH:5
end_of_record
TN:
SF:/home/jenkins/libs/bsw/cpp2ethernet/include/tcp/IDataListener.h
FN:38,_ZN3tcp13IDataListenerC2Ev
FNDA:2,_ZN3tcp13IDataListenerC2Ev
FNF:1
FNH:1
DA:38,2
LF:1
LH:1
end_of_record
TN:
SF:/home/jenkins/libs/bsw/cpp2ethernet/include/tcp/IDataSendNotificationListener.h
FN:35,_ZN3tcp29IDataSendNotificationListenerC2Ev
FNDA:2,_ZN3tcp29IDataSendNotificationListenerC2Ev
FNF:1
FNH:1
DA:35,2
LF:1
LH:1
end_of_record
TN:
SF:/home/jenkins/libs/bsw/cpp2ethernet/include/tcp/socket/AbstractServerSocket.h
FN:53,_ZNK3tcp20AbstractServerSocket12getLocalPortEv
FN:55,_ZN3tcp20AbstractServerSocket7setPortEt
FN:76,_ZN3tcp20AbstractServerSocket36setSocketProvidingConnectionListenerERNS_34ISocketProvidingConnectionListenerE
FN:81,_ZNK3tcp20AbstractServerSocket36getSocketProvidingConnectionListenerEv
FNDA:1,_ZN3tcp20AbstractServerSocket7setPortEt
FNDA:1,_ZN3tcp20AbstractServerSocket36setSocketProvidingConnectionListenerERNS_34ISocketProvidingConnectionListenerE
FNDA:3,_ZNK3tcp20AbstractServerSocket12getLocalPortEv
FNDA:2,_ZNK3tcp20AbstractServerSocket36getSocketProvidingConnectionListenerEv
FNF:4
FNH:4
DA:53,3
DA:55,1
DA:76,1
DA:78,1
DA:79,1
DA:81,2
DA:83,2
LF:7
LH:7
end_of_record
TN:
SF:/home/jenkins/libs/bsw/cpp2ethernet/include/tcp/socket/AbstractSocket.h
FN:211,_ZN3tcp14AbstractSocket15setDataListenerEPNS_13IDataListenerE
FN:217,_ZN3tcp14AbstractSocket27setSendNotificationListenerEPNS_29IDataSendNotificationListenerE
FN:222,_ZNK3tcp14AbstractSocket15getDataListenerEv
FN:224,_ZNK3tcp14AbstractSocket27getSendNotificationListenerEv
FNDA:2,_ZN3tcp14AbstractSocket27setSendNotificationListenerEPNS_29IDataSendNotificationListenerE
FNDA:2,_ZN3tcp14AbstractSocket15setDataListenerEPNS_13IDataListenerE
FNDA:4,_ZNK3tcp14AbstractSocket15getDataListenerEv
FNDA:4,_ZNK3tcp14AbstractSocket27getSendNotificationListenerEv
FNF:4
FNH:4
DA:211,2
DA:213,2
DA:214,2
DA:217,2
DA:219,2
DA:220,2
DA:222,4
DA:224,4
DA:226,4
LF:9
LH:9
end_of_record
TN:
SF:/home/jenkins/libs/bsw/cpp2ethernet/include/tcp/socket/ISocketProvidingConnectionListener.h
FN:18,_ZN3tcp34ISocketProvidingConnectionListenerC2Ev
FNDA:2,_ZN3tcp34ISocketProvidingConnectionListenerC2Ev
FNF:1
FNH:1
DA:18,2
LF:1
LH:1
end_of_record
TN:
SF:/home/jenkins/libs/bsw/cpp2ethernet/include/udp/DatagramPacket.h
FN:30,_ZNK3udp14DatagramPacket7getDataEv
FN:32,_ZNK3udp14DatagramPacket9getLengthEv
FN:34,_ZNK3udp14DatagramPacket11getEndpointEv
FN:36,_ZNK3udp14DatagramPacket10getAddressEv
FN:38,_ZNK3udp14DatagramPacket7getPortEv
FNDA:1,_ZNK3udp14DatagramPacket7getDataEv
FNDA:1,_ZNK3udp14DatagramPacket9getLengthEv
FNDA:2,_ZNK3udp14DatagramPacket7getPortEv
FNDA:1,_ZNK3udp14DatagramPacket11getEndpointEv
FNDA:3,_ZNK3udp14DatagramPacket10getAddressEv
FNF:5
FNH:5
DA:30,1
DA:32,1
DA:34,1
DA:36,3
DA:38,2
LF:5
LH:5
end_of_record
TN:
SF:/home/jenkins/libs/bsw/cpp2ethernet/include/udp/IDataListener.h
FN:49,_ZN3udp13IDataListenerC2Ev
FNDA:2,_ZN3udp13IDataListenerC2Ev
FNF:1
FNH:1
DA:49,2
LF:1
LH:1
end_of_record
TN:
SF:/home/jenkins/libs/bsw/cpp2ethernet/include/udp/IDataSentListener.h
FN:12,_ZN3udp17IDataSentListenerC2Ev
FNDA:2,_ZN3udp17IDataSentListenerC2Ev
FNF:1
FNH:1
DA:12,2
LF:1
LH:1
end_of_record
TN:
SF:/home/jenkins/libs/bsw/cpp2ethernet/include/udp/socket/AbstractDatagramSocket.h
FN:163,_ZN3udp22AbstractDatagramSocket15setDataListenerEPNS_13IDataListenerE
FN:168,_ZN3udp22AbstractDatagramSocket19setDataSentListenerEPNS_17IDataSentListenerE
FNDA:2,_ZN3udp22AbstractDatagramSocket19setDataSentListenerEPNS_17IDataSentListenerE
FNDA:2,_ZN3udp22AbstractDatagramSocket15setDataListenerEPNS_13IDataListenerE
FNF:2
FNH:2
DA:163,2
DA:165,2
DA:166,2
DA:168,2
DA:170,2
DA:171,2
LF:6
LH:6
end_of_record
TN:
SF:/home/jenkins/libs/bsw/cpp2ethernet/src/ip/NetworkInterfaceConfig.cpp
FN:11,_ZN2ip22NetworkInterfaceConfigC2Ev
FN:13,_ZN2ip22NetworkInterfaceConfigC2Ejjj
FN:25,_ZN2ip22NetworkInterfaceConfigC2ERA4_Kj
FN:34,_ZNK2ip22NetworkInterfaceConfig9ipAddressEv
FN:50,_ZNK2ip22NetworkInterfaceConfig11networkMaskEv
FN:60,_ZNK2ip22NetworkInterfaceConfig14defaultGatewayEv
FN:70,_ZNK2ip22NetworkInterfaceConfig16broadcastAddressEv
FN:81,_ZN2ipeqERKNS_22NetworkInterfaceConfigES2_
FNDA:10,_ZNK2ip22NetworkInterfaceConfig16broadcastAddressEv
FNDA:10,_ZNK2ip22NetworkInterfaceConfig14defaultGatewayEv
FNDA:12,_ZN2ip22NetworkInterfaceConfigC2Ev
FNDA:19,_ZN2ip22NetworkInterfaceConfigC2Ejjj
FNDA:22,_ZN2ipeqERKNS_22NetworkInterfaceConfigES2_
FNDA:10,_ZNK2ip22NetworkInterfaceConfig11networkMaskEv
FNDA:10,_ZNK2ip22NetworkInterfaceConfig9ipAddressEv
FNDA:20,_ZN2ip22NetworkInterfaceConfigC2ERA4_Kj
FNF:8
FNH:8
DA:11,48
DA:13,19
DA:14,19
DA:15,19
DA:17,19
DA:19,19
DA:20,19
DA:21,19
DA:22,19
DA:23,19
DA:25,20
DA:26,20
DA:28,20
DA:29,20
DA:30,20
DA:31,20
DA:32,20
DA:34,10
DA:36,10
DA:38,3
DA:41,7
DA:43,4
DA:47,3
DA:50,10
DA:52,10
DA:54,3
DA:57,7
DA:60,10
DA:62,10
DA:64,3
DA:67,7
DA:70,10
DA:72,10
DA:74,6
DA:75,3
DA:78,7
DA:81,22
DA:83,22
LF:38
LH:38
end_of_record
TN:
SF:/home/jenkins/libs/bsw/cpp2ethernet/src/ip/to_str.cpp
FN:9,_ZN2ip6to_strERKNS_9IPAddressERKN3etl4spanIcLm18446744073709551615EEE
FN:60,_ZN2ip6to_strERKNS_10IPEndpointERKN3etl4spanIcLm18446744073709551615EEE
FNDA:4,_ZN2ip6to_strERKNS_10IPEndpointERKN3etl4spanIcLm18446744073709551615EEE
FNDA:4,_ZN2ip6to_strERKNS_9IPAddressERKN3etl4spanIcLm18446744073709551615EEE
FNF:2
FNH:2
DA:9,4
DA:11,4
DA:12,4
DA:14,4
DA:16,4
DA:18,1
DA:22,1
DA:23,1
DA:24,1
DA:25,1
DA:27,3
DA:29,1
DA:33,1
DA:34,1
DA:35,1
DA:36,1
DA:37,1
DA:38,1
DA:39,1
DA:40,1
DA:41,1
DA:42,1
DA:43,1
DA:44,1
DA:45,1
DA:46,1
DA:47,1
DA:48,1
DA:52,2
DA:57,2
DA:60,4
DA:62,4
DA:63,4
DA:64,4
DA:66,4
DA:68,4
DA:70,1
DA:74,1
DA:75,1
DA:76,1
DA:77,1
DA:78,1
DA:80,3
DA:82,1
DA:86,1
DA:87,1
DA:88,1
DA:89,1
DA:90,1
DA:91,1
DA:92,1
DA:93,1
DA:94,1
DA:95,1
DA:96,1
DA:97,1
DA:98,1
DA:99,1
DA:100,1
DA:101,1
DA:102,1
DA:106,2
DA:111,2
LF:63
LH:63
end_of_record
TN:
SF:/home/jenkins/libs/bsw/cpp2ethernet/src/tcp/socket/AbstractServerSocket.cpp
FN:7,_ZN3tcp20AbstractServerSocketC2Ev
FN:11,_ZN3tcp20AbstractServerSocketC2EtRNS_34ISocketProvidingConnectionListenerE
FNDA:1,_ZN3tcp20AbstractServerSocketC2EtRNS_34ISocketProvidingConnectionListenerE
FNDA:1,_ZN3tcp20AbstractServerSocketC2Ev
FNF:2
FNH:2
DA:7,1
DA:8,1
DA:9,1
DA:11,1
DA:12,1
DA:13,1
DA:14,1
LF:7
LH:7
end_of_record
TN:
SF:/home/jenkins/libs/bsw/cpp2ethernet/src/tcp/socket/AbstractSocket.cpp
FN:7,_ZN3tcp14AbstractSocketC2Ev
FNDA:2,_ZN3tcp14AbstractSocketC2Ev
FNF:1
FNH:1
DA:7,2
LF:1
LH:1
end_of_record
TN:
SF:/home/jenkins/libs/bsw/cpp2ethernet/src/udp/DatagramPacket.cpp
FN:9,_ZN3udp14DatagramPacketC2EPKhtN2ip9IPAddressEt
FN:14,_ZN3udp14DatagramPacketC2EPKhtRKN2ip10IPEndpointE
FN:19,_ZNK3udp14DatagramPacketeqERKS0_
FNDA:1,_ZN3udp14DatagramPacketC2EPKhtRKN2ip10IPEndpointE
FNDA:9,_ZN3udp14DatagramPacketC2EPKhtN2ip9IPAddressEt
FNDA:4,_ZNK3udp14DatagramPacketeqERKS0_
FNF:3
FNH:3
DA:9,9
DA:10,9
DA:11,9
DA:12,9
DA:14,1
DA:15,1
DA:16,1
DA:17,1
DA:19,4
DA:21,4
DA:23,3
DA:25,2
DA:28,2
LF:13
LH:13
end_of_record
TN:
SF:/home/jenkins/libs/bsw/cpp2ethernet/src/udp/socket/AbstractDatagramSocket.cpp
FN:7,_ZN3udp22AbstractDatagramSocketC2Ev
FNDA:2,_ZN3udp22AbstractDatagramSocketC2Ev
FNF:1
FNH:1
DA:7,2
DA:8,2
DA:9,2
LF:3
LH:3
end_of_record
TN:
SF:/home/jenkins/libs/bsw/docan/include/docan/addressing/DoCanNormalAddressing.h
FN:46,_ZN5docan21DoCanNormalAddressingIthtE22decodeReceptionAddressEjRKN3etl4spanIKhLm18446744073709551615EEE
FN:53,_ZN5docan21DoCanNormalAddressingIthtE25encodeTransmissionAddressEjRjRKN3etl4spanIhLm18446744073709551615EEE
FNDA:12,_ZN5docan21DoCanNormalAddressingIthtE25encodeTransmissionAddressEjRjRKN3etl4spanIhLm18446744073709551615EEE
FNDA:4,_ZN5docan21DoCanNormalAddressingIthtE22decodeReceptionAddressEjRKN3etl4spanIKhLm18446744073709551615EEE
FNF:2
FNH:2
DA:46,4
DA:49,4
DA:53,12
DA:56,12
DA:57,12
LF:5
LH:5
end_of_record
TN:
SF:/home/jenkins/libs/bsw/docan/include/docan/addressing/DoCanNormalAddressingFilter.h
FN:126,_ZN5docan27DoCanNormalAddressingFilterINS_18DoCanDataLinkLayerIjthLj4294967295EtEENS_39DoCanNormalAddressingFilterAddressEntryIS2_EEEC2Ev
FN:131,_ZN5docan27DoCanNormalAddressingFilterINS_18DoCanDataLinkLayerIjthLj4294967295EtEENS_39DoCanNormalAddressingFilterAddressEntryIS2_EEEC2EN3etl4spanIKS4_Lm18446744073709551615EEENS7_IPKNS_15DoCanFrameCodecIS2_EELm18446744073709551615EEE
FN:139,_ZN5docan27DoCanNormalAddressingFilterINS_18DoCanDataLinkLayerIjthLj4294967295EtEENS_39DoCanNormalAddressingFilterAddressEntryIS2_EEE4initEN3etl4spanIKS4_Lm18446744073709551615EEENS7_IPKNS_15DoCanFrameCodecIS2_EELm18446744073709551615EEE
FN:186,_ZNK5docan27DoCanNormalAddressingFilterINS_18DoCanDataLinkLayerIjthLj4294967295EtEENS_39DoCanNormalAddressingFilterAddressEntryIS2_EEE25getTransmissionParametersERKNS_25DoCanTransportAddressPairERNS_24DoCanDataLinkAddressPairIjEE
FN:206,_ZNK5docan27DoCanNormalAddressingFilterINS_18DoCanDataLinkLayerIjthLj4294967295EtEENS_39DoCanNormalAddressingFilterAddressEntryIS2_EEE22getReceptionParametersEjRNS_25DoCanTransportAddressPairERj
FN:226,_ZNK5docan27DoCanNormalAddressingFilterINS_18DoCanDataLinkLayerIjthLj4294967295EtEENS_39DoCanNormalAddressingFilterAddressEntryIS2_EEE21formatDataLinkAddressEjRKN3etl4spanIcLm18446744073709551615EEE
FN:236,_ZNK5docan27DoCanNormalAddressingFilterINS_18DoCanDataLinkLayerIjthLj4294967295EtEENS_39DoCanNormalAddressingFilterAddressEntryIS2_EEE5matchEj
FN:250,_ZN5docan27DoCanNormalAddressingFilterINS_18DoCanDataLinkLayerIjthLj4294967295EtEENS_39DoCanNormalAddressingFilterAddressEntryIS2_EEE31findEntryTypeByReceptionAddressEjPKS4_S7_
FN:263,_ZN5docan27DoCanNormalAddressingFilterINS_18DoCanDataLinkLayerIjthLj4294967295EtEENS_39DoCanNormalAddressingFilterAddressEntryIS2_EEE15lessReceptionIdERKS4_S7_
FN:271,_ZNK5docan27DoCanNormalAddressingFilterINS_18DoCanDataLinkLayerIjthLj4294967295EtEENS_39DoCanNormalAddressingFilterAddressEntryIS2_EEE13getFrameCodecEh
FNDA:2,_ZNK5docan27DoCanNormalAddressingFilterINS_18DoCanDataLinkLayerIjthLj4294967295EtEENS_39DoCanNormalAddressingFilterAddressEntryIS2_EEE21formatDataLinkAddressEjRKN3etl4spanIcLm18446744073709551615EEE
FNDA:15,_ZNK5docan27DoCanNormalAddressingFilterINS_18DoCanDataLinkLayerIjthLj4294967295EtEENS_39DoCanNormalAddressingFilterAddressEntryIS2_EEE22getReceptionParametersEjRNS_25DoCanTransportAddressPairERj
FNDA:14,_ZN5docan27DoCanNormalAddressingFilterINS_18DoCanDataLinkLayerIjthLj4294967295EtEENS_39DoCanNormalAddressingFilterAddressEntryIS2_EEEC2EN3etl4spanIKS4_Lm18446744073709551615EEENS7_IPKNS_15DoCanFrameCodecIS2_EELm18446744073709551615EEE
FNDA:18,_ZNK5docan27DoCanNormalAddressingFilterINS_18DoCanDataLinkLayerIjthLj4294967295EtEENS_39DoCanNormalAddressingFilterAddressEntryIS2_EEE5matchEj
FNDA:38,_ZNK5docan27DoCanNormalAddressingFilterINS_18DoCanDataLinkLayerIjthLj4294967295EtEENS_39DoCanNormalAddressingFilterAddressEntryIS2_EEE13getFrameCodecEh
FNDA:58,_ZN5docan27DoCanNormalAddressingFilterINS_18DoCanDataLinkLayerIjthLj4294967295EtEENS_39DoCanNormalAddressingFilterAddressEntryIS2_EEE15lessReceptionIdERKS4_S7_
FNDA:36,_ZNK5docan27DoCanNormalAddressingFilterINS_18DoCanDataLinkLayerIjthLj4294967295EtEENS_39DoCanNormalAddressingFilterAddressEntryIS2_EEE25getTransmissionParametersERKNS_25DoCanTransportAddressPairERNS_24DoCanDataLinkAddressPairIjEE
FNDA:24,_ZN5docan27DoCanNormalAddressingFilterINS_18DoCanDataLinkLayerIjthLj4294967295EtEENS_39DoCanNormalAddressingFilterAddressEntryIS2_EEE31findEntryTypeByReceptionAddressEjPKS4_S7_
FNDA:16,_ZN5docan27DoCanNormalAddressingFilterINS_18DoCanDataLinkLayerIjthLj4294967295EtEENS_39DoCanNormalAddressingFilterAddressEntryIS2_EEE4initEN3etl4spanIKS4_Lm18446744073709551615EEENS7_IPKNS_15DoCanFrameCodecIS2_EELm18446744073709551615EEE
FNDA:16,_ZN5docan27DoCanNormalAddressingFilterINS_18DoCanDataLinkLayerIjthLj4294967295EtEENS_39DoCanNormalAddressingFilterAddressEntryIS2_EEEC2Ev
FNF:10
FNH:10
DA:126,16
DA:127,16
DA:128,16
DA:131,14
DA:133,14
DA:135,14
DA:136,11
DA:139,16
DA:143,16
DA:144,14
DA:145,14
DA:146,14
DA:147,14
DA:148,14
DA:150,58
DA:152,55
DA:153,55
DA:155,41
DA:157,54
DA:158,54
DA:160,25
DA:164,29
DA:166,11
DA:168,29
DA:170,10
DA:175,13
DA:176,13
DA:178,32
DA:180,20
DA:182,12
DA:186,36
DA:190,36
DA:191,36
DA:192,179
DA:194,168
DA:197,25
DA:198,25
DA:201,11
DA:206,15
DA:212,15
DA:214,15
DA:216,2
DA:219,13
DA:220,13
DA:221,13
DA:222,13
DA:226,2
DA:229,2
DA:230,2
DA:231,2
DA:232,4
DA:233,2
DA:236,18
DA:238,18
DA:240,9
DA:243,9
DA:245,9
DA:250,24
DA:255,24
DA:256,24
DA:258,24
DA:259,24
DA:263,58
DA:266,58
DA:271,38
DA:274,38
DA:275,38
DA:277,36
DA:279,2
LF:69
LH:69
end_of_record
TN:
SF:/home/jenkins/libs/bsw/docan/include/docan/can/DoCanPhysicalCanTransceiver.h
FN:101,_ZN5docan27DoCanPhysicalCanTransceiverINS_21DoCanNormalAddressingIthtEEEC2ERN3can15ICanTransceiverERNS4_7IFilterERKNS_22IDoCanAddressConverterINS_18DoCanDataLinkLayerIjthLj4294967295EtEEEERKS2_
FN:119,_ZN5docan27DoCanPhysicalCanTransceiverINS_21DoCanNormalAddressingIthtEEE4initERNS_19IDoCanFrameReceiverINS_18DoCanDataLinkLayerIjthLj4294967295EtEEEE
FN:126,_ZN5docan27DoCanPhysicalCanTransceiverINS_21DoCanNormalAddressingIthtEEE8shutdownEv
FN:133,_ZN5docan27DoCanPhysicalCanTransceiverINS_21DoCanNormalAddressingIthtEEE19startSendDataFramesERKNS_15DoCanFrameCodecINS_18DoCanDataLinkLayerIjthLj4294967295EtEEEERNS_34IDoCanDataFrameTransmitterCallbackIS6_EENS_14DoCanJobHandleIttEEjtthRKN3etl4spanIKhLm18446744073709551615EEE
FN:178,_ZN5docan27DoCanPhysicalCanTransceiverINS_21DoCanNormalAddressingIthtEEE20cancelSendDataFramesERNS_34IDoCanDataFrameTransmitterCallbackINS_18DoCanDataLinkLayerIjthLj4294967295EtEEEENS_14DoCanJobHandleIttEE
FN:190,_ZN5docan27DoCanPhysicalCanTransceiverINS_21DoCanNormalAddressingIthtEEE15sendFlowControlERKNS_15DoCanFrameCodecINS_18DoCanDataLinkLayerIjthLj4294967295EtEEEEjNS_10FlowStatusEhh
FN:210,_ZN5docan27DoCanPhysicalCanTransceiverINS_21DoCanNormalAddressingIthtEEE13frameReceivedERKN3can8CANFrameE
FN:238,_ZN5docan27DoCanPhysicalCanTransceiverINS_21DoCanNormalAddressingIthtEEE9getFilterEv
FN:244,_ZN5docan27DoCanPhysicalCanTransceiverINS_21DoCanNormalAddressingIthtEEE12canFrameSentERKN3can8CANFrameE
FNDA:2,_ZN5docan27DoCanPhysicalCanTransceiverINS_21DoCanNormalAddressingIthtEEE15sendFlowControlERKNS_15DoCanFrameCodecINS_18DoCanDataLinkLayerIjthLj4294967295EtEEEEjNS_10FlowStatusEhh
FNDA:5,_ZN5docan27DoCanPhysicalCanTransceiverINS_21DoCanNormalAddressingIthtEEE4initERNS_19IDoCanFrameReceiverINS_18DoCanDataLinkLayerIjthLj4294967295EtEEEE
FNDA:10,_ZN5docan27DoCanPhysicalCanTransceiverINS_21DoCanNormalAddressingIthtEEEC2ERN3can15ICanTransceiverERNS4_7IFilterERKNS_22IDoCanAddressConverterINS_18DoCanDataLinkLayerIjthLj4294967295EtEEEERKS2_
FNDA:6,_ZN5docan27DoCanPhysicalCanTransceiverINS_21DoCanNormalAddressingIthtEEE13frameReceivedERKN3can8CANFrameE
FNDA:12,_ZN5docan27DoCanPhysicalCanTransceiverINS_21DoCanNormalAddressingIthtEEE19startSendDataFramesERKNS_15DoCanFrameCodecINS_18DoCanDataLinkLayerIjthLj4294967295EtEEEERNS_34IDoCanDataFrameTransmitterCallbackIS6_EENS_14DoCanJobHandleIttEEjtthRKN3etl4spanIKhLm18446744073709551615EEE
FNDA:5,_ZN5docan27DoCanPhysicalCanTransceiverINS_21DoCanNormalAddressingIthtEEE20cancelSendDataFramesERNS_34IDoCanDataFrameTransmitterCallbackINS_18DoCanDataLinkLayerIjthLj4294967295EtEEEENS_14DoCanJobHandleIttEE
FNDA:4,_ZN5docan27DoCanPhysicalCanTransceiverINS_21DoCanNormalAddressingIthtEEE8shutdownEv
FNDA:7,_ZN5docan27DoCanPhysicalCanTransceiverINS_21DoCanNormalAddressingIthtEEE12canFrameSentERKN3can8CANFrameE
FNDA:1,_ZN5docan27DoCanPhysicalCanTransceiverINS_21DoCanNormalAddressingIthtEEE9getFilterEv
FNF:9
FNH:9
DA:101,10
DA:106,10
DA:107,10
DA:108,10
DA:109,10
DA:110,10
DA:111,10
DA:112,10
DA:113,10
DA:114,10
DA:115,10
DA:116,10
DA:119,5
DA:121,5
DA:122,5
DA:123,5
DA:126,4
DA:128,4
DA:129,4
DA:130,4
DA:133,12
DA:144,12
DA:146,10
DA:147,10
DA:149,20
DA:150,10
DA:151,10
DA:153,9
DA:157,9
DA:158,9
DA:159,9
DA:160,9
DA:161,9
DA:163,7
DA:164,7
DA:165,7
DA:166,7
DA:168,2
DA:170,1
DA:174,3
DA:178,5
DA:182,5
DA:184,2
DA:185,2
DA:187,5
DA:190,2
DA:197,2
DA:199,2
DA:200,2
DA:201,2
DA:203,2
DA:204,2
DA:205,2
DA:206,2
DA:210,6
DA:212,6
DA:214,4
DA:217,3
DA:219,3
DA:221,3
DA:223,3
DA:225,3
DA:227,1
DA:230,2
DA:232,2
DA:234,2
DA:238,1
DA:240,1
DA:244,7
DA:247,7
DA:249,5
DA:250,5
DA:252,5
DA:255,7
LF:74
LH:74
end_of_record
TN:
SF:/home/jenkins/libs/bsw/docan/include/docan/can/DoCanPhysicalCanTransceiverContainer.h
FN:35,_ZN5docan36DoCanPhysicalCanTransceiverContainerINS_21DoCanNormalAddressingIthtEEE12emplace_backIJRN3can15ICanTransceiverERNS5_7IFilterERKNS_22IDoCanAddressConverterINS_18DoCanDataLinkLayerIjthLj4294967295EtEEEERKS2_EEERNS_27DoCanPhysicalCanTransceiverIS2_EEDpOT_
FN:115,_ZN5docan36DoCanPhysicalCanTransceiverContainerINS_21DoCanNormalAddressingIthtEEEC2ERN3etl7ivectorINS_27DoCanPhysicalCanTransceiverIS2_EEEE
FN:122,_ZNK5docan36DoCanPhysicalCanTransceiverContainerINS_21DoCanNormalAddressingIthtEEE15getTransceiversEv
FN:130,_ZN5docan7declare36DoCanPhysicalCanTransceiverContainerINS_21DoCanNormalAddressingIthtEELm2EEC2Ev
FN:135,_ZN5docan7declare43DoCanPhysicalCanTransceiverContainerBuilderINS_21DoCanNormalAddressingIthtEEEC2ERNS_36DoCanPhysicalCanTransceiverContainerIS3_EERN3can7IFilterERKNS_22IDoCanAddressConverterINS_18DoCanDataLinkLayerIjthLj4294967295EtEEEERKS3_
FN:149,_ZN5docan7declare43DoCanPhysicalCanTransceiverContainerBuilderINS_21DoCanNormalAddressingIthtEEE14addTransceiverERN3can15ICanTransceiverE
FNDA:1,_ZN5docan7declare43DoCanPhysicalCanTransceiverContainerBuilderINS_21DoCanNormalAddressingIthtEEEC2ERNS_36DoCanPhysicalCanTransceiverContainerIS3_EERN3can7IFilterERKNS_22IDoCanAddressConverterINS_18DoCanDataLinkLayerIjthLj4294967295EtEEEERKS3_
FNDA:1,_ZN5docan7declare36DoCanPhysicalCanTransceiverContainerINS_21DoCanNormalAddressingIthtEELm2EEC2Ev
FNDA:1,_ZN5docan36DoCanPhysicalCanTransceiverContainerINS_21DoCanNormalAddressingIthtEEEC2ERN3etl7ivectorINS_27DoCanPhysicalCanTransceiverIS2_EEEE
FNDA:2,_ZN5docan36DoCanPhysicalCanTransceiverContainerINS_21DoCanNormalAddressingIthtEEE12emplace_backIJRN3can15ICanTransceiverERNS5_7IFilterERKNS_22IDoCanAddressConverterINS_18DoCanDataLinkLayerIjthLj4294967295EtEEEERKS2_EEERNS_27DoCanPhysicalCanTransceiverIS2_EEDpOT_
FNDA:2,_ZN5docan7declare43DoCanPhysicalCanTransceiverContainerBuilderINS_21DoCanNormalAddressingIthtEEE14addTransceiverERN3can15ICanTransceiverE
FNDA:6,_ZNK5docan36DoCanPhysicalCanTransceiverContainerINS_21DoCanNormalAddressingIthtEEE15getTransceiversEv
FNF:6
FNH:6
DA:35,2
DA:37,2
DA:115,1
DA:117,1
DA:118,1
DA:122,6
DA:124,6
DA:130,1
DA:131,1
DA:132,1
DA:135,1
DA:141,1
DA:142,1
DA:143,1
DA:144,1
DA:145,1
DA:149,2
DA:152,2
LF:18
LH:18
end_of_record
TN:
SF:/home/jenkins/libs/bsw/docan/include/docan/common/DoCanConnection.h
FN:28,_ZNK5docan15DoCanConnectionINS_18DoCanDataLinkLayerIjthLj0EtEEE13getFrameCodecEv
FN:28,_ZNK5docan15DoCanConnectionINS_18DoCanDataLinkLayerIjthLj4294967295EtEEE13getFrameCodecEv
FN:28,_ZNK5docan15DoCanConnectionIN12_GLOBAL__N_113DataLinkLayerEE13getFrameCodecEv
FN:30,_ZNK5docan15DoCanConnectionIN12_GLOBAL__N_113DataLinkLayerEE22getDataLinkAddressPairEv
FN:30,_ZNK5docan15DoCanConnectionINS_18DoCanDataLinkLayerIjthLj0EtEEE22getDataLinkAddressPairEv
FN:30,_ZNK5docan15DoCanConnectionINS_18DoCanDataLinkLayerIjthLj4294967295EtEEE22getDataLinkAddressPairEv
FN:32,_ZNK5docan15DoCanConnectionINS_18DoCanDataLinkLayerIjthLj0EtEEE23getTransportAddressPairEv
FN:32,_ZNK5docan15DoCanConnectionIN12_GLOBAL__N_113DataLinkLayerEE23getTransportAddressPairEv
FN:32,_ZNK5docan15DoCanConnectionINS_18DoCanDataLinkLayerIjthLj4294967295EtEEE23getTransportAddressPairEv
FN:49,_ZN5docan15DoCanConnectionIN12_GLOBAL__N_113DataLinkLayerEEC2ERKNS_15DoCanFrameCodecIS2_EERKNS_24DoCanDataLinkAddressPairIjEERKNS_25DoCanTransportAddressPairE
FN:49,_ZN5docan15DoCanConnectionINS_18DoCanDataLinkLayerIjthLj4294967295EtEEEC2ERKNS_15DoCanFrameCodecIS2_EERKNS_24DoCanDataLinkAddressPairIjEERKNS_25DoCanTransportAddressPairE
FN:49,_ZN5docan15DoCanConnectionINS_18DoCanDataLinkLayerIjthLj0EtEEEC2ERKNS_15DoCanFrameCodecIS2_EERKNS_24DoCanDataLinkAddressPairIjEERKNS_25DoCanTransportAddressPairE
FN:59,_ZNK5docan15DoCanConnectionINS_18DoCanDataLinkLayerIjthLj4294967295EtEEEeqERKS3_
FNDA:53,_ZNK5docan15DoCanConnectionIN12_GLOBAL__N_113DataLinkLayerEE23getTransportAddressPairEv
FNDA:4,_ZNK5docan15DoCanConnectionINS_18DoCanDataLinkLayerIjthLj0EtEEE23getTransportAddressPairEv
FNDA:13,_ZNK5docan15DoCanConnectionINS_18DoCanDataLinkLayerIjthLj4294967295EtEEE13getFrameCodecEv
FNDA:2,_ZNK5docan15DoCanConnectionINS_18DoCanDataLinkLayerIjthLj0EtEEE13getFrameCodecEv
FNDA:725,_ZNK5docan15DoCanConnectionINS_18DoCanDataLinkLayerIjthLj0EtEEE22getDataLinkAddressPairEv
FNDA:54,_ZN5docan15DoCanConnectionIN12_GLOBAL__N_113DataLinkLayerEEC2ERKNS_15DoCanFrameCodecIS2_EERKNS_24DoCanDataLinkAddressPairIjEERKNS_25DoCanTransportAddressPairE
FNDA:7,_ZNK5docan15DoCanConnectionINS_18DoCanDataLinkLayerIjthLj4294967295EtEEEeqERKS3_
FNDA:1265,_ZNK5docan15DoCanConnectionIN12_GLOBAL__N_113DataLinkLayerEE22getDataLinkAddressPairEv
FNDA:0,_ZNK5docan15DoCanConnectionINS_18DoCanDataLinkLayerIjthLj4294967295EtEEE23getTransportAddressPairEv
FNDA:3,_ZNK5docan15DoCanConnectionINS_18DoCanDataLinkLayerIjthLj4294967295EtEEE22getDataLinkAddressPairEv
FNDA:3,_ZN5docan15DoCanConnectionINS_18DoCanDataLinkLayerIjthLj0EtEEEC2ERKNS_15DoCanFrameCodecIS2_EERKNS_24DoCanDataLinkAddressPairIjEERKNS_25DoCanTransportAddressPairE
FNDA:31,_ZNK5docan15DoCanConnectionIN12_GLOBAL__N_113DataLinkLayerEE13getFrameCodecEv
FNDA:13,_ZN5docan15DoCanConnectionINS_18DoCanDataLinkLayerIjthLj4294967295EtEEEC2ERKNS_15DoCanFrameCodecIS2_EERKNS_24DoCanDataLinkAddressPairIjEERKNS_25DoCanTransportAddressPairE
FNF:13
FNH:12
DA:28,46
DA:30,1993
DA:32,57
DA:34,57
DA:49,70
DA:53,70
DA:54,70
DA:55,70
DA:56,70
DA:59,7
DA:61,6
DA:62,13
LF:12
LH:12
end_of_record
TN:
SF:/home/jenkins/libs/bsw/docan/include/docan/common/DoCanJobHandle.h
FN:20,_ZN5docan14DoCanJobHandleIttEC2Ett
FN:24,_ZN5docan14DoCanJobHandleIttEC2Ev
FN:26,_ZNK5docan14DoCanJobHandleIttEeqERKS1_
FN:31,_ZNK5docan14DoCanJobHandleIttEneERKS1_
FNDA:166,_ZNK5docan14DoCanJobHandleIttEeqERKS1_
FNDA:37,_ZNK5docan14DoCanJobHandleIttEneERKS1_
FNDA:141,_ZN5docan14DoCanJobHandleIttEC2Ett
FNDA:65,_ZN5docan14DoCanJobHandleIttEC2Ev
FNF:4
FNH:4
DA:20,141
DA:21,141
DA:22,141
DA:24,65
DA:26,166
DA:28,166
DA:31,37
LF:7
LH:7
end_of_record
TN:
SF:/home/jenkins/libs/bsw/docan/include/docan/common/DoCanParameters.h
FN:149,_ZN5docan15DoCanParametersC2EN3etl8delegateIFjvEEEtttthhjh
FN:175,_ZNK5docan15DoCanParameters5nowUsEv
FN:177,_ZNK5docan15DoCanParameters22getWaitAllocateTimeoutEv
FN:179,_ZNK5docan15DoCanParameters16getWaitRxTimeoutEv
FN:181,_ZNK5docan15DoCanParameters24getWaitTxCallbackTimeoutEv
FN:183,_ZNK5docan15DoCanParameters25getWaitFlowControlTimeoutEv
FN:188,_ZNK5docan15DoCanParameters24getMaxAllocateRetryCountEv
FN:190,_ZNK5docan15DoCanParameters26getMaxFlowControlWaitCountEv
FN:195,_ZNK5docan15DoCanParameters27getEncodedMinSeparationTimeEv
FN:200,_ZN5docan15DoCanParameters27setEncodedMinSeparationTimeEh
FN:205,_ZNK5docan15DoCanParameters15getMaxBlockSizeEv
FN:207,_ZN5docan15DoCanParameters15setMaxBlockSizeEh
FN:212,_ZN5docan15DoCanParameters23decodeMinSeparationTimeEh
FN:227,_ZN5docan15DoCanParameters23encodeMinSeparationTimeEj
FNDA:126,_ZNK5docan15DoCanParameters24getWaitTxCallbackTimeoutEv
FNDA:1763,_ZNK5docan15DoCanParameters16getWaitRxTimeoutEv
FNDA:55,_ZN5docan15DoCanParametersC2EN3etl8delegateIFjvEEEtttthhjh
FNDA:127072,_ZN5docan15DoCanParameters23encodeMinSeparationTimeEj
FNDA:1,_ZN5docan15DoCanParameters27setEncodedMinSeparationTimeEh
FNDA:53,_ZNK5docan15DoCanParameters24getMaxAllocateRetryCountEv
FNDA:20,_ZNK5docan15DoCanParameters25getWaitFlowControlTimeoutEv
FNDA:21,_ZNK5docan15DoCanParameters26getMaxFlowControlWaitCountEv
FNDA:48,_ZNK5docan15DoCanParameters15getMaxBlockSizeEv
FNDA:15,_ZNK5docan15DoCanParameters22getWaitAllocateTimeoutEv
FNDA:2072,_ZNK5docan15DoCanParameters5nowUsEv
FNDA:36,_ZN5docan15DoCanParameters23decodeMinSeparationTimeEh
FNDA:1,_ZN5docan15DoCanParameters15setMaxBlockSizeEh
FNDA:48,_ZNK5docan15DoCanParameters27getEncodedMinSeparationTimeEv
FNF:14
FNH:14
DA:149,55
DA:158,55
DA:159,55
DA:160,55
DA:161,55
DA:162,55
DA:163,55
DA:164,55
DA:165,55
DA:166,55
DA:167,55
DA:169,55
DA:170,55
DA:171,55
DA:172,55
DA:173,55
DA:175,2072
DA:177,15
DA:179,1763
DA:181,126
DA:183,20
DA:185,20
DA:188,53
DA:190,21
DA:192,21
DA:195,48
DA:197,48
DA:200,1
DA:202,1
DA:203,1
DA:205,48
DA:207,1
DA:209,1
DA:210,1
DA:212,36
DA:214,36
DA:216,23
DA:219,13
DA:221,9
DA:224,4
DA:227,127072
DA:230,127072
DA:232,910
DA:236,126162
DA:238,126158
DA:242,4
LF:46
LH:46
end_of_record
TN:
SF:/home/jenkins/libs/bsw/docan/include/docan/common/DoCanTimerManagement.h
FN:13,_ZN5docan15timermanagement4lessEjj
FNDA:1981,_ZN5docan15timermanagement4lessEjj
FNF:1
FNH:1
DA:13,1981
DA:32,1981
LF:2
LH:2
end_of_record
TN:
SF:/home/jenkins/libs/bsw/docan/include/docan/common/DoCanTransportAddressPair.h
FN:40,_ZN5docan25DoCanTransportAddressPairC2Ev
FN:42,_ZN5docan25DoCanTransportAddressPairC2Ett
FN:47,_ZNK5docan25DoCanTransportAddressPair7isValidEv
FN:49,_ZNK5docan25DoCanTransportAddressPair11getSourceIdEv
FN:54,_ZNK5docan25DoCanTransportAddressPair11getTargetIdEv
FN:59,_ZNK5docan25DoCanTransportAddressPair6invertEv
FN:64,_ZNK5docan25DoCanTransportAddressPaireqERKS0_
FNDA:246,_ZN5docan25DoCanTransportAddressPairC2Ett
FNDA:172,_ZNK5docan25DoCanTransportAddressPair11getTargetIdEv
FNDA:3,_ZNK5docan25DoCanTransportAddressPair6invertEv
FNDA:15,_ZN5docan25DoCanTransportAddressPairC2Ev
FNDA:172,_ZNK5docan25DoCanTransportAddressPair11getSourceIdEv
FNDA:67,_ZNK5docan25DoCanTransportAddressPaireqERKS0_
FNDA:6,_ZNK5docan25DoCanTransportAddressPair7isValidEv
FNF:7
FNH:7
DA:40,15
DA:42,246
DA:43,246
DA:44,246
DA:45,246
DA:47,6
DA:49,172
DA:51,172
DA:54,172
DA:56,172
DA:59,3
DA:61,3
DA:64,67
DA:66,67
LF:14
LH:14
end_of_record
TN:
SF:/home/jenkins/libs/bsw/docan/include/docan/datalink/DoCanDataLinkAddressPair.h
FN:41,_ZN5docan24DoCanDataLinkAddressPairIjEC2Ev
FN:45,_ZN5docan24DoCanDataLinkAddressPairIjEC2Ejj
FN:51,_ZN5docan24DoCanDataLinkAddressPairIjEC2ERKS1_
FN:57,_ZNK5docan24DoCanDataLinkAddressPairIjE7isValidEv
FN:64,_ZNK5docan24DoCanDataLinkAddressPairIjE19getReceptionAddressEv
FN:71,_ZNK5docan24DoCanDataLinkAddressPairIjE22getTransmissionAddressEv
FN:77,_ZNK5docan24DoCanDataLinkAddressPairIjEeqERKS1_
FN:85,_ZN5docan24DoCanDataLinkAddressPairIjEaSERKS1_
FNDA:552,_ZNK5docan24DoCanDataLinkAddressPairIjE22getTransmissionAddressEv
FNDA:240,_ZN5docan24DoCanDataLinkAddressPairIjEC2Ejj
FNDA:2429,_ZNK5docan24DoCanDataLinkAddressPairIjE19getReceptionAddressEv
FNDA:60,_ZN5docan24DoCanDataLinkAddressPairIjEC2Ev
FNDA:74,_ZN5docan24DoCanDataLinkAddressPairIjEaSERKS1_
FNDA:3,_ZNK5docan24DoCanDataLinkAddressPairIjE7isValidEv
FNDA:385,_ZN5docan24DoCanDataLinkAddressPairIjEC2ERKS1_
FNDA:37,_ZNK5docan24DoCanDataLinkAddressPairIjEeqERKS1_
FNF:8
FNH:8
DA:41,60
DA:42,60
DA:45,240
DA:47,240
DA:48,240
DA:51,385
DA:52,385
DA:53,385
DA:54,385
DA:57,3
DA:59,3
DA:64,2429
DA:66,2429
DA:71,552
DA:73,552
DA:77,37
DA:79,37
DA:80,37
DA:85,74
DA:87,74
DA:89,73
DA:90,73
DA:92,74
LF:23
LH:23
end_of_record
TN:
SF:/home/jenkins/libs/bsw/docan/include/docan/datalink/DoCanDefaultFrameSizeMapper.h
FN:19,_ZNK5docan27DoCanDefaultFrameSizeMapperIhE12mapFrameSizeERh
FNDA:0,_ZNK5docan27DoCanDefaultFrameSizeMapperIhE12mapFrameSizeERh
FNF:1
FNH:0
DA:19,0
DA:22,0
LF:2
LH:0
end_of_record
TN:
SF:/home/jenkins/libs/bsw/docan/include/docan/datalink/DoCanFdFrameSizeMapper.h
FN:19,_ZNK5docan22DoCanFdFrameSizeMapperIhE12mapFrameSizeERh
FNDA:755,_ZNK5docan22DoCanFdFrameSizeMapperIhE12mapFrameSizeERh
FNF:1
FNH:1
DA:19,755
DA:21,755
DA:23,1
DA:30,754
DA:31,754
LF:5
LH:5
end_of_record
TN:
SF:/home/jenkins/libs/bsw/docan/include/docan/datalink/DoCanFrameCodec.h
FN:202,_ZN5docan15DoCanFrameCodecINS_18DoCanDataLinkLayerIjjhLj4294967295EjEEEC2ERKNS_21DoCanFrameCodecConfigIhEERKNS_21IDoCanFrameSizeMapperIhEE
FN:202,_ZN5docan15DoCanFrameCodecIN12_GLOBAL__N_113DataLinkLayerEEC2ERKNS_21DoCanFrameCodecConfigIhEERKNS_21IDoCanFrameSizeMapperIhEE
FN:202,_ZN5docan15DoCanFrameCodecINS_18DoCanDataLinkLayerIjjhLj4294967295EtEEEC2ERKNS_21DoCanFrameCodecConfigIhEERKNS_21IDoCanFrameSizeMapperIhEE
FN:202,_ZN5docan15DoCanFrameCodecIN12_GLOBAL__N_128SmallFrameIndexDataLinkLayerEEC2ERKNS_21DoCanFrameCodecConfigIhEERKNS_21IDoCanFrameSizeMapperIhEE
FN:202,_ZN5docan15DoCanFrameCodecINS_18DoCanDataLinkLayerIjthLj0EtEEEC2ERKNS_21DoCanFrameCodecConfigIhEERKNS_21IDoCanFrameSizeMapperIhEE
FN:202,_ZN5docan15DoCanFrameCodecINS_18DoCanDataLinkLayerIjthLj4294967295EtEEEC2ERKNS_21DoCanFrameCodecConfigIhEERKNS_21IDoCanFrameSizeMapperIhEE
FN:209,_ZNK5docan15DoCanFrameCodecINS_18DoCanDataLinkLayerIjthLj4294967295EtEEE15decodeFrameTypeERKN3etl4spanIKhLm18446744073709551615EEERNS_9FrameTypeE
FN:223,_ZNK5docan15DoCanFrameCodecINS_18DoCanDataLinkLayerIjthLj4294967295EtEEE17decodeSingleFrameERKN3etl4spanIKhLm18446744073709551615EEERtRS7_
FN:268,_ZNK5docan15DoCanFrameCodecINS_18DoCanDataLinkLayerIjthLj4294967295EtEEE16decodeFirstFrameERKN3etl4spanIKhLm18446744073709551615EEERtSA_RhRS7_
FN:268,_ZNK5docan15DoCanFrameCodecINS_18DoCanDataLinkLayerIjjhLj4294967295EjEEE16decodeFirstFrameERKN3etl4spanIKhLm18446744073709551615EEERjSA_RhRS7_
FN:268,_ZNK5docan15DoCanFrameCodecINS_18DoCanDataLinkLayerIjjhLj4294967295EtEEE16decodeFirstFrameERKN3etl4spanIKhLm18446744073709551615EEERjRtRhRS7_
FN:321,_ZNK5docan15DoCanFrameCodecINS_18DoCanDataLinkLayerIjthLj4294967295EtEEE22decodeConsecutiveFrameERKN3etl4spanIKhLm18446744073709551615EEERhRS7_
FN:337,_ZNK5docan15DoCanFrameCodecINS_18DoCanDataLinkLayerIjthLj4294967295EtEEE22decodeFlowControlFrameERKN3etl4spanIKhLm18446744073709551615EEERNS_10FlowStatusERhSC_
FN:355,_ZNK5docan15DoCanFrameCodecIN12_GLOBAL__N_113DataLinkLayerEE24fitsIntoShortSingleFrameEt
FN:355,_ZNK5docan15DoCanFrameCodecINS_18DoCanDataLinkLayerIjthLj0EtEEE24fitsIntoShortSingleFrameEt
FN:355,_ZNK5docan15DoCanFrameCodecINS_18DoCanDataLinkLayerIjjhLj4294967295EtEEE24fitsIntoShortSingleFrameEj
FN:355,_ZNK5docan15DoCanFrameCodecIN12_GLOBAL__N_128SmallFrameIndexDataLinkLayerEE24fitsIntoShortSingleFrameEt
FN:355,_ZNK5docan15DoCanFrameCodecINS_18DoCanDataLinkLayerIjthLj4294967295EtEEE24fitsIntoShortSingleFrameEt
FN:355,_ZNK5docan15DoCanFrameCodecINS_18DoCanDataLinkLayerIjjhLj4294967295EjEEE24fitsIntoShortSingleFrameEj
FN:364,_ZNK5docan15DoCanFrameCodecINS_18DoCanDataLinkLayerIjjhLj4294967295EjEEE23fitsIntoLongSingleFrameEj
FN:364,_ZNK5docan15DoCanFrameCodecIN12_GLOBAL__N_113DataLinkLayerEE23fitsIntoLongSingleFrameEt
FN:364,_ZNK5docan15DoCanFrameCodecINS_18DoCanDataLinkLayerIjthLj0EtEEE23fitsIntoLongSingleFrameEt
FN:364,_ZNK5docan15DoCanFrameCodecINS_18DoCanDataLinkLayerIjthLj4294967295EtEEE23fitsIntoLongSingleFrameEt
FN:364,_ZNK5docan15DoCanFrameCodecINS_18DoCanDataLinkLayerIjjhLj4294967295EtEEE23fitsIntoLongSingleFrameEj
FN:364,_ZNK5docan15DoCanFrameCodecIN12_GLOBAL__N_128SmallFrameIndexDataLinkLayerEE23fitsIntoLongSingleFrameEt
FN:374,_ZNK5docan15DoCanFrameCodecIN12_GLOBAL__N_113DataLinkLayerEE20getEncodedFrameCountEtRtRh
FN:374,_ZNK5docan15DoCanFrameCodecINS_18DoCanDataLinkLayerIjthLj0EtEEE20getEncodedFrameCountEtRtRh
FN:374,_ZNK5docan15DoCanFrameCodecINS_18DoCanDataLinkLayerIjjhLj4294967295EjEEE20getEncodedFrameCountEjRjRh
FN:374,_ZNK5docan15DoCanFrameCodecINS_18DoCanDataLinkLayerIjthLj4294967295EtEEE20getEncodedFrameCountEtRtRh
FN:374,_ZNK5docan15DoCanFrameCodecIN12_GLOBAL__N_128SmallFrameIndexDataLinkLayerEE20getEncodedFrameCountEtRhS4_
FN:374,_ZNK5docan15DoCanFrameCodecINS_18DoCanDataLinkLayerIjjhLj4294967295EtEEE20getEncodedFrameCountEjRtRh
FN:409,_ZNK5docan15DoCanFrameCodecINS_18DoCanDataLinkLayerIjthLj4294967295EtEEE15encodeDataFrameERN3etl4spanIhLm18446744073709551615EEERKNS5_IKhLm18446744073709551615EEEthRh
FN:501,_ZNK5docan15DoCanFrameCodecINS_18DoCanDataLinkLayerIjthLj4294967295EtEEE22encodeFlowControlFrameERN3etl4spanIhLm18446744073709551615EEENS_10FlowStatusEhh
FN:523,_ZNK5docan15DoCanFrameCodecINS_18DoCanDataLinkLayerIjthLj4294967295EtEEE11adjustFrameERN3etl4spanIhLm18446744073709551615EEEhh
FN:551,_ZNK5docan15DoCanFrameCodecINS_18DoCanDataLinkLayerIjjhLj4294967295EjEEE14checkFrameSizeERKN3etl4spanIKhLm18446744073709551615EEEhNS_21DoCanFrameCodecConfigIhE10SizeConfigE
FN:551,_ZNK5docan15DoCanFrameCodecINS_18DoCanDataLinkLayerIjthLj4294967295EtEEE14checkFrameSizeERKN3etl4spanIKhLm18446744073709551615EEEhNS_21DoCanFrameCodecConfigIhE10SizeConfigE
FN:551,_ZNK5docan15DoCanFrameCodecINS_18DoCanDataLinkLayerIjjhLj4294967295EtEEE14checkFrameSizeERKN3etl4spanIKhLm18446744073709551615EEEhNS_21DoCanFrameCodecConfigIhE10SizeConfigE
FNDA:2,_ZNK5docan15DoCanFrameCodecINS_18DoCanDataLinkLayerIjjhLj4294967295EjEEE16decodeFirstFrameERKN3etl4spanIKhLm18446744073709551615EEERjSA_RhRS7_
FNDA:2,_ZNK5docan15DoCanFrameCodecINS_18DoCanDataLinkLayerIjjhLj4294967295EjEEE20getEncodedFrameCountEjRjRh
FNDA:38,_ZNK5docan15DoCanFrameCodecIN12_GLOBAL__N_113DataLinkLayerEE23fitsIntoLongSingleFrameEt
FNDA:13,_ZNK5docan15DoCanFrameCodecINS_18DoCanDataLinkLayerIjthLj4294967295EtEEE16decodeFirstFrameERKN3etl4spanIKhLm18446744073709551615EEERtSA_RhRS7_
FNDA:1,_ZNK5docan15DoCanFrameCodecINS_18DoCanDataLinkLayerIjthLj4294967295EtEEE20getEncodedFrameCountEtRtRh
FNDA:2,_ZNK5docan15DoCanFrameCodecINS_18DoCanDataLinkLayerIjthLj0EtEEE23fitsIntoLongSingleFrameEt
FNDA:4,_ZNK5docan15DoCanFrameCodecINS_18DoCanDataLinkLayerIjjhLj4294967295EjEEE14checkFrameSizeERKN3etl4spanIKhLm18446744073709551615EEEhNS_21DoCanFrameCodecConfigIhE10SizeConfigE
FNDA:1,_ZN5docan15DoCanFrameCodecIN12_GLOBAL__N_128SmallFrameIndexDataLinkLayerEEC2ERKNS_21DoCanFrameCodecConfigIhEERKNS_21IDoCanFrameSizeMapperIhEE
FNDA:3,_ZN5docan15DoCanFrameCodecINS_18DoCanDataLinkLayerIjthLj0EtEEEC2ERKNS_21DoCanFrameCodecConfigIhEERKNS_21IDoCanFrameSizeMapperIhEE
FNDA:1,_ZNK5docan15DoCanFrameCodecIN12_GLOBAL__N_128SmallFrameIndexDataLinkLayerEE20getEncodedFrameCountEtRhS4_
FNDA:19,_ZNK5docan15DoCanFrameCodecINS_18DoCanDataLinkLayerIjthLj4294967295EtEEE23fitsIntoLongSingleFrameEt
FNDA:1,_ZNK5docan15DoCanFrameCodecIN12_GLOBAL__N_128SmallFrameIndexDataLinkLayerEE23fitsIntoLongSingleFrameEt
FNDA:5,_ZNK5docan15DoCanFrameCodecINS_18DoCanDataLinkLayerIjjhLj4294967295EtEEE23fitsIntoLongSingleFrameEj
FNDA:533,_ZN5docan15DoCanFrameCodecINS_18DoCanDataLinkLayerIjthLj4294967295EtEEEC2ERKNS_21DoCanFrameCodecConfigIhEERKNS_21IDoCanFrameSizeMapperIhEE
FNDA:1,_ZNK5docan15DoCanFrameCodecIN12_GLOBAL__N_128SmallFrameIndexDataLinkLayerEE24fitsIntoShortSingleFrameEt
FNDA:30,_ZNK5docan15DoCanFrameCodecINS_18DoCanDataLinkLayerIjthLj4294967295EtEEE24fitsIntoShortSingleFrameEt
FNDA:16,_ZNK5docan15DoCanFrameCodecINS_18DoCanDataLinkLayerIjthLj4294967295EtEEE17decodeSingleFrameERKN3etl4spanIKhLm18446744073709551615EEERtRS7_
FNDA:4,_ZNK5docan15DoCanFrameCodecINS_18DoCanDataLinkLayerIjjhLj4294967295EjEEE24fitsIntoShortSingleFrameEj
FNDA:5,_ZNK5docan15DoCanFrameCodecINS_18DoCanDataLinkLayerIjjhLj4294967295EtEEE16decodeFirstFrameERKN3etl4spanIKhLm18446744073709551615EEERjRtRhRS7_
FNDA:9,_ZNK5docan15DoCanFrameCodecINS_18DoCanDataLinkLayerIjjhLj4294967295EtEEE14checkFrameSizeERKN3etl4spanIKhLm18446744073709551615EEEhNS_21DoCanFrameCodecConfigIhE10SizeConfigE
FNDA:13,_ZNK5docan15DoCanFrameCodecINS_18DoCanDataLinkLayerIjthLj4294967295EtEEE15decodeFrameTypeERKN3etl4spanIKhLm18446744073709551615EEERNS_9FrameTypeE
FNDA:53,_ZNK5docan15DoCanFrameCodecINS_18DoCanDataLinkLayerIjthLj4294967295EtEEE14checkFrameSizeERKN3etl4spanIKhLm18446744073709551615EEEhNS_21DoCanFrameCodecConfigIhE10SizeConfigE
FNDA:2,_ZNK5docan15DoCanFrameCodecINS_18DoCanDataLinkLayerIjjhLj4294967295EtEEE20getEncodedFrameCountEjRtRh
FNDA:38,_ZNK5docan15DoCanFrameCodecIN12_GLOBAL__N_113DataLinkLayerEE24fitsIntoShortSingleFrameEt
FNDA:2,_ZN5docan15DoCanFrameCodecINS_18DoCanDataLinkLayerIjjhLj4294967295EjEEEC2ERKNS_21DoCanFrameCodecConfigIhEERKNS_21IDoCanFrameSizeMapperIhEE
FNDA:2,_ZNK5docan15DoCanFrameCodecINS_18DoCanDataLinkLayerIjthLj0EtEEE24fitsIntoShortSingleFrameEt
FNDA:64,_ZN5docan15DoCanFrameCodecIN12_GLOBAL__N_113DataLinkLayerEEC2ERKNS_21DoCanFrameCodecConfigIhEERKNS_21IDoCanFrameSizeMapperIhEE
FNDA:4,_ZNK5docan15DoCanFrameCodecINS_18DoCanDataLinkLayerIjjhLj4294967295EjEEE23fitsIntoLongSingleFrameEj
FNDA:9,_ZNK5docan15DoCanFrameCodecINS_18DoCanDataLinkLayerIjthLj4294967295EtEEE22decodeConsecutiveFrameERKN3etl4spanIKhLm18446744073709551615EEERhRS7_
FNDA:755,_ZNK5docan15DoCanFrameCodecINS_18DoCanDataLinkLayerIjthLj4294967295EtEEE11adjustFrameERN3etl4spanIhLm18446744073709551615EEEhh
FNDA:39,_ZNK5docan15DoCanFrameCodecIN12_GLOBAL__N_113DataLinkLayerEE20getEncodedFrameCountEtRtRh
FNDA:5,_ZNK5docan15DoCanFrameCodecINS_18DoCanDataLinkLayerIjthLj4294967295EtEEE22encodeFlowControlFrameERN3etl4spanIhLm18446744073709551615EEENS_10FlowStatusEhh
FNDA:756,_ZNK5docan15DoCanFrameCodecINS_18DoCanDataLinkLayerIjthLj4294967295EtEEE15encodeDataFrameERN3etl4spanIhLm18446744073709551615EEERKNS5_IKhLm18446744073709551615EEEthRh
FNDA:5,_ZNK5docan15DoCanFrameCodecINS_18DoCanDataLinkLayerIjjhLj4294967295EtEEE24fitsIntoShortSingleFrameEj
FNDA:13,_ZNK5docan15DoCanFrameCodecINS_18DoCanDataLinkLayerIjthLj4294967295EtEEE22decodeFlowControlFrameERKN3etl4spanIKhLm18446744073709551615EEERNS_10FlowStatusERhSC_
FNDA:1,_ZN5docan15DoCanFrameCodecINS_18DoCanDataLinkLayerIjjhLj4294967295EtEEEC2ERKNS_21DoCanFrameCodecConfigIhEERKNS_21IDoCanFrameSizeMapperIhEE
FNDA:2,_ZNK5docan15DoCanFrameCodecINS_18DoCanDataLinkLayerIjthLj0EtEEE20getEncodedFrameCountEtRtRh
FNF:37
FNH:37
DA:202,604
DA:205,604
DA:206,604
DA:209,13
DA:212,13
DA:213,13
DA:215,1
DA:218,12
DA:219,12
DA:223,16
DA:228,16
DA:229,16
DA:231,10
DA:232,10
DA:233,10
DA:235,2
DA:236,2
DA:237,2
DA:239,4
DA:240,2
DA:242,2
DA:243,2
DA:244,2
DA:246,0
DA:247,8
DA:249,7
DA:250,7
DA:251,7
DA:253,5
DA:254,5
DA:255,5
DA:262,3
DA:264,6
DA:268,20
DA:275,20
DA:277,15
DA:278,15
DA:279,15
DA:280,15
DA:281,15
DA:282,15
DA:284,8
DA:286,1
DA:289,7
DA:291,7
DA:292,7
DA:294,0
DA:296,7
DA:297,7
DA:300,14
DA:301,14
DA:303,1
DA:305,13
DA:306,13
DA:307,12
DA:308,12
DA:310,11
DA:311,11
DA:312,11
DA:313,11
DA:315,1
DA:317,5
DA:321,9
DA:326,9
DA:328,4
DA:329,4
DA:330,4
DA:331,4
DA:333,5
DA:337,13
DA:343,13
DA:345,6
DA:346,6
DA:347,6
DA:348,6
DA:349,6
DA:351,7
DA:355,80
DA:358,80
DA:359,80
DA:360,80
DA:364,69
DA:368,69
DA:369,68
DA:370,68
DA:374,47
DA:381,47
DA:383,46
DA:385,1
DA:388,45
DA:389,45
DA:390,45
DA:392,18
DA:393,18
DA:397,27
DA:398,27
DA:399,27
DA:401,2
DA:403,25
DA:405,43
DA:409,756
DA:416,756
DA:418,2
DA:420,754
DA:423,754
DA:424,754
DA:426,23
DA:427,23
DA:429,12
DA:430,12
DA:432,12
DA:433,12
DA:434,12
DA:436,11
DA:438,1
DA:439,1
DA:440,1
DA:441,1
DA:442,1
DA:444,10
DA:446,8
DA:447,8
DA:449,8
DA:451,6
DA:455,2
DA:456,2
DA:457,2
DA:459,2
DA:460,2
DA:462,8
DA:463,8
DA:467,2
DA:470,731
DA:472,730
DA:474,730
DA:475,730
DA:477,730
DA:478,730
DA:479,730
DA:480,730
DA:484,1
DA:487,751
DA:488,751
DA:490,1
DA:493,750
DA:494,750
DA:496,750
DA:497,750
DA:501,5
DA:507,5
DA:508,5
DA:510,0
DA:513,5
DA:514,5
DA:516,5
DA:517,5
DA:518,10
DA:519,5
DA:523,755
DA:528,755
DA:529,755
DA:531,1
DA:534,754
DA:536,11
DA:538,1
DA:541,10
DA:542,10
DA:543,10
DA:544,10
DA:546,753
DA:547,753
DA:551,66
DA:556,66
DA:557,62
DA:558,128
LF:175
LH:172
end_of_record
TN:
SF:/home/jenkins/libs/bsw/docan/include/docan/datalink/DoCanFrameDecoder.h
FN:44,_ZN5docan17DoCanFrameDecoderINS_18DoCanDataLinkLayerIjthLj4294967295EtEEE11decodeFrameERKNS_15DoCanConnectionIS2_EERKN3etl4spanIKhLm18446744073709551615EEERNS_19IDoCanFrameReceiverIS2_EE
FNDA:13,_ZN5docan17DoCanFrameDecoderINS_18DoCanDataLinkLayerIjthLj4294967295EtEEE11decodeFrameERKNS_15DoCanConnectionIS2_EERKN3etl4spanIKhLm18446744073709551615EEERNS_19IDoCanFrameReceiverIS2_EE
FNF:1
FNH:1
DA:44,13
DA:49,13
DA:51,13
DA:52,13
DA:54,12
DA:56,2
DA:58,2
DA:60,2
DA:61,2
DA:63,1
DA:65,2
DA:67,4
DA:69,4
DA:73,4
DA:75,4
DA:77,3
DA:80,4
DA:82,2
DA:84,2
DA:86,2
DA:87,2
DA:89,1
DA:90,1
DA:94,2
DA:96,3
DA:101,3
DA:103,3
DA:105,2
DA:106,2
DA:111,3
DA:113,1
DA:115,1
DA:119,12
LF:33
LH:33
end_of_record
TN:
SF:/home/jenkins/libs/bsw/docan/include/docan/receiver/DoCanMessageReceiveProtocolHandler.h
FN:92,_ZNK5docan13ReceiveResult13hasTransitionEv
FN:98,_ZNK5docan13ReceiveResult10getMessageEv
FN:104,_ZNK5docan13ReceiveResult8getParamEv
FN:136,_ZNK5docan34DoCanMessageReceiveProtocolHandlerItE8getStateEv
FN:142,_ZNK5docan34DoCanMessageReceiveProtocolHandlerItE10getTimeoutEv
FN:148,_ZNK5docan34DoCanMessageReceiveProtocolHandlerItE13getFrameIndexEv
FN:154,_ZNK5docan34DoCanMessageReceiveProtocolHandlerItE13getFrameCountEv
FN:161,_ZNK5docan34DoCanMessageReceiveProtocolHandlerItE17isFlowControlWaitEv
FN:168,_ZNK5docan34DoCanMessageReceiveProtocolHandlerItE12isAllocatingEv
FN:175,_ZN5docan34DoCanMessageReceiveProtocolHandlerItE6cancelENS_14ReceiveMessageE
FN:184,_ZN5docan34DoCanMessageReceiveProtocolHandlerItE8shutdownEv
FN:217,_ZN5docan34DoCanMessageReceiveProtocolHandlerItE9processedEb
FN:226,_ZN5docan34DoCanMessageReceiveProtocolHandlerItE7expiredEv
FN:264,_ZN5docan34DoCanMessageReceiveProtocolHandlerItEC2Et
FN:276,_ZN5docan34DoCanMessageReceiveProtocolHandlerItE9allocatedEbh
FN:314,_ZN5docan34DoCanMessageReceiveProtocolHandlerItE9frameSentEb
FN:331,_ZN5docan34DoCanMessageReceiveProtocolHandlerItE24consecutiveFrameReceivedEhh
FN:363,_ZN5docan34DoCanMessageReceiveProtocolHandlerItE8setStateENS_12ReceiveStateENS_14ReceiveTimeoutE
FN:372,_ZN5docan34DoCanMessageReceiveProtocolHandlerItE7setDoneENS_14ReceiveMessageEh
FN:381,_ZN5docan13ReceiveResultC2Eb
FN:385,_ZN5docan13ReceiveResult10setMessageENS_14ReceiveMessageE
FN:392,_ZN5docan13ReceiveResult10setMessageENS_14ReceiveMessageEh
FN:399,_ZNK5docan13ReceiveResulteqERKS0_
FNDA:60,_ZN5docan34DoCanMessageReceiveProtocolHandlerItE7setDoneENS_14ReceiveMessageEh
FNDA:5597,_ZNK5docan13ReceiveResult13hasTransitionEv
FNDA:12,_ZNK5docan34DoCanMessageReceiveProtocolHandlerItE13getFrameIndexEv
FNDA:7,_ZN5docan13ReceiveResult10setMessageENS_14ReceiveMessageE
FNDA:1768,_ZN5docan34DoCanMessageReceiveProtocolHandlerItE24consecutiveFrameReceivedEhh
FNDA:31,_ZN5docan34DoCanMessageReceiveProtocolHandlerItE9processedEb
FNDA:76,_ZN5docan34DoCanMessageReceiveProtocolHandlerItEC2Et
FNDA:13,_ZN5docan34DoCanMessageReceiveProtocolHandlerItE6cancelENS_14ReceiveMessageE
FNDA:84,_ZN5docan34DoCanMessageReceiveProtocolHandlerItE9allocatedEbh
FNDA:3,_ZNK5docan13ReceiveResult8getParamEv
FNDA:75,_ZN5docan13ReceiveResult10setMessageENS_14ReceiveMessageEh
FNDA:1899,_ZNK5docan13ReceiveResult10getMessageEv
FNDA:86,_ZNK5docan13ReceiveResulteqERKS0_
FNDA:50,_ZN5docan34DoCanMessageReceiveProtocolHandlerItE9frameSentEb
FNDA:18,_ZNK5docan34DoCanMessageReceiveProtocolHandlerItE13getFrameCountEv
FNDA:7,_ZN5docan34DoCanMessageReceiveProtocolHandlerItE8shutdownEv
FNDA:3883,_ZN5docan13ReceiveResultC2Eb
FNDA:131,_ZNK5docan34DoCanMessageReceiveProtocolHandlerItE12isAllocatingEv
FNDA:1901,_ZN5docan34DoCanMessageReceiveProtocolHandlerItE8setStateENS_12ReceiveStateENS_14ReceiveTimeoutE
FNDA:5700,_ZNK5docan34DoCanMessageReceiveProtocolHandlerItE8getStateEv
FNDA:1961,_ZNK5docan34DoCanMessageReceiveProtocolHandlerItE10getTimeoutEv
FNDA:23,_ZN5docan34DoCanMessageReceiveProtocolHandlerItE7expiredEv
FNDA:89,_ZNK5docan34DoCanMessageReceiveProtocolHandlerItE17isFlowControlWaitEv
FNF:23
FNH:23
DA:92,5597
DA:98,1899
DA:104,3
DA:136,5700
DA:142,1961
DA:148,12
DA:154,18
DA:161,89
DA:168,131
DA:175,13
DA:177,13
DA:184,7
DA:186,7
DA:217,31
DA:219,31
DA:226,23
DA:228,23
DA:230,9
DA:232,9
DA:234,13
DA:236,13
DA:238,1
DA:240,1
DA:264,76
DA:266,76
DA:267,76
DA:268,76
DA:269,76
DA:270,76
DA:271,76
DA:272,76
DA:273,76
DA:276,84
DA:279,84
DA:281,1
DA:282,1
DA:285,83
DA:287,56
DA:288,56
DA:289,56
DA:292,27
DA:294,13
DA:295,13
DA:297,2
DA:300,11
DA:303,14
DA:304,14
DA:306,2
DA:309,12
DA:314,50
DA:316,50
DA:318,1
DA:319,1
DA:321,49
DA:323,46
DA:325,92
DA:327,3
DA:331,1768
DA:334,1768
DA:336,2
DA:339,1766
DA:341,3
DA:344,1763
DA:345,1763
DA:347,18
DA:349,1745
DA:351,6
DA:352,6
DA:354,3
DA:355,3
DA:359,1742
DA:363,1901
DA:366,1901
DA:367,1901
DA:368,1901
DA:372,60
DA:375,60
DA:376,60
DA:377,60
DA:378,60
DA:381,3883
DA:382,3883
DA:383,3883
DA:385,7
DA:387,7
DA:388,7
DA:389,7
DA:392,75
DA:394,75
DA:395,75
DA:396,75
DA:399,86
DA:401,85
DA:402,171
LF:94
LH:94
end_of_record
TN:
SF:/home/jenkins/libs/bsw/docan/include/docan/receiver/DoCanMessageReceiver.h
FN:190,_ZNK5docan20DoCanMessageReceiverIN12_GLOBAL__N_113DataLinkLayerEEltERKS3_
FN:190,_ZNK5docan20DoCanMessageReceiverINS_18DoCanDataLinkLayerIjthLj0EtEEEltERKS3_
FN:190,_ZNK5docan20DoCanMessageReceiverINS_18DoCanDataLinkLayerIjthLj4294967295EtEEEltERKS3_
FN:237,_ZN5docan20DoCanMessageReceiverIN12_GLOBAL__N_113DataLinkLayerEEC2ERKNS_15DoCanConnectionIS2_EEtthhhRKN3etl4spanIKhLm18446744073709551615EEEb
FN:237,_ZN5docan20DoCanMessageReceiverINS_18DoCanDataLinkLayerIjthLj4294967295EtEEEC2ERKNS_15DoCanConnectionIS2_EEtthhhRKN3etl4spanIKhLm18446744073709551615EEEb
FN:237,_ZN5docan20DoCanMessageReceiverINS_18DoCanDataLinkLayerIjthLj0EtEEEC2ERKNS_15DoCanConnectionIS2_EEtthhhRKN3etl4spanIKhLm18446744073709551615EEEb
FN:262,_ZNK5docan20DoCanMessageReceiverINS_18DoCanDataLinkLayerIjthLj0EtEEE10getMessageEv
FN:262,_ZNK5docan20DoCanMessageReceiverINS_18DoCanDataLinkLayerIjthLj4294967295EtEEE10getMessageEv
FN:262,_ZNK5docan20DoCanMessageReceiverIN12_GLOBAL__N_113DataLinkLayerEE10getMessageEv
FN:269,_ZNK5docan20DoCanMessageReceiverIN12_GLOBAL__N_113DataLinkLayerEE23getTransportAddressPairEv
FN:269,_ZNK5docan20DoCanMessageReceiverINS_18DoCanDataLinkLayerIjthLj4294967295EtEEE23getTransportAddressPairEv
FN:269,_ZNK5docan20DoCanMessageReceiverINS_18DoCanDataLinkLayerIjthLj0EtEEE23getTransportAddressPairEv
FN:276,_ZNK5docan20DoCanMessageReceiverIN12_GLOBAL__N_113DataLinkLayerEE19getReceptionAddressEv
FN:276,_ZNK5docan20DoCanMessageReceiverINS_18DoCanDataLinkLayerIjthLj4294967295EtEEE19getReceptionAddressEv
FN:276,_ZNK5docan20DoCanMessageReceiverINS_18DoCanDataLinkLayerIjthLj0EtEEE19getReceptionAddressEv
FN:283,_ZNK5docan20DoCanMessageReceiverINS_18DoCanDataLinkLayerIjthLj0EtEEE22getTransmissionAddressEv
FN:283,_ZNK5docan20DoCanMessageReceiverINS_18DoCanDataLinkLayerIjthLj4294967295EtEEE22getTransmissionAddressEv
FN:283,_ZNK5docan20DoCanMessageReceiverIN12_GLOBAL__N_113DataLinkLayerEE22getTransmissionAddressEv
FN:290,_ZNK5docan20DoCanMessageReceiverINS_18DoCanDataLinkLayerIjthLj4294967295EtEEE13getFrameCodecEv
FN:290,_ZNK5docan20DoCanMessageReceiverIN12_GLOBAL__N_113DataLinkLayerEE13getFrameCodecEv
FN:290,_ZNK5docan20DoCanMessageReceiverINS_18DoCanDataLinkLayerIjthLj0EtEEE13getFrameCodecEv
FN:297,_ZNK5docan20DoCanMessageReceiverIN12_GLOBAL__N_113DataLinkLayerEE14getMessageSizeEv
FN:297,_ZNK5docan20DoCanMessageReceiverINS_18DoCanDataLinkLayerIjthLj0EtEEE14getMessageSizeEv
FN:297,_ZNK5docan20DoCanMessageReceiverINS_18DoCanDataLinkLayerIjthLj4294967295EtEEE14getMessageSizeEv
FN:303,_ZNK5docan20DoCanMessageReceiverINS_18DoCanDataLinkLayerIjthLj0EtEEE15getMaxBlockSizeEv
FN:303,_ZNK5docan20DoCanMessageReceiverIN12_GLOBAL__N_113DataLinkLayerEE15getMaxBlockSizeEv
FN:303,_ZNK5docan20DoCanMessageReceiverINS_18DoCanDataLinkLayerIjthLj4294967295EtEEE15getMaxBlockSizeEv
FN:309,_ZNK5docan20DoCanMessageReceiverIN12_GLOBAL__N_113DataLinkLayerEE27getEncodedMinSeparationTimeEv
FN:309,_ZNK5docan20DoCanMessageReceiverINS_18DoCanDataLinkLayerIjthLj0EtEEE27getEncodedMinSeparationTimeEv
FN:309,_ZNK5docan20DoCanMessageReceiverINS_18DoCanDataLinkLayerIjthLj4294967295EtEEE27getEncodedMinSeparationTimeEv
FN:315,_ZN5docan20DoCanMessageReceiverINS_18DoCanDataLinkLayerIjthLj4294967295EtEEE9allocatedEPN9transport16TransportMessageEh
FN:315,_ZN5docan20DoCanMessageReceiverINS_18DoCanDataLinkLayerIjthLj0EtEEE9allocatedEPN9transport16TransportMessageEh
FN:315,_ZN5docan20DoCanMessageReceiverIN12_GLOBAL__N_113DataLinkLayerEE9allocatedEPN9transport16TransportMessageEh
FN:330,_ZNK5docan20DoCanMessageReceiverINS_18DoCanDataLinkLayerIjthLj4294967295EtEEE26isConsecutiveFrameExpectedEv
FN:330,_ZNK5docan20DoCanMessageReceiverIN12_GLOBAL__N_113DataLinkLayerEE26isConsecutiveFrameExpectedEv
FN:330,_ZNK5docan20DoCanMessageReceiverINS_18DoCanDataLinkLayerIjthLj0EtEEE26isConsecutiveFrameExpectedEv
FN:337,_ZNK5docan20DoCanMessageReceiverINS_18DoCanDataLinkLayerIjthLj4294967295EtEEE35getExpectedConsecutiveFrameDataSizeEv
FN:337,_ZNK5docan20DoCanMessageReceiverIN12_GLOBAL__N_113DataLinkLayerEE35getExpectedConsecutiveFrameDataSizeEv
FN:337,_ZNK5docan20DoCanMessageReceiverINS_18DoCanDataLinkLayerIjthLj0EtEEE35getExpectedConsecutiveFrameDataSizeEv
FN:345,_ZN5docan20DoCanMessageReceiverINS_18DoCanDataLinkLayerIjthLj4294967295EtEEE24consecutiveFrameReceivedEhhRKN3etl4spanIKhLm18446744073709551615EEE
FN:345,_ZN5docan20DoCanMessageReceiverINS_18DoCanDataLinkLayerIjthLj0EtEEE24consecutiveFrameReceivedEhhRKN3etl4spanIKhLm18446744073709551615EEE
FN:345,_ZN5docan20DoCanMessageReceiverIN12_GLOBAL__N_113DataLinkLayerEE24consecutiveFrameReceivedEhhRKN3etl4spanIKhLm18446744073709551615EEE
FN:361,_ZN5docan20DoCanMessageReceiverINS_18DoCanDataLinkLayerIjthLj4294967295EtEEE13detachMessageEv
FN:361,_ZN5docan20DoCanMessageReceiverINS_18DoCanDataLinkLayerIjthLj0EtEEE13detachMessageEv
FN:361,_ZN5docan20DoCanMessageReceiverIN12_GLOBAL__N_113DataLinkLayerEE13detachMessageEv
FN:369,_ZN5docan20DoCanMessageReceiverINS_18DoCanDataLinkLayerIjthLj0EtEEE7releaseEv
FN:369,_ZN5docan20DoCanMessageReceiverIN12_GLOBAL__N_113DataLinkLayerEE7releaseEv
FN:369,_ZN5docan20DoCanMessageReceiverINS_18DoCanDataLinkLayerIjthLj4294967295EtEEE7releaseEv
FN:376,_ZNK5docan20DoCanMessageReceiverIN12_GLOBAL__N_113DataLinkLayerEE12timerExpiredEj
FN:376,_ZNK5docan20DoCanMessageReceiverINS_18DoCanDataLinkLayerIjthLj0EtEEE12timerExpiredEj
FN:376,_ZNK5docan20DoCanMessageReceiverINS_18DoCanDataLinkLayerIjthLj4294967295EtEEE12timerExpiredEj
FN:383,_ZN5docan20DoCanMessageReceiverIN12_GLOBAL__N_113DataLinkLayerEE8setTimerEj
FN:383,_ZN5docan20DoCanMessageReceiverINS_18DoCanDataLinkLayerIjthLj0EtEEE8setTimerEj
FN:383,_ZN5docan20DoCanMessageReceiverINS_18DoCanDataLinkLayerIjthLj4294967295EtEEE8setTimerEj
FN:390,_ZN5docan20DoCanMessageReceiverIN12_GLOBAL__N_113DataLinkLayerEE11updateTimerEj
FN:390,_ZN5docan20DoCanMessageReceiverINS_18DoCanDataLinkLayerIjthLj0EtEEE11updateTimerEj
FN:390,_ZN5docan20DoCanMessageReceiverINS_18DoCanDataLinkLayerIjthLj4294967295EtEEE11updateTimerEj
FN:406,_ZNK5docan20DoCanMessageReceiverIN12_GLOBAL__N_113DataLinkLayerEE9isBlockedEv
FN:406,_ZNK5docan20DoCanMessageReceiverINS_18DoCanDataLinkLayerIjthLj4294967295EtEEE9isBlockedEv
FN:406,_ZNK5docan20DoCanMessageReceiverINS_18DoCanDataLinkLayerIjthLj0EtEEE9isBlockedEv
FN:412,_ZN5docan20DoCanMessageReceiverIN12_GLOBAL__N_113DataLinkLayerEE10setBlockedEb
FN:412,_ZN5docan20DoCanMessageReceiverINS_18DoCanDataLinkLayerIjthLj0EtEEE10setBlockedEb
FN:412,_ZN5docan20DoCanMessageReceiverINS_18DoCanDataLinkLayerIjthLj4294967295EtEEE10setBlockedEb
FN:418,_ZNK5docan20DoCanMessageReceiverINS_18DoCanDataLinkLayerIjthLj4294967295EtEEE17getFirstFrameDataEv
FN:418,_ZNK5docan20DoCanMessageReceiverINS_18DoCanDataLinkLayerIjthLj0EtEEE17getFirstFrameDataEv
FN:418,_ZNK5docan20DoCanMessageReceiverIN12_GLOBAL__N_113DataLinkLayerEE17getFirstFrameDataEv
FNDA:0,_ZN5docan20DoCanMessageReceiverINS_18DoCanDataLinkLayerIjthLj4294967295EtEEE11updateTimerEj
FNDA:2,_ZN5docan20DoCanMessageReceiverINS_18DoCanDataLinkLayerIjthLj0EtEEE11updateTimerEj
FNDA:715,_ZNK5docan20DoCanMessageReceiverINS_18DoCanDataLinkLayerIjthLj0EtEEE35getExpectedConsecutiveFrameDataSizeEv
FNDA:2,_ZNK5docan20DoCanMessageReceiverINS_18DoCanDataLinkLayerIjthLj0EtEEE13getFrameCodecEv
FNDA:4,_ZNK5docan20DoCanMessageReceiverINS_18DoCanDataLinkLayerIjthLj0EtEEE23getTransportAddressPairEv
FNDA:0,_ZNK5docan20DoCanMessageReceiverINS_18DoCanDataLinkLayerIjthLj4294967295EtEEE15getMaxBlockSizeEv
FNDA:0,_ZNK5docan20DoCanMessageReceiverINS_18DoCanDataLinkLayerIjthLj4294967295EtEEE23getTransportAddressPairEv
FNDA:0,_ZNK5docan20DoCanMessageReceiverINS_18DoCanDataLinkLayerIjthLj4294967295EtEEE17getFirstFrameDataEv
FNDA:4,_ZNK5docan20DoCanMessageReceiverINS_18DoCanDataLinkLayerIjthLj0EtEEE17getFirstFrameDataEv
FNDA:1044,_ZN5docan20DoCanMessageReceiverIN12_GLOBAL__N_113DataLinkLayerEE24consecutiveFrameReceivedEhhRKN3etl4spanIKhLm18446744073709551615EEE
FNDA:715,_ZNK5docan20DoCanMessageReceiverINS_18DoCanDataLinkLayerIjthLj0EtEEE26isConsecutiveFrameExpectedEv
FNDA:0,_ZNK5docan20DoCanMessageReceiverINS_18DoCanDataLinkLayerIjthLj0EtEEEltERKS3_
FNDA:0,_ZNK5docan20DoCanMessageReceiverINS_18DoCanDataLinkLayerIjthLj4294967295EtEEE14getMessageSizeEv
FNDA:0,_ZNK5docan20DoCanMessageReceiverINS_18DoCanDataLinkLayerIjthLj4294967295EtEEE12timerExpiredEj
FNDA:49,_ZNK5docan20DoCanMessageReceiverIN12_GLOBAL__N_113DataLinkLayerEE17getFirstFrameDataEv
FNDA:5,_ZNK5docan20DoCanMessageReceiverIN12_GLOBAL__N_113DataLinkLayerEE10getMessageEv
FNDA:0,_ZNK5docan20DoCanMessageReceiverINS_18DoCanDataLinkLayerIjthLj4294967295EtEEEltERKS3_
FNDA:7,_ZNK5docan20DoCanMessageReceiverINS_18DoCanDataLinkLayerIjthLj0EtEEE9isBlockedEv
FNDA:0,_ZNK5docan20DoCanMessageReceiverINS_18DoCanDataLinkLayerIjthLj4294967295EtEEE22getTransmissionAddressEv
FNDA:0,_ZN5docan20DoCanMessageReceiverINS_18DoCanDataLinkLayerIjthLj4294967295EtEEE10setBlockedEb
FNDA:0,_ZNK5docan20DoCanMessageReceiverINS_18DoCanDataLinkLayerIjthLj4294967295EtEEE27getEncodedMinSeparationTimeEv
FNDA:32,_ZNK5docan20DoCanMessageReceiverIN12_GLOBAL__N_113DataLinkLayerEE22getTransmissionAddressEv
FNDA:2,_ZNK5docan20DoCanMessageReceiverINS_18DoCanDataLinkLayerIjthLj0EtEEE12timerExpiredEj
FNDA:715,_ZN5docan20DoCanMessageReceiverINS_18DoCanDataLinkLayerIjthLj0EtEEE24consecutiveFrameReceivedEhhRKN3etl4spanIKhLm18446744073709551615EEE
FNDA:60,_ZN5docan20DoCanMessageReceiverIN12_GLOBAL__N_113DataLinkLayerEE9allocatedEPN9transport16TransportMessageEh
FNDA:2,_ZNK5docan20DoCanMessageReceiverINS_18DoCanDataLinkLayerIjthLj0EtEEE27getEncodedMinSeparationTimeEv
FNDA:2,_ZNK5docan20DoCanMessageReceiverINS_18DoCanDataLinkLayerIjthLj0EtEEE22getTransmissionAddressEv
FNDA:25,_ZNK5docan20DoCanMessageReceiverIN12_GLOBAL__N_113DataLinkLayerEE15getMaxBlockSizeEv
FNDA:3,_ZN5docan20DoCanMessageReceiverINS_18DoCanDataLinkLayerIjthLj0EtEEEC2ERKNS_15DoCanConnectionIS2_EEtthhhRKN3etl4spanIKhLm18446744073709551615EEEb
FNDA:1044,_ZNK5docan20DoCanMessageReceiverIN12_GLOBAL__N_113DataLinkLayerEE35getExpectedConsecutiveFrameDataSizeEv
FNDA:718,_ZNK5docan20DoCanMessageReceiverINS_18DoCanDataLinkLayerIjthLj0EtEEE19getReceptionAddressEv
FNDA:4,_ZN5docan20DoCanMessageReceiverINS_18DoCanDataLinkLayerIjthLj0EtEEE9allocatedEPN9transport16TransportMessageEh
FNDA:0,_ZN5docan20DoCanMessageReceiverINS_18DoCanDataLinkLayerIjthLj4294967295EtEEE7releaseEv
FNDA:65,_ZN5docan20DoCanMessageReceiverIN12_GLOBAL__N_113DataLinkLayerEE13detachMessageEv
FNDA:0,_ZN5docan20DoCanMessageReceiverINS_18DoCanDataLinkLayerIjthLj4294967295EtEEE24consecutiveFrameReceivedEhhRKN3etl4spanIKhLm18446744073709551615EEE
FNDA:0,_ZNK5docan20DoCanMessageReceiverINS_18DoCanDataLinkLayerIjthLj0EtEEE10getMessageEv
FNDA:0,_ZN5docan20DoCanMessageReceiverINS_18DoCanDataLinkLayerIjthLj4294967295EtEEEC2ERKNS_15DoCanConnectionIS2_EEtthhhRKN3etl4spanIKhLm18446744073709551615EEEb
FNDA:83,_ZNK5docan20DoCanMessageReceiverIN12_GLOBAL__N_113DataLinkLayerEE14getMessageSizeEv
FNDA:31,_ZNK5docan20DoCanMessageReceiverIN12_GLOBAL__N_113DataLinkLayerEE13getFrameCodecEv
FNDA:1047,_ZNK5docan20DoCanMessageReceiverIN12_GLOBAL__N_113DataLinkLayerEE26isConsecutiveFrameExpectedEv
FNDA:6,_ZN5docan20DoCanMessageReceiverINS_18DoCanDataLinkLayerIjthLj0EtEEE13detachMessageEv
FNDA:0,_ZNK5docan20DoCanMessageReceiverINS_18DoCanDataLinkLayerIjthLj4294967295EtEEE9isBlockedEv
FNDA:0,_ZN5docan20DoCanMessageReceiverINS_18DoCanDataLinkLayerIjthLj4294967295EtEEE8setTimerEj
FNDA:1691,_ZNK5docan20DoCanMessageReceiverIN12_GLOBAL__N_113DataLinkLayerEE12timerExpiredEj
FNDA:7,_ZNK5docan20DoCanMessageReceiverINS_18DoCanDataLinkLayerIjthLj0EtEEE14getMessageSizeEv
FNDA:0,_ZNK5docan20DoCanMessageReceiverINS_18DoCanDataLinkLayerIjthLj4294967295EtEEE10getMessageEv
FNDA:25,_ZNK5docan20DoCanMessageReceiverIN12_GLOBAL__N_113DataLinkLayerEE27getEncodedMinSeparationTimeEv
FNDA:44,_ZN5docan20DoCanMessageReceiverIN12_GLOBAL__N_113DataLinkLayerEE7releaseEv
FNDA:3,_ZN5docan20DoCanMessageReceiverINS_18DoCanDataLinkLayerIjthLj0EtEEE7releaseEv
FNDA:725,_ZN5docan20DoCanMessageReceiverINS_18DoCanDataLinkLayerIjthLj0EtEEE8setTimerEj
FNDA:0,_ZNK5docan20DoCanMessageReceiverINS_18DoCanDataLinkLayerIjthLj4294967295EtEEE19getReceptionAddressEv
FNDA:53,_ZNK5docan20DoCanMessageReceiverIN12_GLOBAL__N_113DataLinkLayerEE23getTransportAddressPairEv
FNDA:0,_ZN5docan20DoCanMessageReceiverINS_18DoCanDataLinkLayerIjthLj0EtEEE10setBlockedEb
FNDA:0,_ZNK5docan20DoCanMessageReceiverINS_18DoCanDataLinkLayerIjthLj4294967295EtEEE35getExpectedConsecutiveFrameDataSizeEv
FNDA:176,_ZNK5docan20DoCanMessageReceiverIN12_GLOBAL__N_113DataLinkLayerEE9isBlockedEv
FNDA:0,_ZNK5docan20DoCanMessageReceiverINS_18DoCanDataLinkLayerIjthLj4294967295EtEEE13getFrameCodecEv
FNDA:0,_ZN5docan20DoCanMessageReceiverINS_18DoCanDataLinkLayerIjthLj4294967295EtEEE13detachMessageEv
FNDA:0,_ZNK5docan20DoCanMessageReceiverINS_18DoCanDataLinkLayerIjthLj4294967295EtEEE26isConsecutiveFrameExpectedEv
FNDA:1164,_ZN5docan20DoCanMessageReceiverIN12_GLOBAL__N_113DataLinkLayerEE8setTimerEj
FNDA:4,_ZN5docan20DoCanMessageReceiverIN12_GLOBAL__N_113DataLinkLayerEE10setBlockedEb
FNDA:1184,_ZNK5docan20DoCanMessageReceiverIN12_GLOBAL__N_113DataLinkLayerEE19getReceptionAddressEv
FNDA:2,_ZNK5docan20DoCanMessageReceiverINS_18DoCanDataLinkLayerIjthLj0EtEEE15getMaxBlockSizeEv
FNDA:54,_ZN5docan20DoCanMessageReceiverIN12_GLOBAL__N_113DataLinkLayerEEC2ERKNS_15DoCanConnectionIS2_EEtthhhRKN3etl4spanIKhLm18446744073709551615EEEb
FNDA:232,_ZNK5docan20DoCanMessageReceiverIN12_GLOBAL__N_113DataLinkLayerEEltERKS3_
FNDA:0,_ZN5docan20DoCanMessageReceiverINS_18DoCanDataLinkLayerIjthLj4294967295EtEEE9allocatedEPN9transport16TransportMessageEh
FNDA:1696,_ZN5docan20DoCanMessageReceiverIN12_GLOBAL__N_113DataLinkLayerEE11updateTimerEj
FNF:66
FNH:41
DA:190,232
DA:192,232
DA:194,5
DA:196,227
DA:198,1
DA:200,226
DA:237,57
DA:248,57
DA:249,57
DA:250,57
DA:251,57
DA:252,57
DA:253,57
DA:254,57
DA:255,57
DA:256,57
DA:257,57
DA:258,57
DA:259,57
DA:262,5
DA:264,5
DA:269,57
DA:271,57
DA:276,1902
DA:278,1902
DA:283,34
DA:285,34
DA:290,33
DA:292,33
DA:297,90
DA:299,90
DA:303,27
DA:305,27
DA:309,27
DA:311,27
DA:315,64
DA:318,64
DA:320,64
DA:321,64
DA:323,43
DA:324,43
DA:326,64
DA:330,1762
DA:332,1762
DA:337,1759
DA:339,1759
DA:340,1759
DA:341,1759
DA:345,1759
DA:351,1759
DA:352,1759
DA:353,1759
DA:355,1757
DA:357,1759
DA:361,71
DA:363,71
DA:364,71
DA:365,71
DA:369,47
DA:371,47
DA:372,47
DA:376,1693
DA:379,1693
DA:383,1889
DA:385,1889
DA:386,1889
DA:387,1889
DA:390,1698
DA:392,1698
DA:394,5
DA:397,1693
DA:399,19
DA:400,19
DA:402,1674
DA:406,183
DA:408,183
DA:412,4
DA:414,4
DA:415,4
DA:418,53
DA:420,53
LF:81
LH:81
end_of_record
TN:
SF:/home/jenkins/libs/bsw/docan/include/docan/receiver/DoCanReceiver.h
FN:174,_ZN5docan13DoCanReceiverINS_18DoCanDataLinkLayerIjthLj4294967295EtEEEC2EhhRN9transport34ITransportMessageProvidingListenerERNS_33IDoCanFlowControlFrameTransmitterIS2_EERN3etl5ipoolERNS_22IDoCanAddressConverterIS2_EERKNS_15DoCanParametersEh
FN:174,_ZN5docan13DoCanReceiverIN12_GLOBAL__N_113DataLinkLayerEEC2EhhRN9transport34ITransportMessageProvidingListenerERNS_33IDoCanFlowControlFrameTransmitterIS2_EERN3etl5ipoolERNS_22IDoCanAddressConverterIS2_EERKNS_15DoCanParametersEh
FN:174,_ZN5docan13DoCanReceiverINS_18DoCanDataLinkLayerIjthLj0EtEEEC2EhhRN9transport34ITransportMessageProvidingListenerERNS_33IDoCanFlowControlFrameTransmitterIS2_EERN3etl5ipoolERNS_22IDoCanAddressConverterIS2_EERKNS_15DoCanParametersEh
FN:201,_ZN5docan13DoCanReceiverINS_18DoCanDataLinkLayerIjthLj4294967295EtEEE4initEv
FN:201,_ZN5docan13DoCanReceiverINS_18DoCanDataLinkLayerIjthLj0EtEEE4initEv
FN:201,_ZN5docan13DoCanReceiverIN12_GLOBAL__N_113DataLinkLayerEE4initEv
FN:216,_ZN5docan13DoCanReceiverINS_18DoCanDataLinkLayerIjthLj0EtEEE8shutdownEv
FN:216,_ZN5docan13DoCanReceiverIN12_GLOBAL__N_113DataLinkLayerEE8shutdownEv
FN:216,_ZN5docan13DoCanReceiverINS_18DoCanDataLinkLayerIjthLj4294967295EtEEE8shutdownEv
FN:229,_ZN5docan13DoCanReceiverIN12_GLOBAL__N_113DataLinkLayerEE22firstDataFrameReceivedERKNS_15DoCanConnectionIS2_EEtthRKN3etl4spanIKhLm18446744073709551615EEE
FN:229,_ZN5docan13DoCanReceiverINS_18DoCanDataLinkLayerIjthLj0EtEEE22firstDataFrameReceivedERKNS_15DoCanConnectionIS2_EEtthRKN3etl4spanIKhLm18446744073709551615EEE
FN:229,_ZN5docan13DoCanReceiverINS_18DoCanDataLinkLayerIjthLj4294967295EtEEE22firstDataFrameReceivedERKNS_15DoCanConnectionIS2_EEtthRKN3etl4spanIKhLm18446744073709551615EEE
FN:309,_ZN5docan13DoCanReceiverIN12_GLOBAL__N_113DataLinkLayerEE28consecutiveDataFrameReceivedEjhRKN3etl4spanIKhLm18446744073709551615EEE
FN:309,_ZN5docan13DoCanReceiverINS_18DoCanDataLinkLayerIjthLj0EtEEE28consecutiveDataFrameReceivedEjhRKN3etl4spanIKhLm18446744073709551615EEE
FN:309,_ZN5docan13DoCanReceiverINS_18DoCanDataLinkLayerIjthLj4294967295EtEEE28consecutiveDataFrameReceivedEjhRKN3etl4spanIKhLm18446744073709551615EEE
FN:350,_ZN5docan13DoCanReceiverINS_18DoCanDataLinkLayerIjthLj0EtEEE10cyclicTaskEj
FN:350,_ZN5docan13DoCanReceiverIN12_GLOBAL__N_113DataLinkLayerEE10cyclicTaskEj
FN:350,_ZN5docan13DoCanReceiverINS_18DoCanDataLinkLayerIjthLj4294967295EtEEE10cyclicTaskEj
FN:376,_ZN5docan13DoCanReceiverIN12_GLOBAL__N_113DataLinkLayerEE25transportMessageProcessedERN9transport16TransportMessageENS4_34ITransportMessageProcessedListener16ProcessingResultE
FN:376,_ZN5docan13DoCanReceiverINS_18DoCanDataLinkLayerIjthLj0EtEEE25transportMessageProcessedERN9transport16TransportMessageENS4_34ITransportMessageProcessedListener16ProcessingResultE
FN:376,_ZN5docan13DoCanReceiverINS_18DoCanDataLinkLayerIjthLj4294967295EtEEE25transportMessageProcessedERN9transport16TransportMessageENS4_34ITransportMessageProcessedListener16ProcessingResultE
FN:384,_ZN5docan13DoCanReceiverINS_18DoCanDataLinkLayerIjthLj4294967295EtEEE23processMessageReceiversEv
FN:384,_ZN5docan13DoCanReceiverINS_18DoCanDataLinkLayerIjthLj0EtEEE23processMessageReceiversEv
FN:384,_ZN5docan13DoCanReceiverIN12_GLOBAL__N_113DataLinkLayerEE23processMessageReceiversEv
FN:408,_ZN5docan13DoCanReceiverIN12_GLOBAL__N_113DataLinkLayerEE17handleTransitionsERNS_20DoCanMessageReceiverIS2_EENS_13ReceiveResultEPKc
FN:408,_ZN5docan13DoCanReceiverINS_18DoCanDataLinkLayerIjthLj4294967295EtEEE17handleTransitionsERNS_20DoCanMessageReceiverIS2_EENS_13ReceiveResultEPKc
FN:408,_ZN5docan13DoCanReceiverINS_18DoCanDataLinkLayerIjthLj0EtEEE17handleTransitionsERNS_20DoCanMessageReceiverIS2_EENS_13ReceiveResultEPKc
FN:419,_ZN5docan13DoCanReceiverIN12_GLOBAL__N_113DataLinkLayerEE12handleResultERNS_20DoCanMessageReceiverIS2_EENS_13ReceiveResultEPKc
FN:419,_ZN5docan13DoCanReceiverINS_18DoCanDataLinkLayerIjthLj4294967295EtEEE12handleResultERNS_20DoCanMessageReceiverIS2_EENS_13ReceiveResultEPKc
FN:419,_ZN5docan13DoCanReceiverINS_18DoCanDataLinkLayerIjthLj0EtEEE12handleResultERNS_20DoCanMessageReceiverIS2_EENS_13ReceiveResultEPKc
FN:502,_ZN5docan13DoCanReceiverINS_18DoCanDataLinkLayerIjthLj4294967295EtEEE16handleTransitionERNS_20DoCanMessageReceiverIS2_EE
FN:502,_ZN5docan13DoCanReceiverINS_18DoCanDataLinkLayerIjthLj0EtEEE16handleTransitionERNS_20DoCanMessageReceiverIS2_EE
FN:502,_ZN5docan13DoCanReceiverIN12_GLOBAL__N_113DataLinkLayerEE16handleTransitionERNS_20DoCanMessageReceiverIS2_EE
FN:531,_ZN5docan13DoCanReceiverINS_18DoCanDataLinkLayerIjthLj0EtEEE24allocateTransportMessageERNS_20DoCanMessageReceiverIS2_EEb
FN:531,_ZN5docan13DoCanReceiverINS_18DoCanDataLinkLayerIjthLj4294967295EtEEE24allocateTransportMessageERNS_20DoCanMessageReceiverIS2_EEb
FN:531,_ZN5docan13DoCanReceiverIN12_GLOBAL__N_113DataLinkLayerEE24allocateTransportMessageERNS_20DoCanMessageReceiverIS2_EEb
FN:612,_ZN5docan13DoCanReceiverINS_18DoCanDataLinkLayerIjthLj4294967295EtEEE20sendFlowControlFrameERNS_20DoCanMessageReceiverIS2_EE
FN:612,_ZN5docan13DoCanReceiverINS_18DoCanDataLinkLayerIjthLj0EtEEE20sendFlowControlFrameERNS_20DoCanMessageReceiverIS2_EE
FN:612,_ZN5docan13DoCanReceiverIN12_GLOBAL__N_113DataLinkLayerEE20sendFlowControlFrameERNS_20DoCanMessageReceiverIS2_EE
FN:638,_ZN5docan13DoCanReceiverINS_18DoCanDataLinkLayerIjthLj4294967295EtEEE31startProcessingTransportMessageERNS_20DoCanMessageReceiverIS2_EE
FN:638,_ZN5docan13DoCanReceiverIN12_GLOBAL__N_113DataLinkLayerEE31startProcessingTransportMessageERNS_20DoCanMessageReceiverIS2_EE
FN:638,_ZN5docan13DoCanReceiverINS_18DoCanDataLinkLayerIjthLj0EtEEE31startProcessingTransportMessageERNS_20DoCanMessageReceiverIS2_EE
FN:652,_ZN5docan13DoCanReceiverINS_18DoCanDataLinkLayerIjthLj0EtEEE7releaseERNS_20DoCanMessageReceiverIS2_EE
FN:652,_ZN5docan13DoCanReceiverIN12_GLOBAL__N_113DataLinkLayerEE7releaseERNS_20DoCanMessageReceiverIS2_EE
FN:652,_ZN5docan13DoCanReceiverINS_18DoCanDataLinkLayerIjthLj4294967295EtEEE7releaseERNS_20DoCanMessageReceiverIS2_EE
FN:678,_ZNK5docan13DoCanReceiverIN12_GLOBAL__N_113DataLinkLayerEE10resetTimerERNS_20DoCanMessageReceiverIS2_EE
FN:678,_ZNK5docan13DoCanReceiverINS_18DoCanDataLinkLayerIjthLj4294967295EtEEE10resetTimerERNS_20DoCanMessageReceiverIS2_EE
FN:678,_ZNK5docan13DoCanReceiverINS_18DoCanDataLinkLayerIjthLj0EtEEE10resetTimerERNS_20DoCanMessageReceiverIS2_EE
FN:704,_ZN5docan13DoCanReceiverINS_18DoCanDataLinkLayerIjthLj0EtEEE29handlePendingMessageReceiversEj
FN:704,_ZN5docan13DoCanReceiverIN12_GLOBAL__N_113DataLinkLayerEE29handlePendingMessageReceiversEj
FN:704,_ZN5docan13DoCanReceiverINS_18DoCanDataLinkLayerIjthLj4294967295EtEEE29handlePendingMessageReceiversEj
FN:738,_ZN5docan13DoCanReceiverINS_18DoCanDataLinkLayerIjthLj0EtEEE19findMessageReceiverEj
FN:738,_ZN5docan13DoCanReceiverIN12_GLOBAL__N_113DataLinkLayerEE19findMessageReceiverEj
FN:738,_ZN5docan13DoCanReceiverINS_18DoCanDataLinkLayerIjthLj4294967295EtEEE19findMessageReceiverEj
FN:753,_ZN5docan13DoCanReceiverIN12_GLOBAL__N_113DataLinkLayerEE13setRemoveLockEv
FN:753,_ZN5docan13DoCanReceiverINS_18DoCanDataLinkLayerIjthLj0EtEEE13setRemoveLockEv
FN:753,_ZN5docan13DoCanReceiverINS_18DoCanDataLinkLayerIjthLj4294967295EtEEE13setRemoveLockEv
FN:762,_ZN5docan13DoCanReceiverIN12_GLOBAL__N_113DataLinkLayerEE17releaseRemoveLockEv
FN:762,_ZN5docan13DoCanReceiverINS_18DoCanDataLinkLayerIjthLj0EtEEE17releaseRemoveLockEv
FN:762,_ZN5docan13DoCanReceiverINS_18DoCanDataLinkLayerIjthLj4294967295EtEEE17releaseRemoveLockEv
FN:789,_ZNK5docan13DoCanReceiverINS_18DoCanDataLinkLayerIjthLj0EtEEE7getNameEv
FN:789,_ZNK5docan13DoCanReceiverINS_18DoCanDataLinkLayerIjthLj4294967295EtEEE7getNameEv
FN:789,_ZNK5docan13DoCanReceiverIN12_GLOBAL__N_113DataLinkLayerEE7getNameEv
FN:795,_ZN5docan13DoCanReceiverINS_18DoCanDataLinkLayerIjthLj0EtEEE18copyFirstFrameDataEPhRKN3etl4spanIKhLm18446744073709551615EEE
FN:795,_ZN5docan13DoCanReceiverIN12_GLOBAL__N_113DataLinkLayerEE18copyFirstFrameDataEPhRKN3etl4spanIKhLm18446744073709551615EEE
FN:795,_ZN5docan13DoCanReceiverINS_18DoCanDataLinkLayerIjthLj4294967295EtEEE18copyFirstFrameDataEPhRKN3etl4spanIKhLm18446744073709551615EEE
FN:805,_ZN5docan13DoCanReceiverINS_18DoCanDataLinkLayerIjthLj0EtEEE11RemoveGuardC2EPS3_
FN:805,_ZN5docan13DoCanReceiverINS_18DoCanDataLinkLayerIjthLj4294967295EtEEE11RemoveGuardC2EPS3_
FN:805,_ZN5docan13DoCanReceiverIN12_GLOBAL__N_113DataLinkLayerEE11RemoveGuardC2EPS3_
FN:812,_ZN5docan13DoCanReceiverINS_18DoCanDataLinkLayerIjthLj4294967295EtEEE11RemoveGuardD2Ev
FN:812,_ZN5docan13DoCanReceiverINS_18DoCanDataLinkLayerIjthLj0EtEEE11RemoveGuardD2Ev
FN:812,_ZN5docan13DoCanReceiverIN12_GLOBAL__N_113DataLinkLayerEE11RemoveGuardD2Ev
FNDA:729,_ZN5docan13DoCanReceiverINS_18DoCanDataLinkLayerIjthLj0EtEEE11RemoveGuardC2EPS3_
FNDA:1,_ZN5docan13DoCanReceiverINS_18DoCanDataLinkLayerIjthLj4294967295EtEEE11RemoveGuardC2EPS3_
FNDA:0,_ZN5docan13DoCanReceiverINS_18DoCanDataLinkLayerIjthLj4294967295EtEEE31startProcessingTransportMessageERNS_20DoCanMessageReceiverIS2_EE
FNDA:1,_ZNK5docan13DoCanReceiverINS_18DoCanDataLinkLayerIjthLj0EtEEE7getNameEv
FNDA:4,_ZN5docan13DoCanReceiverINS_18DoCanDataLinkLayerIjthLj0EtEEE24allocateTransportMessageERNS_20DoCanMessageReceiverIS2_EEb
FNDA:2782,_ZN5docan13DoCanReceiverIN12_GLOBAL__N_113DataLinkLayerEE17releaseRemoveLockEv
